	.file	"clock.c"
	.text
.Ltext0:
	.bss
	.align	2
profile_last_time_value:
	.space	4
	.section	.rodata
	.align	2
	.type	CLOCK_SERVER_NAME, %object
	.size	CLOCK_SERVER_NAME, 8
CLOCK_SERVER_NAME:
	.ascii	"ClckSvr\000"
	.align	2
	.type	ADMINISTRATOR_TASK_NAME, %object
	.size	ADMINISTRATOR_TASK_NAME, 6
ADMINISTRATOR_TASK_NAME:
	.ascii	"Admin\000"
	.text
	.align	2
	.global	ClockServer_Initialize
	.type	ClockServer_Initialize, %function
ClockServer_Initialize:
.LFB3:
	.file 1 "clock.c"
	.loc 1 66 0
	@ args = 0, pretend = 0, frame = 0
	@ frame_needed = 0, uses_anonymous_args = 0
.LVL0:
	stmfd	sp!, {r4, lr}
.LCFI0:
	.loc 1 66 0
	mov	r4, r0
	.loc 1 67 0
	bl	MyTid(PLT)
.LVL1:
	.loc 1 69 0
	ldr	r3, .L8
	.loc 1 68 0
	mov	r1, #0
	.loc 1 70 0
	ldr	r2, .L8+4
	.loc 1 69 0
	strh	r1, [r4, r3]	@ movhi
	ldr	lr, .L8+8
	.loc 1 70 0
	mov	r3, #1	@ movhi
	strh	r3, [r4, r2]	@ movhi
	mov	ip, r1
.LVL2:
	.loc 1 67 0
	str	r0, [r4, #0]
	.loc 1 68 0
	str	r1, [r4, #36]
	mov	r3, r1
.LVL3:
.L2:
	.loc 1 73 0
	add	ip, ip, #1
	cmp	ip, lr
.LVL4:
	.loc 1 74 0
	str	r3, [r4, #40]
	.loc 1 73 0
	add	r4, r4, #4
	bne	.L2
	.loc 1 76 0
	ldmfd	sp!, {r4, pc}
.L9:
	.align	2
.L8:
	.word	6324
	.word	6326
	.word	1571
.LFE3:
	.size	ClockServer_Initialize, .-ClockServer_Initialize
	.align	2
	.global	ClockServer_HandleShutdownRequest
	.type	ClockServer_HandleShutdownRequest, %function
ClockServer_HandleShutdownRequest:
.LFB9:
	.loc 1 191 0
	@ args = 0, pretend = 0, frame = 0
	@ frame_needed = 0, uses_anonymous_args = 0
	@ link register save eliminated.
.LVL5:
	.loc 1 192 0
	ldr	r2, .L12
.LVL6:
	.loc 1 191 0
	mov	r3, r0
	.loc 1 192 0
	mov	r0, #1	@ movhi
.LVL7:
	strh	r0, [r3, r2]	@ movhi
	.loc 1 195 0
	mov	r0, #10
	str	r0, [r3, #20]!
	.loc 1 197 0
	mov	r2, #16
	mov	r0, r1
	mov	r1, r3
.LVL8:
	.loc 1 191 0
	@ lr needed for prologue
	.loc 1 198 0
	.loc 1 197 0
	b	Reply(PLT)
.LVL9:
.L13:
	.align	2
.L12:
	.word	6324
.LFE9:
	.size	ClockServer_HandleShutdownRequest, .-ClockServer_HandleShutdownRequest
	.section	.rodata.str1.4,"aMS",%progbits,1
	.align	2
.LC0:
	.ascii	"\033[1;33mClockServer: WARNING delay value in the p"
	.ascii	"ast from tid=%d! Got=%d, now=%d\033[0m\012\000"
	.text
	.align	2
	.global	ClockServer_HandleDelayRequest
	.type	ClockServer_HandleDelayRequest, %function
ClockServer_HandleDelayRequest:
.LFB6:
	.loc 1 122 0
	@ args = 0, pretend = 0, frame = 0
	@ frame_needed = 0, uses_anonymous_args = 0
.LVL10:
	stmfd	sp!, {r4, r5, r6, r7, sl, lr}
.LCFI1:
	mov	r3, r3, asl #16
.LVL11:
	.loc 1 125 0
	movs	r7, r3, lsr #16
.LVL12:
	.loc 1 126 0
	ldreq	ip, [r2, #4]
	ldreq	r3, [r0, #36]
	ldrne	ip, [r2, #4]
	addeq	ip, ip, r3
	streq	ip, [r2, #4]
	.loc 1 129 0
	ldr	lr, [r0, #36]
	.loc 1 122 0
	ldr	sl, .L27
	.loc 1 144 0
	add	r6, r0, r1, asl #2
	.loc 1 122 0
	mov	r5, r1
.LBB2:
	.loc 1 130 0
	mov	r2, r1
.LVL13:
	ldr	r1, .L27+4
.LVL14:
.LBE2:
	.loc 1 122 0
.L25:
	add	sl, pc, sl
	.loc 1 129 0
	cmp	ip, lr
	.loc 1 122 0
	mov	r4, r0
	sub	sp, sp, #4
.LCFI2:
.LVL15:
.LBB3:
	.loc 1 130 0
	mov	r3, ip
	mov	r0, #0
.LVL16:
	add	r1, sl, r1
.LBE3:
	.loc 1 129 0
	bls	.L26
	.loc 1 144 0
	str	ip, [r6, #40]
	.loc 1 146 0
	add	sp, sp, #4
	ldmfd	sp!, {r4, r5, r6, r7, sl, pc}
.L26:
.LBB4:
	.loc 1 130 0
	str	lr, [sp, #0]
	bl	assertf(PLT)
.LVL17:
	.loc 1 136 0
	cmp	r7, #0
	.loc 1 137 0
	movne	r3, #21
	.loc 1 139 0
	moveq	r3, #19
	.loc 1 142 0
	mov	r0, r5
	add	r1, r4, #20
	mov	r2, #16
	.loc 1 137 0
	strne	r3, [r4, #20]
	.loc 1 139 0
	streq	r3, [r4, #20]
.LBE4:
	.loc 1 146 0
	add	sp, sp, #4
	ldmfd	sp!, {r4, r5, r6, r7, sl, lr}
.LBB5:
	.loc 1 142 0
	b	Reply(PLT)
.L28:
	.align	2
.L27:
	.word	_GLOBAL_OFFSET_TABLE_-(.L25+8)
	.word	.LC0(GOTOFF)
.LBE5:
.LFE6:
	.size	ClockServer_HandleDelayRequest, .-ClockServer_HandleDelayRequest
	.align	2
	.global	ClockServer_HandleTimeRequest
	.type	ClockServer_HandleTimeRequest, %function
ClockServer_HandleTimeRequest:
.LFB5:
	.loc 1 112 0
	@ args = 0, pretend = 0, frame = 0
	@ frame_needed = 0, uses_anonymous_args = 0
	@ link register save eliminated.
.LVL18:
	.loc 1 117 0
	ldr	ip, [r0, #36]
	.loc 1 115 0
	add	r2, r0, #20
.LVL19:
	.loc 1 116 0
	mov	r3, #17
	str	r3, [r0, #20]
	.loc 1 117 0
	str	ip, [r2, #4]
	.loc 1 119 0
	mov	r0, r1
.LVL20:
	mov	r1, r2
.LVL21:
	mov	r2, #16
.LVL22:
	.loc 1 112 0
	@ lr needed for prologue
	.loc 1 120 0
	.loc 1 119 0
	b	Reply(PLT)
.LVL23:
.LFE5:
	.size	ClockServer_HandleTimeRequest, .-ClockServer_HandleTimeRequest
	.section	.rodata.str1.4
	.align	2
.LC1:
	.ascii	"ClockServer didn't get a clock tick event id\000"
	.global	__floatsidf
	.global	__adddf3
	.global	__divdf3
	.global	__muldf3
	.global	__fixdfsi
	.global	__gtdf2
	.align	2
.LC2:
	.ascii	"\033[1;31mSLOW! %dus\033[0m\012\000"
	.text
	.align	2
	.global	ClockServer_HandleNotifier
	.type	ClockServer_HandleNotifier, %function
ClockServer_HandleNotifier:
.LFB4:
	.loc 1 79 0
	@ args = 0, pretend = 0, frame = 0
	@ frame_needed = 0, uses_anonymous_args = 0
.LVL24:
	stmfd	sp!, {r4, r5, r6, r7, r8, r9, sl, fp, lr}
.LCFI3:
	ldr	sl, .L44+24
	.loc 1 80 0
	ldr	r3, [r2, #4]
	.loc 1 79 0
	mov	fp, r1
	.loc 1 80 0
	ldr	r1, .L44+28
.LVL25:
	.loc 1 79 0
.L41:
	add	sl, pc, sl
	mov	r7, r0
	.loc 1 80 0
	add	r1, sl, r1
	cmp	r3, #1
	movne	r0, #0
	moveq	r0, #1
.LVL26:
	bl	assert(PLT)
.LVL27:
	.loc 1 84 0
	ldr	r3, .L44+32
	.loc 1 94 0
	ldr	r9, .L44+36
	.loc 1 84 0
	ldrsh	r2, [r7, r3]
	.loc 1 94 0
	ldr	r4, [r7, r9]
	.loc 1 84 0
	cmp	r2, #0
	.loc 1 85 0
	movne	r3, #12
	.loc 1 86 0
	ldrne	r2, .L44+40
	.loc 1 85 0
	strne	r3, [r7, #20]
	.loc 1 88 0
	moveq	r3, #10
	.loc 1 86 0
	movne	r3, #0	@ movhi
	strneh	r3, [r7, r2]	@ movhi
	.loc 1 88 0
	streq	r3, [r7, #20]
	.loc 1 93 0
	ldr	r3, .L44+44
	ldr	r8, [r3, #0]
	.loc 1 94 0
	rsb	r4, r4, r8
	mov	r0, r4
	bl	__floatsidf(PLT)
	cmp	r4, #0
	mov	r5, r0
	mov	r6, r1
	ldr	r2, .L44+48
	mov	r3, #0
	blt	.L42
.L35:
	adr	r2, .L44
	ldmia	r2, {r2-r3}
	mov	r0, r5
	mov	r1, r6
	bl	__divdf3(PLT)
	adr	r2, .L44+8
	ldmia	r2, {r2-r3}
	bl	__muldf3(PLT)
	bl	__fixdfsi(PLT)
	.loc 1 98 0
	mov	r2, #16
	.loc 1 94 0
	mov	r4, r0
	.loc 1 98 0
	add	r1, r7, #20
	.loc 1 95 0
	str	r8, [r7, r9]
	.loc 1 98 0
	mov	r0, fp
	bl	Reply(PLT)
	.loc 1 102 0
	mov	r0, r4
.LVL28:
	bl	__floatsidf(PLT)
.LVL29:
	adr	r2, .L44+16
	ldmia	r2, {r2-r3}
	bl	__gtdf2(PLT)
	cmp	r0, #0
	.loc 1 103 0
	ldr	r2, .L44+52
	.loc 1 102 0
	ble	.L36
	.loc 1 103 0
	ldr	r3, [r7, r2]
	.loc 1 105 0
	ldr	r0, .L44+56
	.loc 1 103 0
	add	r3, r3, #1
	.loc 1 104 0
	tst	r3, #1
	.loc 1 105 0
	add	r0, sl, r0
	mov	r1, r4
.LVL30:
	.loc 1 103 0
	str	r3, [r7, r2]
	.loc 1 104 0
	beq	.L43
.L36:
	.loc 1 109 0
	ldr	r3, [r7, #36]
	add	r3, r3, #1
	str	r3, [r7, #36]
	.loc 1 110 0
	ldmfd	sp!, {r4, r5, r6, r7, r8, r9, sl, fp, pc}
.L43:
	.loc 1 105 0
	bl	robprintfbusy(PLT)
.LVL31:
	.loc 1 109 0
	ldr	r3, [r7, #36]
	add	r3, r3, #1
	str	r3, [r7, #36]
	.loc 1 110 0
	ldmfd	sp!, {r4, r5, r6, r7, r8, r9, sl, fp, pc}
.L42:
	.loc 1 94 0
	bl	__adddf3(PLT)
	mov	r5, r0
	mov	r6, r1
	b	.L35
.L45:
	.align	2
.L44:
	.word	1083095040
	.word	0
	.word	1083129856
	.word	0
	.word	1083564032
	.word	0
	.word	_GLOBAL_OFFSET_TABLE_-(.L41+8)
	.word	.LC1(GOTOFF)
	.word	6324
	.word	6328
	.word	6326
	.word	-2139029408
	.word	1106247680
	.word	6332
	.word	.LC2(GOTOFF)
.LFE4:
	.size	ClockServer_HandleNotifier, .-ClockServer_HandleNotifier
	.section	.rodata.str1.4
	.align	2
.LC3:
	.ascii	"ClockServer_GetNextTask tid not in range\000"
	.text
	.align	2
	.global	ClockServer_GetNextTask
	.type	ClockServer_GetNextTask, %function
ClockServer_GetNextTask:
.LFB7:
	.loc 1 149 0
	@ args = 0, pretend = 0, frame = 0
	@ frame_needed = 0, uses_anonymous_args = 0
.LVL32:
	stmfd	sp!, {r4, r5, sl, lr}
.LCFI4:
	ldr	sl, .L57
	mov	r5, r0
.L56:
	add	sl, pc, sl
	.loc 1 152 0
	mov	r0, r1
.LVL33:
	.loc 1 149 0
	mov	r4, r1
	.loc 1 152 0
	bl	is_tid_in_range(PLT)
.LVL34:
	.loc 1 152 0
	ldr	r1, .L57+4
	add	r1, sl, r1
	bl	assertf(PLT)
	.loc 1 155 0
	ldr	r3, .L57+8
	cmp	r4, r3
	bgt	.L47
	mov	r3, r4, asl #2
	add	r3, r3, #40
	ldr	lr, .L57+12
	ldr	ip, .L57+16
	add	r1, r5, r3
	mov	r0, r4
.LVL35:
.L49:
	.loc 1 156 0
	ldr	r2, [r1], #4
	cmp	r2, #0
	beq	.L50
	ldr	r3, [r5, #36]
	cmp	r2, r3
	ldmlsfd	sp!, {r4, r5, sl, pc}
	ldrsh	r3, [r5, lr]
	cmp	r3, #0
	ldmnefd	sp!, {r4, r5, sl, pc}
.L50:
	.loc 1 155 0
	add	r0, r0, #1
	cmp	r0, ip
	bne	.L49
.L47:
	mov	r0, #0
.LVL36:
	.loc 1 162 0
	ldmfd	sp!, {r4, r5, sl, pc}
.L58:
	.align	2
.L57:
	.word	_GLOBAL_OFFSET_TABLE_-(.L56+8)
	.word	.LC3(GOTOFF)
	.word	1570
	.word	6324
	.word	1571
.LFE7:
	.size	ClockServer_GetNextTask, .-ClockServer_GetNextTask
	.section	.rodata.str1.4
	.align	2
.LC4:
	.ascii	"ClockServer_UnblockDelayedTasks running for too lon"
	.ascii	"g\000"
	.text
	.align	2
	.global	ClockServer_UnblockDelayedTasks
	.type	ClockServer_UnblockDelayedTasks, %function
ClockServer_UnblockDelayedTasks:
.LFB8:
	.loc 1 164 0
	@ args = 0, pretend = 0, frame = 0
	@ frame_needed = 0, uses_anonymous_args = 0
.LVL37:
	stmfd	sp!, {r4, r5, r6, r7, sl, lr}
.LCFI5:
	ldr	sl, .L65
	mov	r6, #0
.LVL38:
	ldr	r7, .L65+4
	mov	r4, r0
	mov	r5, r6
.LVL39:
.L64:
	add	sl, pc, sl
.LVL40:
.L60:
.LBB6:
	.loc 1 169 0
	mov	r1, r5
	mov	r0, r4
	bl	ClockServer_GetNextTask(PLT)
	.loc 1 171 0
	subs	r5, r0, #0
	.loc 1 184 0
	add	r6, r6, #1
	.loc 1 182 0
	add	r1, r4, #20
	mov	r2, #16
	.loc 1 175 0
	add	ip, r4, r5, asl #2
	.loc 1 171 0
	ldmeqfd	sp!, {r4, r5, r6, r7, sl, pc}
	.loc 1 175 0
	mov	r3, #0
	str	r3, [ip, #40]
	.loc 1 178 0
	mov	ip, #19
	str	ip, [r4, #20]
	.loc 1 182 0
	bl	Reply(PLT)
	.loc 1 186 0
	ldr	r0, .L65+8
	add	r1, sl, r7
	cmp	r6, r0
	movgt	r0, #0
	movle	r0, #1
	bl	assert(PLT)
	b	.L60
.L66:
	.align	2
.L65:
	.word	_GLOBAL_OFFSET_TABLE_-(.L64+8)
	.word	.LC4(GOTOFF)
	.word	1571
.LBE6:
.LFE8:
	.size	ClockServer_UnblockDelayedTasks, .-ClockServer_UnblockDelayedTasks
	.section	.rodata
	.align	2
	.type	__func__.1988, %object
	.size	__func__.1988, 18
__func__.1988:
	.ascii	"ClockServer_Start\000"
	.section	.rodata.str1.4
	.align	2
.LC5:
	.ascii	"ClockClient_Start\000"
	.align	2
.LC6:
	.ascii	"NotifyMessage size too big\000"
	.align	2
.LC7:
	.ascii	"ClockMessage size too big\000"
	.align	2
.LC8:
	.ascii	"ClockServer: Failed to register name\000"
	.align	2
.LC9:
	.ascii	"ClockNotifier tid not positive\000"
	.align	2
.LC10:
	.ascii	"ClockServer: unknown message type %d\000"
	.text
	.align	2
	.global	ClockServer_Start
	.type	ClockServer_Start, %function
ClockServer_Start:
.LFB2:
	.loc 1 11 0
	@ args = 0, pretend = 0, frame = 6340
	@ frame_needed = 0, uses_anonymous_args = 0
.LVL41:
	stmfd	sp!, {r4, r5, r6, sl, lr}
.LCFI6:
	ldr	sl, .L82
	.loc 1 12 0
	ldr	r2, .L82+4
	ldr	r3, .L82+8
	.loc 1 11 0
.L80:
	add	sl, pc, sl
	sub	sp, sp, #6336
.LCFI7:
.LVL42:
	sub	sp, sp, #4
.LCFI8:
.LVL43:
	.loc 1 12 0
	ldr	r1, [sl, r2]
	ldr	r0, [sl, r3]
	bl	DebugRegisterFunction(PLT)
	.loc 1 13 0
	ldr	r3, .L82+12
	ldr	r1, .L82+16
	ldr	r0, [sl, r3]
	add	r1, sl, r1
	bl	DebugRegisterFunction(PLT)
	.loc 1 15 0
	mov	r0, sp
	bl	ClockServer_Initialize(PLT)
	.loc 1 20 0
	ldr	r1, .L82+20
	mov	r0, #1
	add	r1, sl, r1
	bl	assert(PLT)
	.loc 1 21 0
	ldr	r1, .L82+24
	mov	r0, #1
	add	r1, sl, r1
	bl	assert(PLT)
	.loc 1 23 0
	ldr	r3, .L82+28
	.loc 1 15 0
	add	r5, sp, #4
	.loc 1 23 0
	ldr	r0, [sl, r3]
	bl	RegisterAs(PLT)
	.loc 1 24 0
	ldr	r1, .L82+32
	rsbs	r0, r0, #1
	movcc	r0, #0
	add	r1, sl, r1
	bl	assert(PLT)
	.loc 1 26 0
	ldr	r3, .L82+36
	mov	r0, #0
	ldr	r1, [sl, r3]
	bl	Create(PLT)
	.loc 1 27 0
	ldr	r1, .L82+40
	cmp	r0, #0
	movle	r0, #0
	movgt	r0, #1
	add	r1, sl, r1
	bl	assert(PLT)
	.loc 1 30 0
	ldr	ip, .L82+44
	.loc 1 33 0
	add	r3, sp, #6144
	.loc 1 30 0
	ldr	r2, [ip, #0]
	.loc 1 33 0
	ldrsh	r1, [r3, #182]
	.loc 1 31 0
	ldr	r3, .L82+48
	.loc 1 30 0
	orr	r2, r2, #256
	.loc 1 31 0
	ldr	r0, [r3, #0]
	.loc 1 33 0
	cmp	r1, #0
	.loc 1 30 0
	str	r2, [ip, #0]
	.loc 1 31 0
	add	r2, sp, #4096
	.loc 1 15 0
	sub	r5, r5, #4
	.loc 1 17 0
	add	r4, sp, #4
	.loc 1 31 0
	str	r0, [r2, #2232]
	.loc 1 33 0
	bne	.L81
.LVL44:
.L68:
	.loc 1 62 0
	bl	Exit(PLT)
	.loc 1 63 0
	add	sp, sp, #196
	add	sp, sp, #6144
	ldmfd	sp!, {r4, r5, r6, sl, pc}
.LVL45:
.L81:
	add	r6, sp, #6336
.LVL46:
.L69:
	.loc 1 34 0
	mov	r2, #16
	mov	r1, r4
	mov	r0, r6
	bl	Receive(PLT)
	.loc 1 37 0
	ldr	r2, [r4, #0]
	sub	r3, r2, #12
	cmp	r3, #8
	addls	pc, pc, r3, asl #2
	b	.L70
	.p2align 2
.L76:
	b	.L71
	b	.L70
	b	.L70
	b	.L72
	b	.L73
	b	.L70
	b	.L74
	b	.L70
	b	.L75
.L71:
	.loc 1 51 0
	add	r3, sp, #4096
	mov	r0, r5
	ldr	r1, [r3, #2240]
	mov	r2, r4
.LVL47:
	bl	ClockServer_HandleShutdownRequest(PLT)
.LVL48:
.L77:
	.loc 1 58 0
	mov	r0, r5
	bl	ClockServer_UnblockDelayedTasks(PLT)
	.loc 1 59 0
	bl	Pass(PLT)
	.loc 1 33 0
	add	r2, sp, #6144
	ldrsh	r3, [r2, #182]
	cmp	r3, #0
	bne	.L69
	b	.L68
.L72:
	.loc 1 39 0
	add	r3, sp, #4096
	mov	r0, r5
	ldr	r1, [r3, #2240]
	mov	r2, r4
.LVL49:
	bl	ClockServer_HandleNotifier(PLT)
.LVL50:
	b	.L77
.L73:
	.loc 1 42 0
	add	r2, sp, #4096
	ldr	r1, [r2, #2240]
	mov	r0, r5
	mov	r2, r4
.LVL51:
	bl	ClockServer_HandleTimeRequest(PLT)
.LVL52:
	b	.L77
.L74:
	.loc 1 45 0
	add	r3, sp, #4096
	ldr	r1, [r3, #2240]
	mov	r0, r5
	mov	r2, r4
.LVL53:
	mov	r3, #0
	bl	ClockServer_HandleDelayRequest(PLT)
.LVL54:
	b	.L77
.L70:
	.loc 1 54 0
	ldr	r1, .L82+52
	mov	r0, #0
	add	r1, sl, r1
	bl	assertf(PLT)
	b	.L77
.L75:
	.loc 1 48 0
	add	r2, sp, #4096
	ldr	r1, [r2, #2240]
	mov	r0, r5
	mov	r2, r4
.LVL55:
	mov	r3, #1
	bl	ClockServer_HandleDelayRequest(PLT)
.LVL56:
	b	.L77
.L83:
	.align	2
.L82:
	.word	_GLOBAL_OFFSET_TABLE_-(.L80+8)
	.word	__func__.1988(GOT)
	.word	ClockServer_Start(GOT)
	.word	ClockClient_Start(GOT)
	.word	.LC5(GOTOFF)
	.word	.LC6(GOTOFF)
	.word	.LC7(GOTOFF)
	.word	CLOCK_SERVER_NAME(GOT)
	.word	.LC8(GOTOFF)
	.word	ClockNotifier_Start(GOT)
	.word	.LC9(GOTOFF)
	.word	-2139029372
	.word	-2139029408
	.word	.LC10(GOTOFF)
.LFE2:
	.size	ClockServer_Start, .-ClockServer_Start
	.align	2
	.global	ClockClient_Initialize
	.type	ClockClient_Initialize, %function
ClockClient_Initialize:
.LFB11:
	.loc 1 250 0
	@ args = 0, pretend = 0, frame = 0
	@ frame_needed = 0, uses_anonymous_args = 0
.LVL57:
	stmfd	sp!, {r4, sl, lr}
.LCFI9:
	ldr	sl, .L87
	mov	r4, r0
.L86:
	add	sl, pc, sl
	.loc 1 251 0
	bl	MyTid(PLT)
.LVL58:
	.loc 1 252 0
	ldr	r3, .L87+4
	.loc 1 251 0
	str	r0, [r4, #4]
	.loc 1 252 0
	ldr	r0, [sl, r3]
	bl	WhoIs(PLT)
	str	r0, [r4, #0]
	.loc 1 253 0
	bl	MyParentTid(PLT)
	str	r0, [r4, #8]
	.loc 1 254 0
	ldmfd	sp!, {r4, sl, pc}
.L88:
	.align	2
.L87:
	.word	_GLOBAL_OFFSET_TABLE_-(.L86+8)
	.word	CLOCK_SERVER_NAME(GOT)
.LFE11:
	.size	ClockClient_Initialize, .-ClockClient_Initialize
	.section	.rodata.str1.4
	.align	2
.LC11:
	.ascii	"ClockClient: server not found. got=%d\000"
	.align	2
.LC12:
	.ascii	"ClockClient: parent not found. got=%d\000"
	.align	2
.LC13:
	.ascii	"ClockClient TID=%d: failed to get ACK message\012\000"
	.align	2
.LC14:
	.ascii	"ClockClient TID=%d: Didn't get an admin tid\000"
	.text
	.align	2
	.global	ClockClient_Start
	.type	ClockClient_Start, %function
ClockClient_Start:
.LFB10:
	.loc 1 201 0
	@ args = 0, pretend = 0, frame = 52
	@ frame_needed = 0, uses_anonymous_args = 0
.LVL59:
	stmfd	sp!, {r4, r5, r6, r7, r8, r9, sl, fp, lr}
.LCFI10:
	ldr	sl, .L101
	sub	sp, sp, #56
.LCFI11:
.LVL60:
.L98:
	add	sl, pc, sl
	.loc 1 203 0
	add	r0, sp, #4
	bl	ClockClient_Initialize(PLT)
	.loc 1 204 0
	ldr	r0, [sp, #4]
	ldr	r1, .L101+4
	mov	r2, r0
	add	r1, sl, r1
	bl	assertf(PLT)
	.loc 1 205 0
	ldr	r1, .L101+8
	ldr	r0, [sp, #4]
	add	r1, sl, r1
	ldr	r2, [sp, #12]
	.loc 1 212 0
	mov	r4, #16
	.loc 1 207 0
	add	r8, sp, #24
	.loc 1 208 0
	add	fp, sp, #40
	.loc 1 205 0
	bl	assertf(PLT)
	.loc 1 212 0
	mov	r2, r4
	mov	r3, fp
	.loc 1 210 0
	mov	ip, #22
	.loc 1 212 0
	mov	r1, r8
	ldr	r0, [sp, #12]
	.loc 1 210 0
	str	ip, [sp, #24]
	.loc 1 212 0
	str	r4, [sp, #0]
	.loc 1 214 0
	ldr	r9, .L101+12
	.loc 1 212 0
	bl	Send(PLT)
	.loc 1 214 0
	ldr	r0, [sp, #40]
	add	r1, sl, r9
	cmp	r0, #10
	movne	r0, #0
	moveq	r0, #1
	bl	assertf(PLT)
	.loc 1 217 0
	ldr	r2, [sp, #48]
	.loc 1 216 0
	ldr	r3, [sp, #44]
	.loc 1 220 0
	cmp	r2, #0
	.loc 1 216 0
	str	r3, [sp, #16]
	.loc 1 217 0
	str	r2, [sp, #20]
	.loc 1 220 0
	bgt	.L99
.LVL61:
.L90:
	ldr	r6, .L101+16
	ldr	r7, .L101+20
	ldr	r5, .L101+24
	.loc 1 228 0
	mov	r3, #12
	mov	r4, #0
.LVL62:
	str	r3, [r8, #0]
	b	.L93
.LVL63:
.L100:
	.loc 1 241 0
	cmp	r4, r7
	movgt	r0, #0
	movle	r0, #1
.LVL64:
	bl	assertf(PLT)
.L93:
	.loc 1 234 0
	ldr	r0, [sl, r6]
	bl	WhoIs(PLT)
	.loc 1 236 0
	cmp	r0, #0
.LVL65:
	.loc 1 239 0
	add	r4, r4, #1
	.loc 1 241 0
	add	r1, sl, r5
	.loc 1 236 0
	beq	.L100
	.loc 1 244 0
	mov	ip, #16
	mov	r1, r8
	mov	r2, ip
	mov	r3, fp
	str	ip, [sp, #0]
	bl	Send(PLT)
.LVL66:
	.loc 1 245 0
	ldr	r0, [sp, #40]
	add	r1, sl, r9
	cmp	r0, #10
	movne	r0, #0
	moveq	r0, #1
	bl	assertf(PLT)
	.loc 1 247 0
	bl	Exit(PLT)
	.loc 1 248 0
	add	sp, sp, #56
	ldmfd	sp!, {r4, r5, r6, r7, r8, r9, sl, fp, pc}
.LVL67:
.L99:
.LVL68:
	.loc 1 220 0
	sub	r4, r4, #16
.L92:
	.loc 1 222 0
	ldr	r0, [sp, #16]
	bl	Delay(PLT)
	.loc 1 220 0
	ldr	r3, [sp, #20]
	add	r4, r4, #1
	cmp	r4, r3
	blt	.L92
	b	.L90
.L102:
	.align	2
.L101:
	.word	_GLOBAL_OFFSET_TABLE_-(.L98+8)
	.word	.LC11(GOTOFF)
	.word	.LC12(GOTOFF)
	.word	.LC13(GOTOFF)
	.word	ADMINISTRATOR_TASK_NAME(GOT)
	.word	999
	.word	.LC14(GOTOFF)
.LFE10:
	.size	ClockClient_Start, .-ClockClient_Start
	.align	2
	.global	print_current_time
	.type	print_current_time, %function
print_current_time:
.LFB12:
	.loc 1 256 0
	@ args = 0, pretend = 0, frame = 0
	@ frame_needed = 0, uses_anonymous_args = 0
	@ link register save eliminated.
.LVL69:
	@ lr needed for prologue
	.loc 1 257 0
	bx	lr
.LFE12:
	.size	print_current_time, .-print_current_time
	.align	2
	.global	ProfileStart
	.type	ProfileStart, %function
ProfileStart:
.LFB13:
	.loc 1 259 0
	@ args = 0, pretend = 0, frame = 0
	@ frame_needed = 0, uses_anonymous_args = 0
	@ link register save eliminated.
.LVL70:
	str	sl, [sp, #-4]!
.LCFI12:
	ldr	sl, .L108
	.loc 1 260 0
	ldr	r3, .L108+4
	ldr	r2, .L108+8
	.loc 1 259 0
.L107:
	add	sl, pc, sl
	.loc 1 260 0
	ldr	r1, [r3, #0]
	ldr	r3, [sl, r2]
	.loc 1 259 0
	@ lr needed for prologue
	.loc 1 260 0
	str	r1, [r3, #0]
	.loc 1 261 0
	ldmfd	sp!, {sl}
	bx	lr
.L109:
	.align	2
.L108:
	.word	_GLOBAL_OFFSET_TABLE_-(.L107+8)
	.word	-2139029408
	.word	profile_last_time_value(GOT)
.LFE13:
	.size	ProfileStart, .-ProfileStart
	.section	.rodata.str1.4
	.align	2
.LC15:
	.ascii	"\033[1;32m%s %dus\033[0m\012\000"
	.text
	.align	2
	.global	ProfileEnd
	.type	ProfileEnd, %function
ProfileEnd:
.LFB14:
	.loc 1 263 0
	@ args = 0, pretend = 0, frame = 0
	@ frame_needed = 0, uses_anonymous_args = 0
.LVL71:
	stmfd	sp!, {r4, r5, r6, sl, lr}
.LCFI13:
	ldr	sl, .L113+16
	.loc 1 265 0
	ldr	r3, .L113+20
	.loc 1 263 0
.L112:
	add	sl, pc, sl
	.loc 1 265 0
	ldr	r6, [sl, r3]
	.loc 1 264 0
	ldr	r2, .L113+24
	.loc 1 265 0
	ldr	r3, [r6, #0]
	.loc 1 264 0
	ldr	r5, [r2, #0]
.LVL72:
	.loc 1 263 0
	mov	r4, r0
	.loc 1 265 0
	rsb	r0, r3, r5
.LVL73:
	bl	__floatsidf(PLT)
	adr	r2, .L113
	ldmia	r2, {r2-r3}
	.loc 1 265 0
	bl	__divdf3(PLT)
	adr	r2, .L113+8
	ldmia	r2, {r2-r3}
	bl	__muldf3(PLT)
	bl	__fixdfsi(PLT)
	mov	r2, r0
	.loc 1 267 0
	ldr	r0, .L113+28
	mov	r1, r4
	add	r0, sl, r0
	.loc 1 266 0
	str	r5, [r6, #0]
	.loc 1 268 0
	ldmfd	sp!, {r4, r5, r6, sl, lr}
	.loc 1 267 0
	b	robprintfbusy(PLT)
.L114:
	.align	2
.L113:
	.word	1083095040
	.word	0
	.word	1083129856
	.word	0
	.word	_GLOBAL_OFFSET_TABLE_-(.L112+8)
	.word	profile_last_time_value(GOT)
	.word	-2139029408
	.word	.LC15(GOTOFF)
.LFE14:
	.size	ProfileEnd, .-ProfileEnd
	.section	.debug_frame,"",%progbits
.Lframe0:
	.4byte	.LECIE0-.LSCIE0
.LSCIE0:
	.4byte	0xffffffff
	.byte	0x1
	.ascii	"\000"
	.uleb128 0x1
	.sleb128 -4
	.byte	0xe
	.byte	0xc
	.uleb128 0xd
	.uleb128 0x0
	.align	2
.LECIE0:
.LSFDE0:
	.4byte	.LEFDE0-.LASFDE0
.LASFDE0:
	.4byte	.Lframe0
	.4byte	.LFB3
	.4byte	.LFE3-.LFB3
	.byte	0x4
	.4byte	.LCFI0-.LFB3
	.byte	0xe
	.uleb128 0x8
	.byte	0x8e
	.uleb128 0x1
	.byte	0x84
	.uleb128 0x2
	.align	2
.LEFDE0:
.LSFDE2:
	.4byte	.LEFDE2-.LASFDE2
.LASFDE2:
	.4byte	.Lframe0
	.4byte	.LFB9
	.4byte	.LFE9-.LFB9
	.align	2
.LEFDE2:
.LSFDE4:
	.4byte	.LEFDE4-.LASFDE4
.LASFDE4:
	.4byte	.Lframe0
	.4byte	.LFB6
	.4byte	.LFE6-.LFB6
	.byte	0x4
	.4byte	.LCFI1-.LFB6
	.byte	0xe
	.uleb128 0x18
	.byte	0x8e
	.uleb128 0x1
	.byte	0x8a
	.uleb128 0x2
	.byte	0x87
	.uleb128 0x3
	.byte	0x86
	.uleb128 0x4
	.byte	0x85
	.uleb128 0x5
	.byte	0x84
	.uleb128 0x6
	.byte	0x4
	.4byte	.LCFI2-.LCFI1
	.byte	0xe
	.uleb128 0x1c
	.align	2
.LEFDE4:
.LSFDE6:
	.4byte	.LEFDE6-.LASFDE6
.LASFDE6:
	.4byte	.Lframe0
	.4byte	.LFB5
	.4byte	.LFE5-.LFB5
	.align	2
.LEFDE6:
.LSFDE8:
	.4byte	.LEFDE8-.LASFDE8
.LASFDE8:
	.4byte	.Lframe0
	.4byte	.LFB4
	.4byte	.LFE4-.LFB4
	.byte	0x4
	.4byte	.LCFI3-.LFB4
	.byte	0xe
	.uleb128 0x24
	.byte	0x8e
	.uleb128 0x1
	.byte	0x8b
	.uleb128 0x2
	.byte	0x8a
	.uleb128 0x3
	.byte	0x89
	.uleb128 0x4
	.byte	0x88
	.uleb128 0x5
	.byte	0x87
	.uleb128 0x6
	.byte	0x86
	.uleb128 0x7
	.byte	0x85
	.uleb128 0x8
	.byte	0x84
	.uleb128 0x9
	.align	2
.LEFDE8:
.LSFDE10:
	.4byte	.LEFDE10-.LASFDE10
.LASFDE10:
	.4byte	.Lframe0
	.4byte	.LFB7
	.4byte	.LFE7-.LFB7
	.byte	0x4
	.4byte	.LCFI4-.LFB7
	.byte	0xe
	.uleb128 0x10
	.byte	0x8e
	.uleb128 0x1
	.byte	0x8a
	.uleb128 0x2
	.byte	0x85
	.uleb128 0x3
	.byte	0x84
	.uleb128 0x4
	.align	2
.LEFDE10:
.LSFDE12:
	.4byte	.LEFDE12-.LASFDE12
.LASFDE12:
	.4byte	.Lframe0
	.4byte	.LFB8
	.4byte	.LFE8-.LFB8
	.byte	0x4
	.4byte	.LCFI5-.LFB8
	.byte	0xe
	.uleb128 0x18
	.byte	0x8e
	.uleb128 0x1
	.byte	0x8a
	.uleb128 0x2
	.byte	0x87
	.uleb128 0x3
	.byte	0x86
	.uleb128 0x4
	.byte	0x85
	.uleb128 0x5
	.byte	0x84
	.uleb128 0x6
	.align	2
.LEFDE12:
.LSFDE14:
	.4byte	.LEFDE14-.LASFDE14
.LASFDE14:
	.4byte	.Lframe0
	.4byte	.LFB2
	.4byte	.LFE2-.LFB2
	.byte	0x4
	.4byte	.LCFI6-.LFB2
	.byte	0xe
	.uleb128 0x14
	.byte	0x8e
	.uleb128 0x1
	.byte	0x8a
	.uleb128 0x2
	.byte	0x86
	.uleb128 0x3
	.byte	0x85
	.uleb128 0x4
	.byte	0x84
	.uleb128 0x5
	.byte	0x4
	.4byte	.LCFI7-.LCFI6
	.byte	0xe
	.uleb128 0x18d4
	.byte	0x4
	.4byte	.LCFI8-.LCFI7
	.byte	0xe
	.uleb128 0x18d8
	.align	2
.LEFDE14:
.LSFDE16:
	.4byte	.LEFDE16-.LASFDE16
.LASFDE16:
	.4byte	.Lframe0
	.4byte	.LFB11
	.4byte	.LFE11-.LFB11
	.byte	0x4
	.4byte	.LCFI9-.LFB11
	.byte	0xe
	.uleb128 0xc
	.byte	0x8e
	.uleb128 0x1
	.byte	0x8a
	.uleb128 0x2
	.byte	0x84
	.uleb128 0x3
	.align	2
.LEFDE16:
.LSFDE18:
	.4byte	.LEFDE18-.LASFDE18
.LASFDE18:
	.4byte	.Lframe0
	.4byte	.LFB10
	.4byte	.LFE10-.LFB10
	.byte	0x4
	.4byte	.LCFI10-.LFB10
	.byte	0xe
	.uleb128 0x24
	.byte	0x8e
	.uleb128 0x1
	.byte	0x8b
	.uleb128 0x2
	.byte	0x8a
	.uleb128 0x3
	.byte	0x89
	.uleb128 0x4
	.byte	0x88
	.uleb128 0x5
	.byte	0x87
	.uleb128 0x6
	.byte	0x86
	.uleb128 0x7
	.byte	0x85
	.uleb128 0x8
	.byte	0x84
	.uleb128 0x9
	.byte	0x4
	.4byte	.LCFI11-.LCFI10
	.byte	0xe
	.uleb128 0x5c
	.align	2
.LEFDE18:
.LSFDE20:
	.4byte	.LEFDE20-.LASFDE20
.LASFDE20:
	.4byte	.Lframe0
	.4byte	.LFB12
	.4byte	.LFE12-.LFB12
	.align	2
.LEFDE20:
.LSFDE22:
	.4byte	.LEFDE22-.LASFDE22
.LASFDE22:
	.4byte	.Lframe0
	.4byte	.LFB13
	.4byte	.LFE13-.LFB13
	.byte	0x4
	.4byte	.LCFI12-.LFB13
	.byte	0xe
	.uleb128 0x4
	.byte	0x8a
	.uleb128 0x1
	.align	2
.LEFDE22:
.LSFDE24:
	.4byte	.LEFDE24-.LASFDE24
.LASFDE24:
	.4byte	.Lframe0
	.4byte	.LFB14
	.4byte	.LFE14-.LFB14
	.byte	0x4
	.4byte	.LCFI13-.LFB14
	.byte	0xe
	.uleb128 0x14
	.byte	0x8e
	.uleb128 0x1
	.byte	0x8a
	.uleb128 0x2
	.byte	0x86
	.uleb128 0x3
	.byte	0x85
	.uleb128 0x4
	.byte	0x84
	.uleb128 0x5
	.align	2
.LEFDE24:
	.file 2 "clock.h"
	.file 3 "message.h"
	.file 4 "notifier.h"
	.file 5 "public_kernel_interface.h"
	.file 6 "tasks.h"
	.file 7 "queue.h"
	.file 8 "train.h"
	.file 9 "task_descriptor.h"
	.file 10 "buffer.h"
	.text
.Letext0: