	.file	"memory.c"
	.text
.Ltext0:
	.section	.rodata.str1.4,"aMS",%progbits,1
	.align	2
.LC0:
	.ascii	"m_strcpy: dest not word aligned 2\000"
	.align	2
.LC1:
	.ascii	"m_strcpy: src not word aligned 2\000"
	.align	2
.LC2:
	.ascii	"m_strcpy: len must not be negative\000"
	.align	2
.LC3:
	.ascii	"m_strcpy: len is unusually large\000"
	.text
	.align	2
	.global	m_strcpy
	.type	m_strcpy, %function
m_strcpy:
.LFB2:
	.file 1 "memory.c"
	.loc 1 7 0
	@ args = 0, pretend = 0, frame = 24
	@ frame_needed = 0, uses_anonymous_args = 0
.LVL0:
	stmfd	sp!, {r4, r5, r6, r7, r8, r9, sl, fp, lr}
.LCFI0:
	ldr	sl, .L19
	sub	sp, sp, #24
.LCFI1:
.LVL1:
	str	r1, [sp, #12]
	.loc 1 17 0
	ldr	r1, .L19+4
.LVL2:
	.loc 1 7 0
.L15:
	add	sl, pc, sl
	.loc 1 17 0
	tst	r0, #3
	.loc 1 7 0
	str	r2, [sp, #8]
	str	r0, [sp, #16]
	.loc 1 12 0
	str	r0, [sp, #20]
.LVL3:
	.loc 1 17 0
	add	r1, sl, r1
	movne	r0, #0
	moveq	r0, #1
.LVL4:
	bl	assert(PLT)
.LVL5:
	.loc 1 13 0
	ldr	r1, [sp, #12]
	.loc 1 20 0
	mov	r8, #0
	.loc 1 18 0
	tst	r1, #3
	.loc 1 13 0
	str	r1, [sp, #4]
.LVL6:
	.loc 1 18 0
	ldr	r1, .L19+8
	movne	r0, #0
	moveq	r0, #1
	add	r1, sl, r1
	bl	assert(PLT)
	.loc 1 19 0
	ldr	r2, [sp, #8]
	ldr	r1, .L19+12
	mvn	r0, r2
	mov	r0, r0, lsr #31
	add	r1, sl, r1
	bl	assert(PLT)
	.loc 1 20 0
	ldr	r3, [sp, #8]
	ldr	r1, .L19+16
	cmp	r3, #1000
	movge	r0, #0
	movlt	r0, #1
	add	r1, sl, r1
	bl	assert(PLT)
	str	r8, [sp, #0]
.LVL7:
.L16:
	.loc 1 28 0
	ldr	r2, [sp, #8]
	.loc 1 27 0
	cmp	r8, r2
	.loc 1 28 0
	rsb	r3, r8, r2
.LVL8:
	.loc 1 27 0
	bcs	.L18
.L3:
	.loc 1 30 0
	cmp	r3, #7
	bgt	.L4
	.loc 1 31 0
	ldr	r1, [sp, #0]
	ldr	r9, [sp, #12]
	ldr	r2, [sp, #16]
	ldrb	r3, [r9, r1]	@ zero_extendqisi2
.LVL9:
	strb	r3, [r2, r1]
	.loc 1 28 0
	ldr	r2, [sp, #8]
	.loc 1 32 0
	add	r1, r1, #1
	mov	r8, r1
	.loc 1 27 0
	cmp	r8, r2
	.loc 1 32 0
	str	r1, [sp, #0]
	.loc 1 28 0
	rsb	r3, r8, r2
.LVL10:
	.loc 1 27 0
	bcc	.L3
.L18:
	.loc 1 60 0
	add	sp, sp, #24
	ldmfd	sp!, {r4, r5, r6, r7, r8, r9, sl, fp, pc}
.L4:
	.loc 1 33 0
	cmp	r3, #31
	bgt	.L6
	.loc 1 35 0
	ldr	r3, [sp, #4]
.LVL11:
	ldr	r8, [sp, #20]
	STMfd sp!, {r0-r1}
LDMia r3!, {r0-r1}
STMia r8!, {r0-r1}
LDMfd sp!, {r0-r1}

	.loc 1 44 0
	ldr	r9, [sp, #0]
	.loc 1 35 0
	str	r8, [sp, #20]
	.loc 1 44 0
	add	r9, r9, #8
	mov	r8, r9
	.loc 1 35 0
	str	r3, [sp, #4]
	.loc 1 44 0
	str	r9, [sp, #0]
	b	.L16
.LVL12:
.L6:
	.loc 1 47 0
	ldr	r8, [sp, #4]
	ldr	r9, [sp, #20]
	STMfd sp!, {r0-r7}
LDMia r8!, {r0-r7}
STMia r9!, {r0-r7}
LDMfd sp!, {r0-r7}

.LVL13:
	.loc 1 57 0
	ldr	r1, [sp, #0]
	.loc 1 47 0
	str	r8, [sp, #4]
	.loc 1 57 0
	add	r1, r1, #32
	mov	r8, r1
	.loc 1 47 0
	str	r9, [sp, #20]
	.loc 1 57 0
	str	r1, [sp, #0]
	b	.L16
.L20:
	.align	2
.L19:
	.word	_GLOBAL_OFFSET_TABLE_-(.L15+8)
	.word	.LC0(GOTOFF)
	.word	.LC1(GOTOFF)
	.word	.LC2(GOTOFF)
	.word	.LC3(GOTOFF)
.LFE2:
	.size	m_strcpy, .-m_strcpy
	.section	.rodata.str1.4
	.align	2
.LC4:
	.ascii	"m_strlen has been running for a really long time\000"
	.text
	.align	2
	.global	m_strlen
	.type	m_strlen, %function
m_strlen:
.LFB3:
	.loc 1 63 0
	@ args = 0, pretend = 0, frame = 0
	@ frame_needed = 0, uses_anonymous_args = 0
.LVL14:
	stmfd	sp!, {r4, r5, r6, r7, sl, lr}
.LCFI2:
	mov	r5, r0
	.loc 1 67 0
	ldrb	r0, [r0, #0]	@ zero_extendqisi2
.LVL15:
	.loc 1 63 0
	ldr	sl, .L30
	.loc 1 67 0
	cmp	r0, #0
	.loc 1 63 0
.L28:
	add	sl, pc, sl
	.loc 1 67 0
	moveq	r4, r0
.LVL16:
	.loc 1 67 0
	bne	.L29
	.loc 1 76 0
	mov	r0, r4
	ldmfd	sp!, {r4, r5, r6, r7, sl, pc}
.L29:
	ldr	r7, .L30+4
	ldr	r6, .L30+8
	.loc 1 67 0
	mov	r4, #0
.L25:
	.loc 1 70 0
	add	r4, r4, #1
	.loc 1 72 0
	cmp	r4, r6
	movgt	r0, #0
	movle	r0, #1
	add	r1, sl, r7
	bl	assert(PLT)
	.loc 1 67 0
	ldrb	r3, [r4, r5]	@ zero_extendqisi2
	cmp	r3, #0
	bne	.L25
	.loc 1 76 0
	mov	r0, r4
	ldmfd	sp!, {r4, r5, r6, r7, sl, pc}
.L31:
	.align	2
.L30:
	.word	_GLOBAL_OFFSET_TABLE_-(.L28+8)
	.word	.LC4(GOTOFF)
	.word	99999
.LFE3:
	.size	m_strlen, .-m_strlen
	.section	.rodata.str1.4
	.align	2
.LC5:
	.ascii	"m_strcmp has been running for a really long time\000"
	.text
	.align	2
	.global	m_strcmp
	.type	m_strcmp, %function
m_strcmp:
.LFB4:
	.loc 1 78 0
	@ args = 0, pretend = 0, frame = 0
	@ frame_needed = 0, uses_anonymous_args = 0
.LVL17:
	stmfd	sp!, {r4, r5, r6, r7, sl, lr}
.LCFI3:
	.loc 1 100 0
	ldrb	r2, [r0, #0]	@ zero_extendqisi2
	ldrb	r3, [r1, #0]	@ zero_extendqisi2
	.loc 1 78 0
	ldr	sl, .L45
	.loc 1 100 0
	cmp	r3, r2
	.loc 1 78 0
.L42:
	add	sl, pc, sl
	mov	r5, r0
	.loc 1 78 0
	mov	r4, r1
	.loc 1 100 0
	beq	.L43
.LVL18:
.L33:
	mvn	r0, #0
	ldmfd	sp!, {r4, r5, r6, r7, sl, pc}
.LVL19:
.L43:
	.loc 1 103 0
	cmp	r2, #0
	bne	.L44
.LVL20:
.L36:
	.loc 1 100 0
	mov	r0, #0
	ldmfd	sp!, {r4, r5, r6, r7, sl, pc}
.LVL21:
.L44:
	ldr	r7, .L45+4
	.loc 1 103 0
	mov	r6, #0
.LVL22:
.L37:
	.loc 1 108 0
	ldr	r0, .L45+8
	.loc 1 106 0
	add	r6, r6, #1
	.loc 1 108 0
	cmp	r6, r0
	movgt	r0, #0
	movle	r0, #1
	add	r1, sl, r7
	bl	assert(PLT)
	.loc 1 100 0
	ldrb	r2, [r5, r6]	@ zero_extendqisi2
	ldrb	r3, [r6, r4]	@ zero_extendqisi2
	cmp	r2, r3
	bne	.L33
	.loc 1 103 0
	cmp	r2, #0
	bne	.L37
	b	.L36
.L46:
	.align	2
.L45:
	.word	_GLOBAL_OFFSET_TABLE_-(.L42+8)
	.word	.LC5(GOTOFF)
	.word	99999
.LFE4:
	.size	m_strcmp, .-m_strcmp
	.section	.rodata.str1.4
	.align	2
.LC6:
	.ascii	"Out of memory.\000"
	.text
	.align	2
	.global	request_memory
	.type	request_memory, %function
request_memory:
.LFB5:
	.loc 1 113 0
	@ args = 0, pretend = 0, frame = 0
	@ frame_needed = 0, uses_anonymous_args = 0
.LVL23:
	stmfd	sp!, {r4, r5, r6, sl, lr}
.LCFI4:
	ldr	sl, .L50
	.loc 1 114 0
	ldr	r3, [r2, #0]
	.loc 1 113 0
	mov	r4, r1
	.loc 1 114 0
	ldr	r1, .L50+4
.LVL24:
	.loc 1 113 0
.L49:
	add	sl, pc, sl
	.loc 1 114 0
	mvn	r3, r3
	.loc 1 113 0
	mov	r6, r0
	.loc 1 114 0
	add	r1, sl, r1
	mov	r0, r3, lsr #31
.LVL25:
	.loc 1 113 0
	mov	r5, r2
	.loc 1 114 0
	bl	assert(PLT)
.LVL26:
	.loc 1 115 0
	ldr	r2, [r5, #0]
	ldr	r3, [r6, r2, asl #2]
.LVL27:
	.loc 1 117 0
	sub	r2, r2, #1
	.loc 1 119 0
	add	r3, r3, r3, asl #2
.LVL28:
	add	r4, r4, r3, asl #3
.LVL29:
	.loc 1 124 0
	mov	r0, r4
	.loc 1 119 0
	mov	r3, #42
	.loc 1 117 0
	str	r2, [r5, #0]
	.loc 1 119 0
	strb	r3, [r4, #36]
	.loc 1 124 0
	ldmfd	sp!, {r4, r5, r6, sl, pc}
.L51:
	.align	2
.L50:
	.word	_GLOBAL_OFFSET_TABLE_-(.L49+8)
	.word	.LC6(GOTOFF)
.LFE5:
	.size	request_memory, .-request_memory
	.section	.rodata.str1.4
	.align	2
.LC7:
	.ascii	"Attempting to release memory, when all memory is al"
	.ascii	"ready released.\000"
	.align	2
.LC8:
	.ascii	"Trying to deallocate memory block with invalid addr"
	.ascii	"ess.\012\000"
	.align	2
.LC9:
	.ascii	"Sanity check byte value was %d, but should have bee"
	.ascii	"n 42.  A task must be writing past the end of the m"
	.ascii	"emory block.\000"
	.text
	.align	2
	.global	release_memory
	.type	release_memory, %function
release_memory:
.LFB6:
	.loc 1 126 0
	@ args = 0, pretend = 0, frame = 0
	@ frame_needed = 0, uses_anonymous_args = 0
.LVL30:
	stmfd	sp!, {r4, r5, r6, r7, r8, r9, sl, lr}
.LCFI5:
	ldr	sl, .L55
	mov	r7, r3
	mov	r8, r1
	.loc 1 127 0
	ldr	r3, [r3, #0]
.LVL31:
	ldr	r1, .L55+4
.LVL32:
	.loc 1 126 0
.L54:
	add	sl, pc, sl
	.loc 1 127 0
	add	r1, sl, r1
	.loc 1 126 0
	mov	r9, r0
	.loc 1 127 0
	cmp	r3, #480
	movge	r0, #0
	movlt	r0, #1
.LVL33:
	.loc 1 126 0
	mov	r4, r2
	.loc 1 127 0
	bl	assert(PLT)
.LVL34:
	.loc 1 129 0
	ldr	r3, .L55+8
	rsb	r4, r8, r4
.LVL35:
	smull	r1, r2, r3, r4
	mov	r6, r4, asr #31
	rsb	r6, r6, r2, asr #4
	add	r5, r6, r6, asl #2
	ldr	r1, .L55+12
	mov	r5, r5, asl #3
	cmp	r4, r5
	movne	r0, #0
	moveq	r0, #1
	add	r1, sl, r1
	bl	assert(PLT)
	.loc 1 131 0
	ldr	r3, [r7, #0]
	.loc 1 133 0
	add	r5, r5, r8
	.loc 1 131 0
	add	r3, r3, #1
	str	r3, [r7, #0]
	.loc 1 132 0
	str	r6, [r9, r3, asl #2]
	.loc 1 133 0
	ldrb	r2, [r5, #36]	@ zero_extendqisi2
.LVL36:
	.loc 1 134 0
	ldr	r1, .L55+16
	cmp	r2, #42
	movne	r0, #0
	moveq	r0, #1
	add	r1, sl, r1
	.loc 1 136 0
	ldmfd	sp!, {r4, r5, r6, r7, r8, r9, sl, lr}
	.loc 1 134 0
	b	assertf(PLT)
.LVL37:
.L56:
	.align	2
.L55:
	.word	_GLOBAL_OFFSET_TABLE_-(.L54+8)
	.word	.LC7(GOTOFF)
	.word	1717986919
	.word	.LC8(GOTOFF)
	.word	.LC9(GOTOFF)
.LFE6:
	.size	release_memory, .-release_memory
	.section	.rodata.str1.4
	.align	2
.LC10:
	.ascii	"Checking memory block %d, %x\012\000"
	.align	2
.LC11:
	.ascii	"Memory integrity check failed.\000"
	.text
	.align	2
	.global	validate_memory
	.type	validate_memory, %function
validate_memory:
.LFB7:
	.loc 1 138 0
	@ args = 0, pretend = 0, frame = 0
	@ frame_needed = 0, uses_anonymous_args = 0
.LVL38:
	stmfd	sp!, {r4, r5, r6, sl, lr}
.LCFI6:
	.loc 1 139 0
	ldr	r3, .L68
	.loc 1 138 0
	ldr	sl, .L68+4
	.loc 1 139 0
	ldr	r3, [r3, #0]
	mov	r1, #0
.LVL39:
	.loc 1 138 0
.L66:
	add	sl, pc, sl
	.loc 1 139 0
	mov	r6, r3
.LVL40:
	mov	r4, r1
	b	.L58
.LVL41:
.L59:
	.loc 1 141 0
	add	r1, r1, #1
	cmp	r1, #480
	add	r4, r4, #40
	beq	.L67
.L58:
	.loc 1 142 0
	ldr	r5, [r3, #28]
	.loc 1 141 0
	add	r3, r3, #4
	.loc 1 142 0
	cmp	r5, #1
	bne	.L59
	.loc 1 143 0
	add	r2, r6, #1936
	ldr	r0, .L68+8
	add	r2, r2, #12
	add	r0, sl, r0
	add	r2, r2, r4
	bl	robprintfbusy(PLT)
	.loc 1 144 0
	add	r3, r4, r6
	ldrb	r0, [r3, #1984]	@ zero_extendqisi2
	ldr	r1, .L68+12
	cmp	r0, #42
	movne	r0, #0
	moveq	r0, #1
	add	r1, sl, r1
	bl	assert(PLT)
	mov	r0, r5
	ldmfd	sp!, {r4, r5, r6, sl, pc}
.LVL42:
.L67:
	.loc 1 141 0
	mov	r0, #0
	.loc 1 149 0
	ldmfd	sp!, {r4, r5, r6, sl, pc}
.L69:
	.align	2
.L68:
	.word	33403036
	.word	_GLOBAL_OFFSET_TABLE_-(.L66+8)
	.word	.LC10(GOTOFF)
	.word	.LC11(GOTOFF)
.LFE7:
	.size	validate_memory, .-validate_memory
	.section	.debug_frame,"",%progbits
.Lframe0:
	.4byte	.LECIE0-.LSCIE0
.LSCIE0:
	.4byte	0xffffffff
	.byte	0x1
	.ascii	"\000"
	.uleb128 0x1
	.sleb128 -4
	.byte	0xe
	.byte	0xc
	.uleb128 0xd
	.uleb128 0x0
	.align	2
.LECIE0:
.LSFDE0:
	.4byte	.LEFDE0-.LASFDE0
.LASFDE0:
	.4byte	.Lframe0
	.4byte	.LFB2
	.4byte	.LFE2-.LFB2
	.byte	0x4
	.4byte	.LCFI0-.LFB2
	.byte	0xe
	.uleb128 0x24
	.byte	0x8e
	.uleb128 0x1
	.byte	0x8b
	.uleb128 0x2
	.byte	0x8a
	.uleb128 0x3
	.byte	0x89
	.uleb128 0x4
	.byte	0x88
	.uleb128 0x5
	.byte	0x87
	.uleb128 0x6
	.byte	0x86
	.uleb128 0x7
	.byte	0x85
	.uleb128 0x8
	.byte	0x84
	.uleb128 0x9
	.byte	0x4
	.4byte	.LCFI1-.LCFI0
	.byte	0xe
	.uleb128 0x3c
	.align	2
.LEFDE0:
.LSFDE2:
	.4byte	.LEFDE2-.LASFDE2
.LASFDE2:
	.4byte	.Lframe0
	.4byte	.LFB3
	.4byte	.LFE3-.LFB3
	.byte	0x4
	.4byte	.LCFI2-.LFB3
	.byte	0xe
	.uleb128 0x18
	.byte	0x8e
	.uleb128 0x1
	.byte	0x8a
	.uleb128 0x2
	.byte	0x87
	.uleb128 0x3
	.byte	0x86
	.uleb128 0x4
	.byte	0x85
	.uleb128 0x5
	.byte	0x84
	.uleb128 0x6
	.align	2
.LEFDE2:
.LSFDE4:
	.4byte	.LEFDE4-.LASFDE4
.LASFDE4:
	.4byte	.Lframe0
	.4byte	.LFB4
	.4byte	.LFE4-.LFB4
	.byte	0x4
	.4byte	.LCFI3-.LFB4
	.byte	0xe
	.uleb128 0x18
	.byte	0x8e
	.uleb128 0x1
	.byte	0x8a
	.uleb128 0x2
	.byte	0x87
	.uleb128 0x3
	.byte	0x86
	.uleb128 0x4
	.byte	0x85
	.uleb128 0x5
	.byte	0x84
	.uleb128 0x6
	.align	2
.LEFDE4:
.LSFDE6:
	.4byte	.LEFDE6-.LASFDE6
.LASFDE6:
	.4byte	.Lframe0
	.4byte	.LFB5
	.4byte	.LFE5-.LFB5
	.byte	0x4
	.4byte	.LCFI4-.LFB5
	.byte	0xe
	.uleb128 0x14
	.byte	0x8e
	.uleb128 0x1
	.byte	0x8a
	.uleb128 0x2
	.byte	0x86
	.uleb128 0x3
	.byte	0x85
	.uleb128 0x4
	.byte	0x84
	.uleb128 0x5
	.align	2
.LEFDE6:
.LSFDE8:
	.4byte	.LEFDE8-.LASFDE8
.LASFDE8:
	.4byte	.Lframe0
	.4byte	.LFB6
	.4byte	.LFE6-.LFB6
	.byte	0x4
	.4byte	.LCFI5-.LFB6
	.byte	0xe
	.uleb128 0x20
	.byte	0x8e
	.uleb128 0x1
	.byte	0x8a
	.uleb128 0x2
	.byte	0x89
	.uleb128 0x3
	.byte	0x88
	.uleb128 0x4
	.byte	0x87
	.uleb128 0x5
	.byte	0x86
	.uleb128 0x6
	.byte	0x85
	.uleb128 0x7
	.byte	0x84
	.uleb128 0x8
	.align	2
.LEFDE8:
.LSFDE10:
	.4byte	.LEFDE10-.LASFDE10
.LASFDE10:
	.4byte	.Lframe0
	.4byte	.LFB7
	.4byte	.LFE7-.LFB7
	.byte	0x4
	.4byte	.LCFI6-.LFB7
	.byte	0xe
	.uleb128 0x14
	.byte	0x8e
	.uleb128 0x1
	.byte	0x8a
	.uleb128 0x2
	.byte	0x86
	.uleb128 0x3
	.byte	0x85
	.uleb128 0x4
	.byte	0x84
	.uleb128 0x5
	.align	2
.LEFDE10:
	.file 2 "kernel_state.h"
	.file 3 "scheduler.h"
	.file 4 "task_descriptor.h"
	.file 5 "queue.h"
	.file 6 "public_kernel_interface.h"
	.file 7 "train.h"
	.file 8 "buffer.h"
	.text
.Letext0: