	.file	"notifier.c"
	.text
.Ltext0:
	.section	.rodata
	.align	2
	.type	TRAIN_OUTPUT_SERVER_NAME, %object
	.size	TRAIN_OUTPUT_SERVER_NAME, 7
TRAIN_OUTPUT_SERVER_NAME:
	.ascii	"TrOSvr\000"
	.align	2
	.type	TRAIN_INPUT_SERVER_NAME, %object
	.size	TRAIN_INPUT_SERVER_NAME, 7
TRAIN_INPUT_SERVER_NAME:
	.ascii	"TrISvr\000"
	.align	2
	.type	SCREEN_OUTPUT_SERVER_NAME, %object
	.size	SCREEN_OUTPUT_SERVER_NAME, 7
SCREEN_OUTPUT_SERVER_NAME:
	.ascii	"KbOSvr\000"
	.align	2
	.type	KEYBOARD_INPUT_SERVER_NAME, %object
	.size	KEYBOARD_INPUT_SERVER_NAME, 7
KEYBOARD_INPUT_SERVER_NAME:
	.ascii	"KbISvr\000"
	.align	2
	.type	CLOCK_SERVER_NAME, %object
	.size	CLOCK_SERVER_NAME, 8
CLOCK_SERVER_NAME:
	.ascii	"ClckSvr\000"
	.align	2
	.type	__func__.2046, %object
	.size	__func__.2046, 20
__func__.2046:
	.ascii	"ClockNotifier_Start\000"
	.section	.rodata.str1.4,"aMS",%progbits,1
	.align	2
.LC0:
	.ascii	"ClockNotifier: did not get a clock server id\000"
	.align	2
.LC1:
	.ascii	"ClockNotifier_Start did not get a ACK or SHUTDOWN r"
	.ascii	"eply\000"
	.text
	.align	2
	.global	ClockNotifier_Start
	.type	ClockNotifier_Start, %function
ClockNotifier_Start:
.LFB2:
	.file 1 "notifier.c"
	.loc 1 7 0
	@ args = 0, pretend = 0, frame = 32
	@ frame_needed = 0, uses_anonymous_args = 0
.LVL0:
	stmfd	sp!, {r4, r5, r6, r7, r8, r9, sl, lr}
.LCFI0:
	ldr	sl, .L13
	.loc 1 8 0
	ldr	r3, .L13+4
	ldr	r2, .L13+8
	.loc 1 7 0
.L10:
	add	sl, pc, sl
	sub	sp, sp, #36
.LCFI1:
.LVL1:
	.loc 1 8 0
	ldr	r0, [sl, r3]
	ldr	r1, [sl, r2]
	bl	DebugRegisterFunction(PLT)
	ldr	r8, .L13+12
	ldr	r7, .L13+16
	ldr	r6, .L13+20
	.loc 1 15 0
	mov	r3, #15
	.loc 1 16 0
	mov	r2, #1
	.loc 1 12 0
	add	r9, sp, #20
	.loc 1 16 0
	mov	r4, #0
.LVL2:
	.loc 1 15 0
	str	r3, [sp, #4]
	.loc 1 16 0
	str	r2, [sp, #8]
	b	.L2
.LVL3:
.L12:
	.loc 1 27 0
	cmp	r4, r7
	movgt	r0, #0
	movle	r0, #1
	bl	assert(PLT)
.L2:
	.loc 1 20 0
	ldr	r0, [sl, r8]
	bl	WhoIs(PLT)
	.loc 1 22 0
	subs	r5, r0, #0
	.loc 1 26 0
	add	r4, r4, #1
	.loc 1 27 0
	add	r1, sl, r6
	.loc 1 22 0
	beq	.L12
	ldr	r7, .L13+24
	add	r6, sp, #4
	mov	r4, #16
.LVL4:
.L3:
	.loc 1 31 0
	mov	r0, #1
	bl	AwaitEvent(PLT)
	.loc 1 35 0
	mov	r3, r9
	mov	r1, r6
	mov	r2, r4
	mov	r0, r5
	str	r4, [sp, #0]
	bl	Send(PLT)
	.loc 1 37 0
	ldr	r0, [sp, #20]
	add	r1, sl, r7
	cmp	r0, #12
	cmpne	r0, #10
	movne	r0, #0
	moveq	r0, #1
	bl	assert(PLT)
	.loc 1 41 0
	ldr	r3, [sp, #20]
	cmp	r3, #12
	bne	.L3
	.loc 1 46 0
	bl	Exit(PLT)
	.loc 1 47 0
	add	sp, sp, #36
	ldmfd	sp!, {r4, r5, r6, r7, r8, r9, sl, pc}
.L14:
	.align	2
.L13:
	.word	_GLOBAL_OFFSET_TABLE_-(.L10+8)
	.word	ClockNotifier_Start(GOT)
	.word	__func__.2046(GOT)
	.word	CLOCK_SERVER_NAME(GOT)
	.word	999
	.word	.LC0(GOTOFF)
	.word	.LC1(GOTOFF)
.LFE2:
	.size	ClockNotifier_Start, .-ClockNotifier_Start
	.section	.rodata
	.align	2
	.type	__func__.2066, %object
	.size	__func__.2066, 28
__func__.2066:
	.ascii	"KeyboardInputNotifier_Start\000"
	.section	.rodata.str1.4
	.align	2
.LC2:
	.ascii	"KeyboardInputNotifier failed WhoIs\000"
	.align	2
.LC3:
	.ascii	"KeyboardInputNotifier didn't get an ACK\000"
	.text
	.align	2
	.global	KeyboardInputNotifier_Start
	.type	KeyboardInputNotifier_Start, %function
KeyboardInputNotifier_Start:
.LFB3:
	.loc 1 49 0
	@ args = 0, pretend = 0, frame = 32
	@ frame_needed = 0, uses_anonymous_args = 0
.LVL5:
	stmfd	sp!, {r4, r5, r6, r7, r8, sl, lr}
.LCFI2:
	ldr	sl, .L19
	.loc 1 50 0
	ldr	r2, .L19+4
	ldr	r3, .L19+8
	.loc 1 49 0
.L18:
	add	sl, pc, sl
	sub	sp, sp, #36
.LCFI3:
.LVL6:
	.loc 1 50 0
	ldr	r1, [sl, r2]
	ldr	r0, [sl, r3]
	bl	DebugRegisterFunction(PLT)
	.loc 1 55 0
	ldr	r3, .L19+12
	ldr	r8, .L19+16
	ldr	r0, [sl, r3]
	bl	WhoIs(PLT)
	.loc 1 56 0
	ldr	r1, .L19+20
	.loc 1 55 0
	mov	r5, r0
.LVL7:
	.loc 1 56 0
	add	r1, sl, r1
	bl	assert(PLT)
	.loc 1 59 0
	mov	r2, #4
	.loc 1 58 0
	mov	r3, #15
	.loc 1 53 0
	add	r7, sp, #20
	.loc 1 58 0
	str	r3, [sp, #4]
	.loc 1 59 0
	str	r2, [sp, #8]
	add	r6, sp, r2
	mov	r4, #16
.L16:
	.loc 1 62 0
	mov	r0, #4
	bl	AwaitEvent(PLT)
	.loc 1 63 0
	mov	r1, r6
	mov	r0, r5
	mov	r2, r4
	mov	r3, r7
	str	r4, [sp, #0]
	bl	Send(PLT)
	.loc 1 64 0
	ldr	r0, [sp, #20]
	add	r1, sl, r8
	cmp	r0, #10
	movne	r0, #0
	moveq	r0, #1
	bl	assert(PLT)
	b	.L16
.L20:
	.align	2
.L19:
	.word	_GLOBAL_OFFSET_TABLE_-(.L18+8)
	.word	__func__.2066(GOT)
	.word	KeyboardInputNotifier_Start(GOT)
	.word	KEYBOARD_INPUT_SERVER_NAME(GOT)
	.word	.LC3(GOTOFF)
	.word	.LC2(GOTOFF)
.LFE3:
	.size	KeyboardInputNotifier_Start, .-KeyboardInputNotifier_Start
	.section	.rodata
	.align	2
	.type	__func__.2078, %object
	.size	__func__.2078, 27
__func__.2078:
	.ascii	"ScreenOutputNotifier_Start\000"
	.section	.rodata.str1.4
	.align	2
.LC4:
	.ascii	"ScreenOutputNotifier failed WhoIs\000"
	.align	2
.LC5:
	.ascii	"ScreenOutputNotifier didn't get an ACK\000"
	.text
	.align	2
	.global	ScreenOutputNotifier_Start
	.type	ScreenOutputNotifier_Start, %function
ScreenOutputNotifier_Start:
.LFB4:
	.loc 1 71 0
	@ args = 0, pretend = 0, frame = 32
	@ frame_needed = 0, uses_anonymous_args = 0
.LVL8:
	stmfd	sp!, {r4, r5, r6, r7, r8, sl, lr}
.LCFI4:
	ldr	sl, .L28
	.loc 1 72 0
	ldr	r2, .L28+4
	ldr	r3, .L28+8
	.loc 1 71 0
.L26:
	add	sl, pc, sl
	sub	sp, sp, #36
.LCFI5:
.LVL9:
	.loc 1 72 0
	ldr	r1, [sl, r2]
	ldr	r0, [sl, r3]
	bl	DebugRegisterFunction(PLT)
	.loc 1 77 0
	ldr	r3, .L28+12
	ldr	r8, .L28+16
	ldr	r0, [sl, r3]
	bl	WhoIs(PLT)
	.loc 1 78 0
	ldr	r1, .L28+20
	.loc 1 77 0
	mov	r5, r0
.LVL10:
	.loc 1 78 0
	add	r1, sl, r1
	bl	assert(PLT)
	.loc 1 75 0
	add	r7, sp, #20
	.loc 1 80 0
	mov	r3, #15
	.loc 1 81 0
	mov	r2, #5
	add	r6, sp, #4
	mov	r4, #16
	.loc 1 80 0
	str	r3, [sp, #4]
	.loc 1 81 0
	str	r2, [sp, #8]
	b	.L22
.L27:
	.loc 1 92 0
	cmp	r0, #10
	movne	r0, #0
	moveq	r0, #1
	bl	assert(PLT)
.L22:
	.loc 1 85 0
	mov	r0, #5
	bl	AwaitEvent(PLT)
	.loc 1 86 0
	mov	r1, r6
	mov	r2, r4
	mov	r3, r7
	mov	r0, r5
	str	r4, [sp, #0]
	bl	Send(PLT)
	.loc 1 88 0
	ldr	r0, [sp, #20]
	.loc 1 92 0
	add	r1, sl, r8
	.loc 1 88 0
	cmp	r0, #12
	bne	.L27
	.loc 1 95 0
	bl	Exit(PLT)
	.loc 1 96 0
	add	sp, sp, #36
	ldmfd	sp!, {r4, r5, r6, r7, r8, sl, pc}
.L29:
	.align	2
.L28:
	.word	_GLOBAL_OFFSET_TABLE_-(.L26+8)
	.word	__func__.2078(GOT)
	.word	ScreenOutputNotifier_Start(GOT)
	.word	SCREEN_OUTPUT_SERVER_NAME(GOT)
	.word	.LC5(GOTOFF)
	.word	.LC4(GOTOFF)
.LFE4:
	.size	ScreenOutputNotifier_Start, .-ScreenOutputNotifier_Start
	.section	.rodata
	.align	2
	.type	__func__.2091, %object
	.size	__func__.2091, 25
__func__.2091:
	.ascii	"TrainInputNotifier_Start\000"
	.section	.rodata.str1.4
	.align	2
.LC6:
	.ascii	"TrainInputNotifier failed WhoIs\000"
	.align	2
.LC7:
	.ascii	"TrainInputNotifier didn't get an ACK\000"
	.text
	.align	2
	.global	TrainInputNotifier_Start
	.type	TrainInputNotifier_Start, %function
TrainInputNotifier_Start:
.LFB5:
	.loc 1 98 0
	@ args = 0, pretend = 0, frame = 32
	@ frame_needed = 0, uses_anonymous_args = 0
.LVL11:
	stmfd	sp!, {r4, r5, r6, r7, r8, sl, lr}
.LCFI6:
	ldr	sl, .L34
	.loc 1 99 0
	ldr	r2, .L34+4
	ldr	r3, .L34+8
	.loc 1 98 0
.L33:
	add	sl, pc, sl
	sub	sp, sp, #36
.LCFI7:
.LVL12:
	.loc 1 99 0
	ldr	r1, [sl, r2]
	ldr	r0, [sl, r3]
	bl	DebugRegisterFunction(PLT)
	.loc 1 104 0
	ldr	r3, .L34+12
	ldr	r8, .L34+16
	ldr	r0, [sl, r3]
	bl	WhoIs(PLT)
	.loc 1 105 0
	ldr	r1, .L34+20
	.loc 1 104 0
	mov	r5, r0
.LVL13:
	.loc 1 105 0
	add	r1, sl, r1
	bl	assert(PLT)
	.loc 1 107 0
	mov	r3, #15
	.loc 1 108 0
	mov	r2, #2
	.loc 1 102 0
	add	r7, sp, #20
	.loc 1 107 0
	str	r3, [sp, #4]
	.loc 1 108 0
	str	r2, [sp, #8]
	add	r6, sp, #4
	mov	r4, #16
.L31:
	.loc 1 111 0
	mov	r0, #2
	bl	AwaitEvent(PLT)
	.loc 1 112 0
	mov	r1, r6
	mov	r0, r5
	mov	r2, r4
	mov	r3, r7
	str	r4, [sp, #0]
	bl	Send(PLT)
	.loc 1 113 0
	ldr	r0, [sp, #20]
	add	r1, sl, r8
	cmp	r0, #10
	movne	r0, #0
	moveq	r0, #1
	bl	assert(PLT)
	b	.L31
.L35:
	.align	2
.L34:
	.word	_GLOBAL_OFFSET_TABLE_-(.L33+8)
	.word	__func__.2091(GOT)
	.word	TrainInputNotifier_Start(GOT)
	.word	TRAIN_INPUT_SERVER_NAME(GOT)
	.word	.LC7(GOTOFF)
	.word	.LC6(GOTOFF)
.LFE5:
	.size	TrainInputNotifier_Start, .-TrainInputNotifier_Start
	.section	.rodata
	.align	2
	.type	__func__.2103, %object
	.size	__func__.2103, 26
__func__.2103:
	.ascii	"TrainOutputNotifier_Start\000"
	.section	.rodata.str1.4
	.align	2
.LC8:
	.ascii	"TrainOutputNotifier failed WhoIs\000"
	.align	2
.LC9:
	.ascii	"TrainOutputNotifier didn't get an ACK\000"
	.text
	.align	2
	.global	TrainOutputNotifier_Start
	.type	TrainOutputNotifier_Start, %function
TrainOutputNotifier_Start:
.LFB6:
	.loc 1 120 0
	@ args = 0, pretend = 0, frame = 32
	@ frame_needed = 0, uses_anonymous_args = 0
.LVL14:
	stmfd	sp!, {r4, r5, r6, r7, r8, sl, lr}
.LCFI8:
	ldr	sl, .L43
	.loc 1 121 0
	ldr	r2, .L43+4
	ldr	r3, .L43+8
	.loc 1 120 0
.L41:
	add	sl, pc, sl
	sub	sp, sp, #36
.LCFI9:
.LVL15:
	.loc 1 121 0
	ldr	r1, [sl, r2]
	ldr	r0, [sl, r3]
	bl	DebugRegisterFunction(PLT)
	.loc 1 126 0
	ldr	r3, .L43+12
	ldr	r8, .L43+16
	ldr	r0, [sl, r3]
	bl	WhoIs(PLT)
	.loc 1 127 0
	ldr	r1, .L43+20
	.loc 1 126 0
	mov	r5, r0
.LVL16:
	.loc 1 127 0
	add	r1, sl, r1
	bl	assert(PLT)
	.loc 1 124 0
	add	r7, sp, #20
	.loc 1 129 0
	mov	r3, #15
	.loc 1 130 0
	mov	r2, #3
	add	r6, sp, #4
	mov	r4, #16
	.loc 1 129 0
	str	r3, [sp, #4]
	.loc 1 130 0
	str	r2, [sp, #8]
	b	.L37
.L42:
	.loc 1 145 0
	cmp	r0, #10
	movne	r0, #0
	moveq	r0, #1
	bl	assert(PLT)
	.loc 1 135 0
	mov	r0, #3
	bl	AwaitEvent(PLT)
.L37:
	.loc 1 139 0
	mov	r1, r6
	mov	r2, r4
	mov	r3, r7
	mov	r0, r5
	str	r4, [sp, #0]
	bl	Send(PLT)
	.loc 1 141 0
	ldr	r0, [sp, #20]
	.loc 1 145 0
	add	r1, sl, r8
	.loc 1 141 0
	cmp	r0, #12
	bne	.L42
	.loc 1 149 0
	bl	Exit(PLT)
	.loc 1 150 0
	add	sp, sp, #36
	ldmfd	sp!, {r4, r5, r6, r7, r8, sl, pc}
.L44:
	.align	2
.L43:
	.word	_GLOBAL_OFFSET_TABLE_-(.L41+8)
	.word	__func__.2103(GOT)
	.word	TrainOutputNotifier_Start(GOT)
	.word	TRAIN_OUTPUT_SERVER_NAME(GOT)
	.word	.LC9(GOTOFF)
	.word	.LC8(GOTOFF)
.LFE6:
	.size	TrainOutputNotifier_Start, .-TrainOutputNotifier_Start
	.section	.rodata
	.align	2
	.type	__func__.2117, %object
	.size	__func__.2117, 22
__func__.2117:
	.ascii	"TrainIONotifier_Start\000"
	.section	.rodata.str1.4
	.align	2
.LC10:
	.ascii	"TrainIONotifier_Start: did not get server id\000"
	.text
	.align	2
	.global	TrainIONotifier_Start
	.type	TrainIONotifier_Start, %function
TrainIONotifier_Start:
.LFB7:
	.loc 1 152 0
	@ args = 0, pretend = 0, frame = 32
	@ frame_needed = 0, uses_anonymous_args = 0
.LVL17:
	stmfd	sp!, {r4, r5, r6, r7, r8, r9, sl, fp, lr}
.LCFI10:
	ldr	sl, .L56
	.loc 1 153 0
	ldr	r3, .L56+4
	ldr	r2, .L56+8
	.loc 1 152 0
.L54:
	add	sl, pc, sl
	sub	sp, sp, #36
.LCFI11:
.LVL18:
	.loc 1 153 0
	ldr	r0, [sl, r3]
	ldr	r1, [sl, r2]
	bl	DebugRegisterFunction(PLT)
	ldr	r9, .L56+12
	ldr	r8, .L56+16
	ldr	r7, .L56+20
	.loc 1 159 0
	mov	r3, #22
	.loc 1 156 0
	add	fp, sp, #20
	.loc 1 159 0
	mov	r4, #0
.LVL19:
	str	r3, [sp, #4]
	b	.L46
.LVL20:
.L55:
	.loc 1 176 0
	cmp	r4, #1000
	movge	r0, #0
	movlt	r0, #1
	bl	assert(PLT)
.L46:
	.loc 1 167 0
	ldr	r0, .L56+24
	bl	DelaySeconds(PLT)
	.loc 1 168 0
	ldr	r0, [sl, r9]
	bl	WhoIs(PLT)
	mov	r6, r0
	.loc 1 169 0
	ldr	r0, [sl, r8]
	bl	WhoIs(PLT)
	.loc 1 171 0
	cmp	r6, #0
	cmpne	r0, #0
	.loc 1 175 0
	add	r4, r4, #1
	.loc 1 171 0
	mov	r5, r0
	.loc 1 176 0
	add	r1, sl, r7
	.loc 1 171 0
	beq	.L55
	add	r7, sp, #4
	mov	r4, #16
.LVL21:
.L47:
	.loc 1 181 0
	mov	r0, #1065353216
	bl	DelaySeconds(PLT)
	.loc 1 183 0
	mov	r1, r7
	mov	r2, r4
	mov	r3, fp
	mov	r0, r6
	str	r4, [sp, #0]
	bl	Send(PLT)
	.loc 1 185 0
	ldr	ip, [sp, #20]
	.loc 1 189 0
	mov	r0, r5
	.loc 1 185 0
	cmp	ip, #12
	.loc 1 189 0
	mov	r1, r7
	mov	r2, r4
	mov	r3, fp
	.loc 1 185 0
	beq	.L49
.LVL22:
	.loc 1 189 0
	str	r4, [sp, #0]
	bl	Send(PLT)
.LVL23:
	.loc 1 191 0
	ldr	r3, [sp, #20]
	cmp	r3, #12
	bne	.L47
.LVL24:
.L49:
	.loc 1 196 0
	bl	Exit(PLT)
	.loc 1 197 0
	add	sp, sp, #36
	ldmfd	sp!, {r4, r5, r6, r7, r8, r9, sl, fp, pc}
.L57:
	.align	2
.L56:
	.word	_GLOBAL_OFFSET_TABLE_-(.L54+8)
	.word	TrainIONotifier_Start(GOT)
	.word	__func__.2117(GOT)
	.word	TRAIN_INPUT_SERVER_NAME(GOT)
	.word	TRAIN_OUTPUT_SERVER_NAME(GOT)
	.word	.LC10(GOTOFF)
	.word	1036831949
.LFE7:
	.size	TrainIONotifier_Start, .-TrainIONotifier_Start
	.section	.debug_frame,"",%progbits
.Lframe0:
	.4byte	.LECIE0-.LSCIE0
.LSCIE0:
	.4byte	0xffffffff
	.byte	0x1
	.ascii	"\000"
	.uleb128 0x1
	.sleb128 -4
	.byte	0xe
	.byte	0xc
	.uleb128 0xd
	.uleb128 0x0
	.align	2
.LECIE0:
.LSFDE0:
	.4byte	.LEFDE0-.LASFDE0
.LASFDE0:
	.4byte	.Lframe0
	.4byte	.LFB2
	.4byte	.LFE2-.LFB2
	.byte	0x4
	.4byte	.LCFI0-.LFB2
	.byte	0xe
	.uleb128 0x20
	.byte	0x8e
	.uleb128 0x1
	.byte	0x8a
	.uleb128 0x2
	.byte	0x89
	.uleb128 0x3
	.byte	0x88
	.uleb128 0x4
	.byte	0x87
	.uleb128 0x5
	.byte	0x86
	.uleb128 0x6
	.byte	0x85
	.uleb128 0x7
	.byte	0x84
	.uleb128 0x8
	.byte	0x4
	.4byte	.LCFI1-.LCFI0
	.byte	0xe
	.uleb128 0x44
	.align	2
.LEFDE0:
.LSFDE2:
	.4byte	.LEFDE2-.LASFDE2
.LASFDE2:
	.4byte	.Lframe0
	.4byte	.LFB3
	.4byte	.LFE3-.LFB3
	.byte	0x4
	.4byte	.LCFI2-.LFB3
	.byte	0xe
	.uleb128 0x1c
	.byte	0x8e
	.uleb128 0x1
	.byte	0x8a
	.uleb128 0x2
	.byte	0x88
	.uleb128 0x3
	.byte	0x87
	.uleb128 0x4
	.byte	0x86
	.uleb128 0x5
	.byte	0x85
	.uleb128 0x6
	.byte	0x84
	.uleb128 0x7
	.byte	0x4
	.4byte	.LCFI3-.LCFI2
	.byte	0xe
	.uleb128 0x40
	.align	2
.LEFDE2:
.LSFDE4:
	.4byte	.LEFDE4-.LASFDE4
.LASFDE4:
	.4byte	.Lframe0
	.4byte	.LFB4
	.4byte	.LFE4-.LFB4
	.byte	0x4
	.4byte	.LCFI4-.LFB4
	.byte	0xe
	.uleb128 0x1c
	.byte	0x8e
	.uleb128 0x1
	.byte	0x8a
	.uleb128 0x2
	.byte	0x88
	.uleb128 0x3
	.byte	0x87
	.uleb128 0x4
	.byte	0x86
	.uleb128 0x5
	.byte	0x85
	.uleb128 0x6
	.byte	0x84
	.uleb128 0x7
	.byte	0x4
	.4byte	.LCFI5-.LCFI4
	.byte	0xe
	.uleb128 0x40
	.align	2
.LEFDE4:
.LSFDE6:
	.4byte	.LEFDE6-.LASFDE6
.LASFDE6:
	.4byte	.Lframe0
	.4byte	.LFB5
	.4byte	.LFE5-.LFB5
	.byte	0x4
	.4byte	.LCFI6-.LFB5
	.byte	0xe
	.uleb128 0x1c
	.byte	0x8e
	.uleb128 0x1
	.byte	0x8a
	.uleb128 0x2
	.byte	0x88
	.uleb128 0x3
	.byte	0x87
	.uleb128 0x4
	.byte	0x86
	.uleb128 0x5
	.byte	0x85
	.uleb128 0x6
	.byte	0x84
	.uleb128 0x7
	.byte	0x4
	.4byte	.LCFI7-.LCFI6
	.byte	0xe
	.uleb128 0x40
	.align	2
.LEFDE6:
.LSFDE8:
	.4byte	.LEFDE8-.LASFDE8
.LASFDE8:
	.4byte	.Lframe0
	.4byte	.LFB6
	.4byte	.LFE6-.LFB6
	.byte	0x4
	.4byte	.LCFI8-.LFB6
	.byte	0xe
	.uleb128 0x1c
	.byte	0x8e
	.uleb128 0x1
	.byte	0x8a
	.uleb128 0x2
	.byte	0x88
	.uleb128 0x3
	.byte	0x87
	.uleb128 0x4
	.byte	0x86
	.uleb128 0x5
	.byte	0x85
	.uleb128 0x6
	.byte	0x84
	.uleb128 0x7
	.byte	0x4
	.4byte	.LCFI9-.LCFI8
	.byte	0xe
	.uleb128 0x40
	.align	2
.LEFDE8:
.LSFDE10:
	.4byte	.LEFDE10-.LASFDE10
.LASFDE10:
	.4byte	.Lframe0
	.4byte	.LFB7
	.4byte	.LFE7-.LFB7
	.byte	0x4
	.4byte	.LCFI10-.LFB7
	.byte	0xe
	.uleb128 0x24
	.byte	0x8e
	.uleb128 0x1
	.byte	0x8b
	.uleb128 0x2
	.byte	0x8a
	.uleb128 0x3
	.byte	0x89
	.uleb128 0x4
	.byte	0x88
	.uleb128 0x5
	.byte	0x87
	.uleb128 0x6
	.byte	0x86
	.uleb128 0x7
	.byte	0x85
	.uleb128 0x8
	.byte	0x84
	.uleb128 0x9
	.byte	0x4
	.4byte	.LCFI11-.LCFI10
	.byte	0xe
	.uleb128 0x48
	.align	2
.LEFDE10:
	.file 2 "clock.h"
	.file 3 "message.h"
	.file 4 "notifier.h"
	.file 5 "public_kernel_interface.h"
	.file 6 "queue.h"
	.file 7 "train.h"
	.file 8 "task_descriptor.h"
	.file 9 "buffer.h"
	.file 10 "uart.h"
	.text
.Letext0: