	.file	"private_kernel_interface.c"
	.text
.Ltext0:
	.section	.rodata
	.type	TASK_STATE_NAMES, %object
	.size	TASK_STATE_NAMES, 140
TASK_STATE_NAMES:
	.ascii	"\033[37mready\033[0m\000"
	.space	5
	.ascii	"\033[32mactive\033[0m\000"
	.space	4
	.ascii	"\033[34mzombie\033[0m\000"
	.space	4
	.ascii	"\033[35msend_b\033[0m\000"
	.space	4
	.ascii	"\033[31mrecv_b\033[0m\000"
	.space	4
	.ascii	"\033[36mreply_b\033[0m\000"
	.space	3
	.ascii	"\033[33mevent_b\033[0m\000"
	.space	3
	.text
	.align	2
	.global	print_kernel_state
	.type	print_kernel_state, %function
print_kernel_state:
.LFB2:
	.file 1 "private_kernel_interface.c"
	.loc 1 20 0
	@ args = 0, pretend = 0, frame = 0
	@ frame_needed = 0, uses_anonymous_args = 0
	@ link register save eliminated.
.LVL0:
	@ lr needed for prologue
	.loc 1 21 0
	bx	lr
.LFE2:
	.size	print_kernel_state, .-print_kernel_state
	.section	.rodata.str1.4,"aMS",%progbits,1
	.align	2
.LC0:
	.ascii	"Get stack base was passed the value %d, which shoul"
	.ascii	"d be less or equal to max tasks: %d.\000"
	.text
	.align	2
	.global	get_stack_base
	.type	get_stack_base, %function
get_stack_base:
.LFB3:
	.loc 1 25 0
	@ args = 0, pretend = 0, frame = 0
	@ frame_needed = 0, uses_anonymous_args = 0
.LVL1:
	stmfd	sp!, {r4, sl, lr}
.LCFI0:
	.loc 1 26 0
	ldr	r3, .L6
	.loc 1 27 0
	ldr	r2, .L6+4
	.loc 1 26 0
	ldr	r1, [r3, #0]
.LVL2:
	.loc 1 25 0
	ldr	sl, .L6+8
	.loc 1 27 0
	ldr	r3, [r1, r2]
	ldr	r1, .L6+12
.LVL3:
	.loc 1 25 0
.L5:
	add	sl, pc, sl
	mov	r4, r0
	.loc 1 27 0
	add	r1, sl, r1
	cmp	r3, r0
	movcc	r0, #0
	movcs	r0, #1
.LVL4:
	mov	r2, r4
	bl	assertf(PLT)
	.loc 1 29 0
	ldr	r0, .L6+16
	sub	r0, r0, r4, asl #16
	ldmfd	sp!, {r4, sl, pc}
.L7:
	.align	2
.L6:
	.word	33403036
	.word	426892
	.word	_GLOBAL_OFFSET_TABLE_-(.L5+8)
	.word	.LC0(GOTOFF)
	.word	32349164
.LFE3:
	.size	get_stack_base, .-get_stack_base
	.section	.rodata.str1.4
	.align	2
.LC1:
	.ascii	"\033[1m--  Printing map of how our 32MB of memory i"
	.ascii	"s currently allocated.  --\033[0m\012\000"
	.align	2
.LC2:
	.ascii	"Redboot Stuff:    0x00000000 - 0000x%x\012\000"
	.align	2
.LC3:
	.ascii	"The Kernel:       0x000%x - 0x000%x\012\000"
	.align	2
.LC4:
	.ascii	"Unallocated:      0x000%x - 0x0%x\012\000"
	.align	2
.LC5:
	.ascii	"Timer IRQ Stack:  0x0%x - 0x0%x\012\000"
	.align	2
.LC6:
	.ascii	"Kernel Stack:     0x0%x - 0x0%x\012\000"
	.align	2
.LC7:
	.ascii	"Unallocated:      0x0%x - 0x0%x\012\000"
	.align	2
.LC8:
	.ascii	"Redboot Stack:    0x0%x - 0x01FFFFFF\012\000"
	.align	2
.LC9:
	.ascii	"All memory        0x00000000 - 0x01FFFFFF\012\000"
	.align	2
.LC10:
	.ascii	"There are currently %d MB, %d KB and %d bytes of me"
	.ascii	"mory unallocated.\012\000"
	.text
	.align	2
	.global	print_memory_status
	.type	print_memory_status, %function
print_memory_status:
.LFB4:
	.loc 1 31 0
	@ args = 0, pretend = 0, frame = 0
	@ frame_needed = 0, uses_anonymous_args = 0
.LVL5:
	stmfd	sp!, {r4, r5, r6, r7, r8, sl, lr}
.LCFI1:
	ldr	sl, .L11
	.loc 1 34 0
	ldr	r0, .L11+4
	.loc 1 31 0
.L10:
	add	sl, pc, sl
	.loc 1 32 0
	ldr	r8, .L11+8
	.loc 1 34 0
	add	r0, sl, r0
	.loc 1 32 0
	ldr	r7, [r8, #0]
.LVL6:
	.loc 1 34 0
	bl	robprintfbusy(PLT)
	.loc 1 35 0
	ldr	r3, .L11+12
	ldr	r0, .L11+16
	ldr	r4, [sl, r3]
	add	r0, sl, r0
	sub	r1, r4, #1
	bl	robprintfbusy(PLT)
	.loc 1 36 0
	ldr	r3, .L11+20
	ldr	r0, .L11+24
	ldr	r6, [sl, r3]
	add	r0, sl, r0
	mov	r1, r4
	sub	r2, r6, #1
	bl	robprintfbusy(PLT)
	.loc 1 37 0
	ldr	r3, .L11+28
	ldr	r4, .L11+32
	ldr	r2, [r7, r3]
	.loc 1 38 0
	ldr	r0, .L11+36
	.loc 1 37 0
	sub	r4, r4, r2, asl #16
.LVL7:
	.loc 1 38 0
	add	r0, sl, r0
	mov	r1, r6
	mov	r2, r4
	bl	robprintfbusy(PLT)
	.loc 1 54 0
	ldr	r0, .L11+40
	ldr	r1, .L11+44
	add	r0, sl, r0
	ldr	r2, .L11+48
	bl	robprintfbusy(PLT)
	.loc 1 57 0
	ldr	r0, .L11+52
	.loc 1 58 0
	ldr	r5, .L11+56
	.loc 1 57 0
	add	r0, sl, r0
	mov	r2, r8
	ldr	r1, .L11+60
	bl	robprintfbusy(PLT)
	.loc 1 58 0
	ldr	r2, [r7, r5]
	ldr	r0, .L11+64
	add	r8, r8, #4
	sub	r2, r2, #1
	add	r0, sl, r0
	mov	r1, r8
	bl	robprintfbusy(PLT)
	.loc 1 59 0
	ldr	r0, .L11+68
	ldr	r1, [r7, r5]
	add	r0, sl, r0
	bl	robprintfbusy(PLT)
	.loc 1 60 0
	ldr	r0, .L11+72
	.loc 1 64 0
	rsb	r6, r6, #1
	.loc 1 60 0
	add	r0, sl, r0
	bl	robprintfbusy(PLT)
	.loc 1 64 0
	ldr	r3, [r7, r5]
	add	r4, r4, r6
.LVL8:
	rsb	r3, r8, r3
	add	r4, r4, r3
.LVL9:
	.loc 1 86 0
	cmp	r4, #0
	sub	r1, r4, #-67108863
	sub	r1, r1, #66060288
	movge	r1, r4
	mov	r1, r1, asr #20
	.loc 1 87 0
	sub	r4, r4, r1, asl #20
.LVL10:
	add	r2, r4, #1020
	cmp	r4, #0
	add	r2, r2, #3
	.loc 1 91 0
	ldr	r0, .L11+76
	.loc 1 87 0
	movge	r2, r4
	mov	r2, r2, asr #10
	.loc 1 91 0
	add	r0, sl, r0
.LVL11:
	sub	r3, r4, r2, asl #10
	.loc 1 92 0
	ldmfd	sp!, {r4, r5, r6, r7, r8, sl, lr}
	.loc 1 91 0
	b	robprintfbusy(PLT)
.LVL12:
.L12:
	.align	2
.L11:
	.word	_GLOBAL_OFFSET_TABLE_-(.L10+8)
	.word	.LC1(GOTOFF)
	.word	33403036
	.word	_DataStart(GOT)
	.word	.LC2(GOTOFF)
	.word	_EndOfProgram(GOT)
	.word	.LC3(GOTOFF)
	.word	426892
	.word	32349164
	.word	.LC4(GOTOFF)
	.word	.LC5(GOTOFF)
	.word	32349168
	.word	32873452
	.word	.LC6(GOTOFF)
	.word	427172
	.word	32873456
	.word	.LC7(GOTOFF)
	.word	.LC8(GOTOFF)
	.word	.LC9(GOTOFF)
	.word	.LC10(GOTOFF)
.LFE4:
	.size	print_memory_status, .-print_memory_status
	.section	.rodata.str1.4
	.align	2
.LC11:
	.ascii	"The kernel's stack started at %x but the next stack"
	.ascii	"s start at %x.  Won't start unless there is at leas"
	.ascii	"t 32k buffer room.  This means that the kernel stac"
	.ascii	"k overflowed.\000"
	.align	2
.LC12:
	.ascii	"The kernel stack starts at %x, but the redboot stac"
	.ascii	"k ends at %x.\000"
	.text
	.align	2
	.global	k_InitKernel
	.type	k_InitKernel, %function
k_InitKernel:
.LFB5:
	.loc 1 94 0
	@ args = 0, pretend = 0, frame = 0
	@ frame_needed = 0, uses_anonymous_args = 0
.LVL13:
	stmfd	sp!, {r4, r5, sl, lr}
.LCFI2:
	.loc 1 95 0
	ldr	r4, .L21
	.loc 1 94 0
	ldr	sl, .L21+4
	.loc 1 95 0
	ldr	r5, [r4, #0]
.LVL14:
	.loc 1 101 0
	ldr	r1, .L21+8
	.loc 1 99 0
	ldr	r3, [r5, #16]
.LVL15:
	.loc 1 101 0
	ldr	r0, .L21+12
	.loc 1 94 0
.L19:
	add	sl, pc, sl
	.loc 1 101 0
	cmp	r3, r0
	movle	r0, #0
	movgt	r0, #1
	add	r1, sl, r1
	ldr	r2, .L21+16
	bl	assertf(PLT)
.LVL16:
	.loc 1 104 0
	ldr	r3, [r5, #0]
	ldr	r1, .L21+20
	cmp	r3, r4
	movle	r0, #0
	movgt	r0, #1
	add	r1, sl, r1
	mov	r2, r4
	bl	assertf(PLT)
	.loc 1 109 0
	ldr	r3, .L21+24
	ldr	r1, [r5, #0]
	.loc 1 110 0
	ldr	r2, .L21+28
	ldr	r0, [r5, #4]
	.loc 1 111 0
	ldr	ip, [r5, #12]
	.loc 1 109 0
	str	r1, [r5, r3]
	.loc 1 111 0
	add	r3, r3, #8
	.loc 1 110 0
	str	r0, [r5, r2]
	.loc 1 111 0
	str	ip, [r5, r3]
	mov	r2, #0
.LVL17:
	mov	r3, r5
.L14:
	.loc 1 116 0
	str	r2, [r3, #28]
	.loc 1 114 0
	add	r2, r2, #1
	cmp	r2, #480
	add	r3, r3, #4
	bne	.L14
	.loc 1 118 0
	ldr	r3, .L21+32
	.loc 1 121 0
	add	r4, r5, #20992
	add	r4, r4, #156
	.loc 1 118 0
	str	r3, [r5, #24]
	.loc 1 121 0
	mov	r0, r4
	bl	Scheduler_Initialize(PLT)
.LVL18:
	.loc 1 122 0
	mov	r0, r4
	mov	r1, r5
	bl	Scheduler_InitAndSetKernelTask(PLT)
	.loc 1 125 0
	bl	IRQ_EnableTimer(PLT)
	.loc 1 126 0
	bl	IRQ_EnableTimerVIC2(PLT)
	.loc 1 127 0
	bl	IRQ_SetupUARTInterrupts(PLT)
	.loc 1 131 0
	ldmfd	sp!, {r4, r5, sl, lr}
	.loc 1 130 0
	b	asm_KernelExit(PLT)
.L22:
	.align	2
.L21:
	.word	33403036
	.word	_GLOBAL_OFFSET_TABLE_-(.L19+8)
	.word	.LC11(GOTOFF)
	.word	32906220
	.word	32873452
	.word	.LC12(GOTOFF)
	.word	427172
	.word	427176
	.word	479
.LFE5:
	.size	k_InitKernel, .-k_InitKernel
	.align	2
	.global	k_Create
	.type	k_Create, %function
k_Create:
.LFB6:
	.loc 1 133 0
	@ args = 0, pretend = 0, frame = 0
	@ frame_needed = 0, uses_anonymous_args = 0
.LVL19:
	str	lr, [sp, #-4]!
.LCFI3:
	.loc 1 134 0
	ldr	r3, .L25
	.loc 1 133 0
	mov	r2, r0
	.loc 1 134 0
	ldr	ip, [r3, #0]
.LVL20:
	.loc 1 133 0
	mov	r3, r1
	.loc 1 135 0
	add	r0, ip, #20992
.LVL21:
	add	r0, r0, #156
	mov	r1, ip
.LVL22:
	bl	Scheduler_CreateAndScheduleNewTask(PLT)
.LVL23:
	.loc 1 137 0
	bl	asm_KernelExit(PLT)
	.loc 1 139 0
	mov	r0, #0
	ldr	pc, [sp], #4
.L26:
	.align	2
.L25:
	.word	33403036
.LFE6:
	.size	k_Create, .-k_Create
	.align	2
	.global	k_MyTid
	.type	k_MyTid, %function
k_MyTid:
.LFB7:
	.loc 1 141 0
	@ args = 0, pretend = 0, frame = 0
	@ frame_needed = 0, uses_anonymous_args = 0
.LVL24:
	stmfd	sp!, {r4, r5, lr}
.LCFI4:
	.loc 1 142 0
	ldr	r3, .L29
	ldr	r5, [r3, #0]
.LVL25:
	.loc 1 143 0
	add	r4, r5, #20992
.LVL26:
	add	r4, r4, #156
	.loc 1 145 0
	mov	r0, r4
	mov	r1, r5
	bl	Scheduler_SaveCurrentTaskState(PLT)
	.loc 1 147 0
	ldr	r2, [r4, #4]
	.loc 1 149 0
	mov	r0, r4
	.loc 1 147 0
	ldr	r3, [r2, #0]
	.loc 1 149 0
	mov	r1, r5
	.loc 1 147 0
	str	r3, [r2, #88]
	.loc 1 149 0
	bl	Scheduler_SetNextTaskState(PLT)
	.loc 1 151 0
	bl	asm_KernelExit(PLT)
	.loc 1 153 0
	mov	r0, #0
	ldmfd	sp!, {r4, r5, pc}
.L30:
	.align	2
.L29:
	.word	33403036
.LFE7:
	.size	k_MyTid, .-k_MyTid
	.align	2
	.global	k_MyParentTid
	.type	k_MyParentTid, %function
k_MyParentTid:
.LFB8:
	.loc 1 155 0
	@ args = 0, pretend = 0, frame = 0
	@ frame_needed = 0, uses_anonymous_args = 0
.LVL27:
	stmfd	sp!, {r4, r5, lr}
.LCFI5:
	.loc 1 156 0
	ldr	r3, .L33
	ldr	r5, [r3, #0]
.LVL28:
	.loc 1 157 0
	add	r4, r5, #20992
.LVL29:
	add	r4, r4, #156
	.loc 1 159 0
	mov	r0, r4
	mov	r1, r5
	bl	Scheduler_SaveCurrentTaskState(PLT)
	.loc 1 161 0
	ldr	r2, [r4, #4]
	.loc 1 163 0
	mov	r0, r4
	.loc 1 161 0
	ldr	r3, [r2, #68]
	.loc 1 163 0
	mov	r1, r5
	.loc 1 161 0
	str	r3, [r2, #88]
	.loc 1 163 0
	bl	Scheduler_SetNextTaskState(PLT)
	.loc 1 165 0
	bl	asm_KernelExit(PLT)
	.loc 1 167 0
	mov	r0, #0
	ldmfd	sp!, {r4, r5, pc}
.L34:
	.align	2
.L33:
	.word	33403036
.LFE8:
	.size	k_MyParentTid, .-k_MyParentTid
	.align	2
	.global	k_Pass
	.type	k_Pass, %function
k_Pass:
.LFB9:
	.loc 1 169 0
	@ args = 0, pretend = 0, frame = 0
	@ frame_needed = 0, uses_anonymous_args = 0
.LVL30:
	stmfd	sp!, {r4, r5, lr}
.LCFI6:
	.loc 1 170 0
	ldr	r3, .L37
	ldr	r5, [r3, #0]
.LVL31:
	.loc 1 171 0
	add	r4, r5, #20992
.LVL32:
	add	r4, r4, #156
	.loc 1 173 0
	mov	r1, r5
	mov	r0, r4
	bl	Scheduler_SaveCurrentTaskState(PLT)
	.loc 1 175 0
	mov	r0, r4
	mov	r2, #0
	ldr	r1, [r4, #4]
	bl	Scheduler_ChangeTDState(PLT)
	.loc 1 177 0
	mov	r0, r4
	mov	r1, r5
	bl	Scheduler_ScheduleAndSetNextTaskState(PLT)
	.loc 1 180 0
	ldmfd	sp!, {r4, r5, lr}
	.loc 1 179 0
	b	asm_KernelExit(PLT)
.L38:
	.align	2
.L37:
	.word	33403036
.LFE9:
	.size	k_Pass, .-k_Pass
	.align	2
	.global	k_Exit
	.type	k_Exit, %function
k_Exit:
.LFB10:
	.loc 1 182 0
	@ args = 0, pretend = 0, frame = 0
	@ frame_needed = 0, uses_anonymous_args = 0
.LVL33:
	stmfd	sp!, {r4, r5, lr}
.LCFI7:
	.loc 1 183 0
	ldr	r3, .L41
	ldr	r5, [r3, #0]
.LVL34:
	.loc 1 184 0
	add	r4, r5, #20992
.LVL35:
	add	r4, r4, #156
	.loc 1 186 0
	mov	r1, r5
	mov	r0, r4
	bl	Scheduler_SaveCurrentTaskState(PLT)
	.loc 1 188 0
	mov	r0, r4
	mov	r2, #2
	ldr	r1, [r4, #4]
	bl	Scheduler_ChangeTDState(PLT)
	.loc 1 190 0
	mov	r0, r4
	mov	r1, r5
	bl	Scheduler_ScheduleAndSetNextTaskState(PLT)
	.loc 1 193 0
	ldmfd	sp!, {r4, r5, lr}
	.loc 1 192 0
	b	asm_KernelExit(PLT)
.L42:
	.align	2
.L41:
	.word	33403036
.LFE10:
	.size	k_Exit, .-k_Exit
	.section	.rodata.str1.4
	.align	2
.LC13:
	.ascii	"Sending a message to zombie task id %d (%x) from ta"
	.ascii	"sk id %d (%x).\012\000"
	.align	2
.LC14:
	.ascii	"k_Send replylen not match!\000"
	.align	2
.LC15:
	.ascii	"k_Send: receive_msg isn't set\000"
	.align	2
.LC16:
	.ascii	"msglen not 100\000"
	.align	2
.LC17:
	.ascii	"Pushed a null message\012\000"
	.align	2
.LC18:
	.ascii	"k_Send: SourceTID=%d, TID %d out of range\012\000"
	.align	2
.LC19:
	.ascii	"k_Send: SourceTID=%d, TID %d does not exist\012\000"
	.text
	.align	2
	.global	k_Send
	.type	k_Send, %function
k_Send:
.LFB11:
	.loc 1 195 0
	@ args = 4, pretend = 0, frame = 12
	@ frame_needed = 0, uses_anonymous_args = 0
.LVL36:
	stmfd	sp!, {r4, r5, r6, r7, r8, r9, sl, fp, lr}
.LCFI8:
	mov	r8, r0
	.loc 1 196 0
	ldr	r0, .L55
.LVL37:
	.loc 1 201 0
	mov	fp, r8, asl #7
	.loc 1 196 0
	ldr	r9, [r0, #0]
.LVL38:
	.loc 1 195 0
	sub	sp, sp, #24
.LCFI9:
.LVL39:
	.loc 1 197 0
	add	r7, r9, #20992
.LVL40:
	add	r7, r7, #156
	.loc 1 199 0
	ldr	ip, [r7, #4]
	.loc 1 201 0
	add	lr, fp, r7
	ldr	r4, [ip, #0]
	.loc 1 195 0
	ldr	sl, .L55+4
	.loc 1 201 0
	ldr	r6, [lr, #88]
	ldr	r0, [lr, #12]
	.loc 1 199 0
	str	r8, [ip, #112]
	.loc 1 195 0
	str	r1, [sp, #20]
	.loc 1 201 0
	str	r4, [sp, #0]
	ldr	r1, .L55+8
.LVL41:
	.loc 1 195 0
.L52:
	add	sl, pc, sl
	.loc 1 201 0
	ldr	r5, [ip, #80]
	subs	r0, r0, #2
	movne	r0, #1
	.loc 1 195 0
	str	r2, [sp, #16]
	str	r3, [sp, #12]
	.loc 1 201 0
	mov	r2, r8
.LVL42:
	mov	r3, r6
.LVL43:
	add	r1, sl, r1
	str	r5, [sp, #4]
	bl	assertf(PLT)
	.loc 1 203 0
	mov	r0, r7
	mov	r1, r9
	bl	Scheduler_SaveCurrentTaskState(PLT)
	.loc 1 206 0
	ldr	r2, [sp, #60]
	ldr	r1, .L55+12
	cmp	r2, #16
	movne	r0, #0
	moveq	r0, #1
	add	r1, sl, r1
	bl	assert(PLT)
	.loc 1 211 0
	mov	r0, r7
	mov	r1, r8
	.loc 1 209 0
	ldr	r6, [r7, #4]
.LVL44:
	.loc 1 211 0
	bl	Scheduler_IsInitedTid(PLT)
	subs	r4, r0, #0
	beq	.L44
.LBB2:
	.loc 1 215 0
	add	r3, r7, #8
	add	r5, r3, fp
.LVL45:
	.loc 1 217 0
	ldr	r2, [r5, #4]
	.loc 1 212 0
	ldr	r3, [r7, #4]
	.loc 1 213 0
	ldr	ip, [sp, #60]
	.loc 1 212 0
	ldr	lr, [sp, #12]
	.loc 1 217 0
	cmp	r2, #3
	.loc 1 213 0
	str	ip, [r3, #100]
	.loc 1 212 0
	str	lr, [r3, #104]
	.loc 1 217 0
	beq	.L53
.LBB3:
	.loc 1 231 0
	add	r1, r9, #1936
	add	r1, r1, #12
	add	r2, r9, #24
	add	r0, r9, #28
	bl	request_memory(PLT)
	.loc 1 233 0
	ldr	ip, [sp, #12]
	ldr	r1, [r6, #0]
	ldr	lr, [sp, #60]
	str	ip, [sp, #0]
	ldr	ip, [sp, #16]
	.loc 1 231 0
	mov	r4, r0
	.loc 1 233 0
	mov	r2, r8
	ldr	r3, [sp, #20]
	stmib	sp, {ip, lr}	@ phole stm
	bl	KernelMessage_Initialize(PLT)
	.loc 1 234 0
	mov	r1, r4
.LVL46:
	add	r0, r5, #12
	bl	Queue_PushEnd(PLT)
.LVL47:
	.loc 1 235 0
	ldr	r1, .L55+16
	mov	r0, r4
.LVL48:
	add	r1, sl, r1
	bl	assert(PLT)
.LVL49:
	.loc 1 237 0
	mov	r0, r7
	ldr	r1, [r7, #4]
	mov	r2, #4
	bl	Scheduler_ChangeTDState(PLT)
	ldr	ip, [r7, #4]
	ldr	r0, [sp, #16]
.LVL50:
.L48:
.LBE3:
.LBE2:
	.loc 1 251 0
	str	r0, [ip, #88]
	.loc 1 252 0
	mov	r1, r9
	mov	r0, r7
.LVL51:
	bl	Scheduler_ScheduleAndSetNextTaskState(PLT)
	.loc 1 254 0
	bl	asm_KernelExit(PLT)
	.loc 1 256 0
	mov	r0, #0
	add	sp, sp, #24
	ldmfd	sp!, {r4, r5, r6, r7, r8, r9, sl, fp, pc}
.L53:
.LBB4:
	.loc 1 219 0
	sub	r2, r2, #3
	mov	r0, r7
	mov	r1, r5
	bl	Scheduler_ChangeTDState(PLT)
	.loc 1 221 0
	ldr	r2, [sp, #16]
	.loc 1 223 0
	ldr	r1, .L55+20
	.loc 1 221 0
	str	r2, [r5, #88]
	.loc 1 223 0
	add	r1, sl, r1
	ldr	r0, [r5, #96]
	bl	assert(PLT)
	.loc 1 224 0
	ldr	r3, [sp, #16]
	ldr	r1, .L55+24
	cmp	r3, #16
	movne	r0, #0
	moveq	r0, #1
	add	r1, sl, r1
	bl	assert(PLT)
	.loc 1 225 0
	ldr	r1, [sp, #20]
	ldr	r2, [sp, #16]
	ldr	r0, [r5, #96]
	bl	m_strcpy(PLT)
	.loc 1 228 0
	mov	r0, r7
	mov	r2, #5
	mov	r1, r6
	bl	Scheduler_ChangeTDState(PLT)
	.loc 1 229 0
	ldr	ip, [r7, #4]
	ldr	r2, [r5, #108]
	ldr	r3, [ip, #0]
	ldr	r0, [sp, #16]
.LVL52:
	str	r3, [r2, #0]
	b	.L48
.LVL53:
.L44:
.LBE4:
	.loc 1 240 0
	mov	r0, r8
	bl	is_tid_in_range(PLT)
	cmp	r0, #0
	beq	.L54
	.loc 1 245 0
	ldr	r3, [r7, #4]
	ldr	r1, .L55+28
	mov	r0, r4
	ldr	r2, [r3, #0]
	add	r1, sl, r1
	mov	r3, r8
	bl	assertf(PLT)
	ldr	ip, [r7, #4]
	mvn	r0, #1
.LVL54:
	b	.L48
.LVL55:
.L54:
	.loc 1 241 0
	ldr	r3, [r7, #4]
	ldr	r1, .L55+32
	ldr	r2, [r3, #0]
	add	r1, sl, r1
	mov	r3, r8
	bl	assertf(PLT)
	ldr	ip, [r7, #4]
	mvn	r0, #0
.LVL56:
	b	.L48
.L56:
	.align	2
.L55:
	.word	33403036
	.word	_GLOBAL_OFFSET_TABLE_-(.L52+8)
	.word	.LC13(GOTOFF)
	.word	.LC14(GOTOFF)
	.word	.LC17(GOTOFF)
	.word	.LC15(GOTOFF)
	.word	.LC16(GOTOFF)
	.word	.LC19(GOTOFF)
	.word	.LC18(GOTOFF)
.LFE11:
	.size	k_Send, .-k_Send
	.section	.rodata.str1.4
	.align	2
.LC20:
	.ascii	"k_Receive user space msg len is too small for our m"
	.ascii	"essage\000"
	.align	2
.LC21:
	.ascii	"k_Receive: no message origin\000"
	.align	2
.LC22:
	.ascii	"Task %d (%x) is attempting to receive a message fro"
	.ascii	"m task %d (%x), but task %d is not receive blocked "
	.ascii	"it is in state %d (%s).\000"
	.text
	.align	2
	.global	k_Receive
	.type	k_Receive, %function
k_Receive:
.LFB12:
	.loc 1 258 0
	@ args = 0, pretend = 0, frame = 0
	@ frame_needed = 0, uses_anonymous_args = 0
.LVL57:
	stmfd	sp!, {r4, r5, r6, r7, r8, r9, sl, lr}
.LCFI10:
	ldr	sl, .L64
	mov	r5, r1
	.loc 1 259 0
	ldr	r1, .L64+4
.LVL58:
	.loc 1 258 0
.L62:
	add	sl, pc, sl
	sub	sp, sp, #20
.LCFI11:
.LVL59:
	mov	r6, r0
	.loc 1 259 0
	add	r1, sl, r1
	cmp	r2, #15
	movle	r0, #0
	movgt	r0, #1
.LVL60:
	.loc 1 258 0
	mov	r4, r2
	.loc 1 259 0
	bl	assert(PLT)
.LVL61:
	.loc 1 261 0
	ldr	r3, .L64+8
	ldr	r9, [r3, #0]
.LVL62:
	.loc 1 262 0
	add	r7, r9, #20992
.LVL63:
	add	r7, r7, #156
	.loc 1 264 0
	mov	r1, r9
	mov	r0, r7
	bl	Scheduler_SaveCurrentTaskState(PLT)
	.loc 1 266 0
	ldr	r0, [r7, #4]
	add	r0, r0, #12
	bl	Queue_PopStart(PLT)
	.loc 1 269 0
	ldr	r3, [r7, #4]
	.loc 1 281 0
	ldr	r1, .L64+12
	.loc 1 272 0
	subs	r8, r0, #0
.LVL64:
	.loc 1 274 0
	mov	r2, #3
	.loc 1 281 0
	add	r1, sl, r1
	.loc 1 274 0
	mov	r0, r7
	.loc 1 269 0
	str	r5, [r3, #96]
	.loc 1 270 0
	str	r6, [r3, #108]
	.loc 1 272 0
	beq	.L63
.LVL65:
	.loc 1 281 0
	cmp	r4, #16
	movne	r0, #0
	moveq	r0, #1
.LVL66:
	bl	assert(PLT)
	.loc 1 282 0
	mov	r2, r4
	mov	r0, r5
	add	r1, r8, #8
	bl	m_strcpy(PLT)
	.loc 1 284 0
	ldr	r3, [r8, #0]
	.loc 1 285 0
	ldr	r1, .L64+16
	.loc 1 284 0
	str	r3, [r6, #0]
	.loc 1 285 0
	add	r1, sl, r1
	ldr	r0, [r8, #0]
	bl	assert(PLT)
	.loc 1 287 0
	ldr	r1, [r7, #4]
	ldr	r3, [r8, #28]
	.loc 1 288 0
	ldr	r2, [r1, #0]
	.loc 1 287 0
	str	r3, [r1, #88]
	.loc 1 288 0
	ldr	r5, [r8, #0]
.LVL67:
	ldr	r3, [r1, #80]
	add	r0, r7, r5, asl #7
	ldr	r1, .L64+20
	ldr	r4, [r0, #12]
.LVL68:
	ldr	ip, [sl, r1]
	str	r5, [sp, #0]
	ldr	r1, .L64+24
	ldr	r6, [r0, #88]
.LVL69:
	add	lr, r4, r4, asl #2
	add	ip, ip, lr, asl #2
	cmp	r4, #4
	movne	r0, #0
	moveq	r0, #1
	add	r1, sl, r1
	str	ip, [sp, #16]
	str	r6, [sp, #4]
	str	r5, [sp, #8]
	str	r4, [sp, #12]
	bl	assertf(PLT)
	.loc 1 290 0
	ldr	r3, [r8, #0]
	add	r1, r7, #8
	add	r1, r1, r3, asl #7
	mov	r2, #5
	mov	r0, r7
	bl	Scheduler_ChangeTDState(PLT)
	.loc 1 291 0
	mov	r0, r7
	mov	r1, r9
	bl	Scheduler_SetNextTaskState(PLT)
	.loc 1 292 0
	add	r1, r9, #1936
	add	r1, r1, #12
	mov	r2, r8
	add	r3, r9, #24
	add	r0, r9, #28
	bl	release_memory(PLT)
.LVL70:
.L60:
	.loc 1 294 0
	bl	asm_KernelExit(PLT)
	.loc 1 296 0
	mov	r0, #0
	add	sp, sp, #20
	ldmfd	sp!, {r4, r5, r6, r7, r8, r9, sl, pc}
.LVL71:
.L63:
	.loc 1 274 0
	mov	r1, r3
	bl	Scheduler_ChangeTDState(PLT)
.LVL72:
	.loc 1 275 0
	ldr	r2, [r7, #4]
	mov	r3, #16
	str	r3, [r2, #88]
	.loc 1 278 0
	mov	r0, r7
	mov	r1, r9
	bl	Scheduler_ScheduleAndSetNextTaskState(PLT)
	b	.L60
.L65:
	.align	2
.L64:
	.word	_GLOBAL_OFFSET_TABLE_-(.L62+8)
	.word	.LC20(GOTOFF)
	.word	33403036
	.word	.LC16(GOTOFF)
	.word	.LC21(GOTOFF)
	.word	TASK_STATE_NAMES(GOT)
	.word	.LC22(GOTOFF)
.LFE12:
	.size	k_Receive, .-k_Receive
	.section	.rodata.str1.4
	.align	2
.LC23:
	.ascii	"Impossible state, replying to non reply blocked tas"
	.ascii	"k %d (%x) from task %d (%x).\012\000"
	.align	2
.LC24:
	.ascii	"k_Reply: Insufficient space in destination. Target "
	.ascii	"len=%d, Len=%d\000"
	.align	2
.LC25:
	.ascii	"k_Reply: reply_msg isn't set\000"
	.text
	.align	2
	.global	k_Reply
	.type	k_Reply, %function
k_Reply:
.LFB13:
	.loc 1 298 0
	@ args = 0, pretend = 0, frame = 4
	@ frame_needed = 0, uses_anonymous_args = 0
.LVL73:
	stmfd	sp!, {r4, r5, r6, r7, r8, r9, sl, fp, lr}
.LCFI12:
	.loc 1 299 0
	ldr	r3, .L80
	.loc 1 298 0
	ldr	sl, .L80+4
	.loc 1 299 0
	ldr	r8, [r3, #0]
.LVL74:
	.loc 1 298 0
	sub	sp, sp, #12
.LCFI13:
.LVL75:
	.loc 1 300 0
	add	r5, r8, #20992
.LVL76:
	add	r5, r5, #156
	.loc 1 298 0
	mov	r4, r0
.L77:
	add	sl, pc, sl
	str	r1, [sp, #8]
	.loc 1 302 0
	mov	r0, r5
.LVL77:
	mov	r1, r8
.LVL78:
	.loc 1 298 0
	mov	r9, r2
	.loc 1 302 0
	bl	Scheduler_SaveCurrentTaskState(PLT)
.LVL79:
	.loc 1 306 0
	ldr	r3, [r5, #4]
	ldr	r2, [sp, #8]
	.loc 1 307 0
	mov	r1, r4
	.loc 1 306 0
	str	r2, [r3, #104]
	.loc 1 307 0
	mov	r0, r5
	bl	Scheduler_IsInitedTid(PLT)
.LBB5:
	.loc 1 310 0
	ldr	r1, .L80+8
	.loc 1 308 0
	mov	r6, r4, asl #7
	add	fp, r5, #8
.LBE5:
	.loc 1 307 0
	cmp	r0, #0
.LBB6:
	.loc 1 308 0
	add	r7, fp, r6
.LVL80:
	.loc 1 310 0
	add	r3, r6, r5
	mov	r2, r4
	add	r1, sl, r1
.LBE6:
	.loc 1 326 0
	mov	r0, r4
	.loc 1 307 0
	beq	.L67
.LVL81:
.LBB7:
	.loc 1 310 0
	ldr	lr, [r5, #4]
	ldr	r3, [r3, #88]
	ldr	ip, [lr, #0]
	ldr	r0, [r7, #4]
.LVL82:
	str	ip, [sp, #0]
	ldr	r4, [lr, #80]
.LVL83:
	cmp	r0, #5
	movne	r0, #0
	moveq	r0, #1
	str	r4, [sp, #4]
	bl	assertf(PLT)
.LVL84:
	.loc 1 313 0
	ldr	r3, [r7, #4]
	mvn	ip, #2
.LVL85:
	cmp	r3, #5
	beq	.L78
.LVL86:
.L71:
.LBE7:
	.loc 1 333 0
	ldr	r3, [r5, #4]
	.loc 1 335 0
	mov	r0, r5
	mov	r1, r8
	.loc 1 333 0
	str	ip, [r3, #88]
	.loc 1 335 0
	bl	Scheduler_SetNextTaskState(PLT)
.LVL87:
	.loc 1 336 0
	bl	asm_KernelExit(PLT)
	.loc 1 338 0
	mov	r0, #0
	add	sp, sp, #12
	ldmfd	sp!, {r4, r5, r6, r7, r8, r9, sl, fp, pc}
.LVL88:
.L67:
	.loc 1 326 0
	bl	is_tid_in_range(PLT)
.LVL89:
	cmp	r0, #0
	mvnne	ip, #1
	mvneq	ip, #0
.LVL90:
	b	.L71
.LVL91:
.L78:
.LBB8:
	.loc 1 315 0
	ldr	ip, [r7, #100]
.LVL92:
	.loc 1 319 0
	ldr	r1, .L80+12
	.loc 1 315 0
	cmp	ip, r9
	.loc 1 319 0
	add	r1, sl, r1
	.loc 1 316 0
	mov	r3, r9
	mov	r0, #0
	mov	r2, ip
	.loc 1 315 0
	bhi	.L79
.LVL93:
	.loc 1 319 0
	ldr	r0, [r7, #104]
	bl	assert(PLT)
.LVL94:
	.loc 1 320 0
	ldr	r1, .L80+16
	cmp	r9, #16
	movne	r0, #0
	moveq	r0, #1
	add	r1, sl, r1
	bl	assert(PLT)
	.loc 1 321 0
	mov	r2, r9
	ldr	r1, [sp, #8]
	ldr	r0, [r7, #104]
	bl	m_strcpy(PLT)
	.loc 1 322 0
	mov	r2, #0
	mov	r0, r5
	mov	r1, r7
	bl	Scheduler_ChangeTDState(PLT)
	.loc 1 323 0
	ldr	r3, [fp, r6]
	mov	r2, #0
	add	r3, r5, r3, asl #7
	mov	ip, r2
.LVL95:
	str	r2, [r3, #120]
	b	.L71
.LVL96:
.L79:
	.loc 1 316 0
	ldr	r1, .L80+20
	add	r1, sl, r1
	bl	assertf(PLT)
.LVL97:
	mvn	ip, #3
.LVL98:
	b	.L71
.L81:
	.align	2
.L80:
	.word	33403036
	.word	_GLOBAL_OFFSET_TABLE_-(.L77+8)
	.word	.LC23(GOTOFF)
	.word	.LC25(GOTOFF)
	.word	.LC16(GOTOFF)
	.word	.LC24(GOTOFF)
.LBE8:
.LFE13:
	.size	k_Reply, .-k_Reply
	.section	.rodata.str1.4
	.align	2
.LC26:
	.ascii	"More than one task is attempting to block on an eve"
	.ascii	"nt at once.  We don't support this right now.\000"
	.text
	.align	2
	.global	k_AwaitEvent
	.type	k_AwaitEvent, %function
k_AwaitEvent:
.LFB14:
	.loc 1 340 0
	@ args = 0, pretend = 0, frame = 0
	@ frame_needed = 0, uses_anonymous_args = 0
.LVL99:
	stmfd	sp!, {r4, r5, r6, r7, r8, sl, lr}
.LCFI14:
	.loc 1 341 0
	ldr	r3, .L91
	.loc 1 340 0
	ldr	sl, .L91+4
	.loc 1 341 0
	ldr	r8, [r3, #0]
.LVL100:
	.loc 1 340 0
.L90:
	add	sl, pc, sl
	.loc 1 342 0
	add	r7, r8, #20992
.LVL101:
	add	r7, r7, #156
	.loc 1 340 0
	mov	r4, r0
	.loc 1 348 0
	ldr	r6, .L91+8
	.loc 1 344 0
	mov	r1, r8
	mov	r0, r7
.LVL102:
	bl	Scheduler_SaveCurrentTaskState(PLT)
	.loc 1 346 0
	mov	r2, #6
	.loc 1 348 0
	add	r5, r7, r4, asl #2
	.loc 1 346 0
	mov	r0, r7
	ldr	r1, [r7, #4]
	bl	Scheduler_ChangeTDState(PLT)
	.loc 1 347 0
	ldr	r3, [r7, #4]
	.loc 1 348 0
	ldr	r0, [r5, r6]
	ldr	r1, .L91+12
	.loc 1 347 0
	str	r4, [r3, #116]
	.loc 1 348 0
	rsbs	r0, r0, #1
	movcc	r0, #0
	add	r1, sl, r1
	bl	assert(PLT)
	.loc 1 349 0
	ldr	r2, [r7, #4]
	.loc 1 352 0
	sub	r4, r4, #2
.LVL103:
	.loc 1 349 0
	ldr	r3, [r2, #0]
	str	r3, [r5, r6]
	.loc 1 352 0
	cmp	r4, #3
	addls	pc, pc, r4, asl #2
	b	.L83
	.p2align 2
.L88:
	b	.L84
	b	.L85
	b	.L86
	b	.L87
.L87:
	.loc 1 363 0
	mov	r0, #1
	bl	IRQ_SetUART2Transmit(PLT)
.L83:
	.loc 1 369 0
	mov	r0, r7
	mov	r1, r8
	bl	Scheduler_ScheduleAndSetNextTaskState(PLT)
	.loc 1 371 0
	bl	asm_KernelExit(PLT)
	.loc 1 373 0
	mov	r0, #0
	ldmfd	sp!, {r4, r5, r6, r7, r8, sl, pc}
.L84:
	.loc 1 354 0
	mov	r0, #1
	bl	IRQ_SetUART1Receive(PLT)
	.loc 1 369 0
	mov	r0, r7
	mov	r1, r8
	bl	Scheduler_ScheduleAndSetNextTaskState(PLT)
	.loc 1 371 0
	bl	asm_KernelExit(PLT)
	.loc 1 373 0
	mov	r0, #0
	ldmfd	sp!, {r4, r5, r6, r7, r8, sl, pc}
.L85:
	.loc 1 357 0
	mov	r0, #1
	bl	IRQ_SetUART1Transmit(PLT)
	.loc 1 369 0
	mov	r0, r7
	mov	r1, r8
	bl	Scheduler_ScheduleAndSetNextTaskState(PLT)
	.loc 1 371 0
	bl	asm_KernelExit(PLT)
	.loc 1 373 0
	mov	r0, #0
	ldmfd	sp!, {r4, r5, r6, r7, r8, sl, pc}
.L86:
	.loc 1 360 0
	mov	r0, #1
	bl	IRQ_SetUART2Receive(PLT)
	.loc 1 369 0
	mov	r0, r7
	mov	r1, r8
	bl	Scheduler_ScheduleAndSetNextTaskState(PLT)
	.loc 1 371 0
	bl	asm_KernelExit(PLT)
	.loc 1 373 0
	mov	r0, #0
	ldmfd	sp!, {r4, r5, r6, r7, r8, sl, pc}
.L92:
	.align	2
.L91:
	.word	33403036
	.word	_GLOBAL_OFFSET_TABLE_-(.L90+8)
	.word	405748
	.word	.LC26(GOTOFF)
.LFE14:
	.size	k_AwaitEvent, .-k_AwaitEvent
	.section	.debug_frame,"",%progbits
.Lframe0:
	.4byte	.LECIE0-.LSCIE0
.LSCIE0:
	.4byte	0xffffffff
	.byte	0x1
	.ascii	"\000"
	.uleb128 0x1
	.sleb128 -4
	.byte	0xe
	.byte	0xc
	.uleb128 0xd
	.uleb128 0x0
	.align	2
.LECIE0:
.LSFDE0:
	.4byte	.LEFDE0-.LASFDE0
.LASFDE0:
	.4byte	.Lframe0
	.4byte	.LFB2
	.4byte	.LFE2-.LFB2
	.align	2
.LEFDE0:
.LSFDE2:
	.4byte	.LEFDE2-.LASFDE2
.LASFDE2:
	.4byte	.Lframe0
	.4byte	.LFB3
	.4byte	.LFE3-.LFB3
	.byte	0x4
	.4byte	.LCFI0-.LFB3
	.byte	0xe
	.uleb128 0xc
	.byte	0x8e
	.uleb128 0x1
	.byte	0x8a
	.uleb128 0x2
	.byte	0x84
	.uleb128 0x3
	.align	2
.LEFDE2:
.LSFDE4:
	.4byte	.LEFDE4-.LASFDE4
.LASFDE4:
	.4byte	.Lframe0
	.4byte	.LFB4
	.4byte	.LFE4-.LFB4
	.byte	0x4
	.4byte	.LCFI1-.LFB4
	.byte	0xe
	.uleb128 0x1c
	.byte	0x8e
	.uleb128 0x1
	.byte	0x8a
	.uleb128 0x2
	.byte	0x88
	.uleb128 0x3
	.byte	0x87
	.uleb128 0x4
	.byte	0x86
	.uleb128 0x5
	.byte	0x85
	.uleb128 0x6
	.byte	0x84
	.uleb128 0x7
	.align	2
.LEFDE4:
.LSFDE6:
	.4byte	.LEFDE6-.LASFDE6
.LASFDE6:
	.4byte	.Lframe0
	.4byte	.LFB5
	.4byte	.LFE5-.LFB5
	.byte	0x4
	.4byte	.LCFI2-.LFB5
	.byte	0xe
	.uleb128 0x10
	.byte	0x8e
	.uleb128 0x1
	.byte	0x8a
	.uleb128 0x2
	.byte	0x85
	.uleb128 0x3
	.byte	0x84
	.uleb128 0x4
	.align	2
.LEFDE6:
.LSFDE8:
	.4byte	.LEFDE8-.LASFDE8
.LASFDE8:
	.4byte	.Lframe0
	.4byte	.LFB6
	.4byte	.LFE6-.LFB6
	.byte	0x4
	.4byte	.LCFI3-.LFB6
	.byte	0xe
	.uleb128 0x4
	.byte	0x8e
	.uleb128 0x1
	.align	2
.LEFDE8:
.LSFDE10:
	.4byte	.LEFDE10-.LASFDE10
.LASFDE10:
	.4byte	.Lframe0
	.4byte	.LFB7
	.4byte	.LFE7-.LFB7
	.byte	0x4
	.4byte	.LCFI4-.LFB7
	.byte	0xe
	.uleb128 0xc
	.byte	0x8e
	.uleb128 0x1
	.byte	0x85
	.uleb128 0x2
	.byte	0x84
	.uleb128 0x3
	.align	2
.LEFDE10:
.LSFDE12:
	.4byte	.LEFDE12-.LASFDE12
.LASFDE12:
	.4byte	.Lframe0
	.4byte	.LFB8
	.4byte	.LFE8-.LFB8
	.byte	0x4
	.4byte	.LCFI5-.LFB8
	.byte	0xe
	.uleb128 0xc
	.byte	0x8e
	.uleb128 0x1
	.byte	0x85
	.uleb128 0x2
	.byte	0x84
	.uleb128 0x3
	.align	2
.LEFDE12:
.LSFDE14:
	.4byte	.LEFDE14-.LASFDE14
.LASFDE14:
	.4byte	.Lframe0
	.4byte	.LFB9
	.4byte	.LFE9-.LFB9
	.byte	0x4
	.4byte	.LCFI6-.LFB9
	.byte	0xe
	.uleb128 0xc
	.byte	0x8e
	.uleb128 0x1
	.byte	0x85
	.uleb128 0x2
	.byte	0x84
	.uleb128 0x3
	.align	2
.LEFDE14:
.LSFDE16:
	.4byte	.LEFDE16-.LASFDE16
.LASFDE16:
	.4byte	.Lframe0
	.4byte	.LFB10
	.4byte	.LFE10-.LFB10
	.byte	0x4
	.4byte	.LCFI7-.LFB10
	.byte	0xe
	.uleb128 0xc
	.byte	0x8e
	.uleb128 0x1
	.byte	0x85
	.uleb128 0x2
	.byte	0x84
	.uleb128 0x3
	.align	2
.LEFDE16:
.LSFDE18:
	.4byte	.LEFDE18-.LASFDE18
.LASFDE18:
	.4byte	.Lframe0
	.4byte	.LFB11
	.4byte	.LFE11-.LFB11
	.byte	0x4
	.4byte	.LCFI8-.LFB11
	.byte	0xe
	.uleb128 0x24
	.byte	0x8e
	.uleb128 0x1
	.byte	0x8b
	.uleb128 0x2
	.byte	0x8a
	.uleb128 0x3
	.byte	0x89
	.uleb128 0x4
	.byte	0x88
	.uleb128 0x5
	.byte	0x87
	.uleb128 0x6
	.byte	0x86
	.uleb128 0x7
	.byte	0x85
	.uleb128 0x8
	.byte	0x84
	.uleb128 0x9
	.byte	0x4
	.4byte	.LCFI9-.LCFI8
	.byte	0xe
	.uleb128 0x3c
	.align	2
.LEFDE18:
.LSFDE20:
	.4byte	.LEFDE20-.LASFDE20
.LASFDE20:
	.4byte	.Lframe0
	.4byte	.LFB12
	.4byte	.LFE12-.LFB12
	.byte	0x4
	.4byte	.LCFI10-.LFB12
	.byte	0xe
	.uleb128 0x20
	.byte	0x8e
	.uleb128 0x1
	.byte	0x8a
	.uleb128 0x2
	.byte	0x89
	.uleb128 0x3
	.byte	0x88
	.uleb128 0x4
	.byte	0x87
	.uleb128 0x5
	.byte	0x86
	.uleb128 0x6
	.byte	0x85
	.uleb128 0x7
	.byte	0x84
	.uleb128 0x8
	.byte	0x4
	.4byte	.LCFI11-.LCFI10
	.byte	0xe
	.uleb128 0x34
	.align	2
.LEFDE20:
.LSFDE22:
	.4byte	.LEFDE22-.LASFDE22
.LASFDE22:
	.4byte	.Lframe0
	.4byte	.LFB13
	.4byte	.LFE13-.LFB13
	.byte	0x4
	.4byte	.LCFI12-.LFB13
	.byte	0xe
	.uleb128 0x24
	.byte	0x8e
	.uleb128 0x1
	.byte	0x8b
	.uleb128 0x2
	.byte	0x8a
	.uleb128 0x3
	.byte	0x89
	.uleb128 0x4
	.byte	0x88
	.uleb128 0x5
	.byte	0x87
	.uleb128 0x6
	.byte	0x86
	.uleb128 0x7
	.byte	0x85
	.uleb128 0x8
	.byte	0x84
	.uleb128 0x9
	.byte	0x4
	.4byte	.LCFI13-.LCFI12
	.byte	0xe
	.uleb128 0x30
	.align	2
.LEFDE22:
.LSFDE24:
	.4byte	.LEFDE24-.LASFDE24
.LASFDE24:
	.4byte	.Lframe0
	.4byte	.LFB14
	.4byte	.LFE14-.LFB14
	.byte	0x4
	.4byte	.LCFI14-.LFB14
	.byte	0xe
	.uleb128 0x1c
	.byte	0x8e
	.uleb128 0x1
	.byte	0x8a
	.uleb128 0x2
	.byte	0x88
	.uleb128 0x3
	.byte	0x87
	.uleb128 0x4
	.byte	0x86
	.uleb128 0x5
	.byte	0x85
	.uleb128 0x6
	.byte	0x84
	.uleb128 0x7
	.align	2
.LEFDE24:
	.file 2 "kernel_state.h"
	.file 3 "scheduler.h"
	.file 4 "task_descriptor.h"
	.file 5 "queue.h"
	.file 6 "public_kernel_interface.h"
	.file 7 "message.h"
	.file 8 "train.h"
	.file 9 "buffer.h"
	.file 10 "tasks.h"
	.file 11 "kernel_irq.h"
	.text
.Letext0: