	.file	"public_kernel_interface.c"
	.text
.Ltext0:
	.section	.rodata
	.align	2
	.type	UI_PRINT_TASK_NAME, %object
	.size	UI_PRINT_TASK_NAME, 6
UI_PRINT_TASK_NAME:
	.ascii	"UIPrt\000"
	.align	2
	.type	TRAIN_SERVER_NAME, %object
	.size	TRAIN_SERVER_NAME, 7
TRAIN_SERVER_NAME:
	.ascii	"TrnSvr\000"
	.align	2
	.type	TRAIN_COMMAND_SERVER_NAME, %object
	.size	TRAIN_COMMAND_SERVER_NAME, 7
TRAIN_COMMAND_SERVER_NAME:
	.ascii	"TCmSvr\000"
	.align	2
	.type	SCREEN_OUTPUT_SERVER_NAME, %object
	.size	SCREEN_OUTPUT_SERVER_NAME, 7
SCREEN_OUTPUT_SERVER_NAME:
	.ascii	"KbOSvr\000"
	.align	2
	.type	TRAIN_OUTPUT_SERVER_NAME, %object
	.size	TRAIN_OUTPUT_SERVER_NAME, 7
TRAIN_OUTPUT_SERVER_NAME:
	.ascii	"TrOSvr\000"
	.align	2
	.type	KEYBOARD_INPUT_SERVER_NAME, %object
	.size	KEYBOARD_INPUT_SERVER_NAME, 7
KEYBOARD_INPUT_SERVER_NAME:
	.ascii	"KbISvr\000"
	.align	2
	.type	TRAIN_INPUT_SERVER_NAME, %object
	.size	TRAIN_INPUT_SERVER_NAME, 7
TRAIN_INPUT_SERVER_NAME:
	.ascii	"TrISvr\000"
	.align	2
	.type	CLOCK_SERVER_NAME, %object
	.size	CLOCK_SERVER_NAME, 8
CLOCK_SERVER_NAME:
	.ascii	"ClckSvr\000"
	.text
	.align	2
	.global	InitKernel
	.type	InitKernel, %function
InitKernel:
.LFB2:
	.file 1 "public_kernel_interface.c"
	.loc 1 20 0
	@ args = 0, pretend = 0, frame = 0
	@ frame_needed = 0, uses_anonymous_args = 0
	@ link register save eliminated.
.LVL0:
	@ lr needed for prologue
	.loc 1 22 0
	.loc 1 21 0
	b	asm_KernelInitEntry(PLT)
.LFE2:
	.size	InitKernel, .-InitKernel
	.align	2
	.global	Create
	.type	Create, %function
Create:
.LFB3:
	.loc 1 24 0
	@ args = 0, pretend = 0, frame = 0
	@ frame_needed = 0, uses_anonymous_args = 0
	@ link register save eliminated.
.LVL1:
	@ lr needed for prologue
	.loc 1 26 0
	.loc 1 25 0
	b	asm_CreateEntry(PLT)
.LVL2:
.LFE3:
	.size	Create, .-Create
	.align	2
	.global	MyTid
	.type	MyTid, %function
MyTid:
.LFB4:
	.loc 1 28 0
	@ args = 0, pretend = 0, frame = 0
	@ frame_needed = 0, uses_anonymous_args = 0
	@ link register save eliminated.
.LVL3:
	@ lr needed for prologue
	.loc 1 30 0
	.loc 1 29 0
	b	asm_MyTidEntry(PLT)
.LFE4:
	.size	MyTid, .-MyTid
	.align	2
	.global	MyParentTid
	.type	MyParentTid, %function
MyParentTid:
.LFB5:
	.loc 1 32 0
	@ args = 0, pretend = 0, frame = 0
	@ frame_needed = 0, uses_anonymous_args = 0
	@ link register save eliminated.
.LVL4:
	@ lr needed for prologue
	.loc 1 34 0
	.loc 1 33 0
	b	asm_MyParentTidEntry(PLT)
.LFE5:
	.size	MyParentTid, .-MyParentTid
	.align	2
	.global	Pass
	.type	Pass, %function
Pass:
.LFB6:
	.loc 1 36 0
	@ args = 0, pretend = 0, frame = 0
	@ frame_needed = 0, uses_anonymous_args = 0
	@ link register save eliminated.
.LVL5:
	@ lr needed for prologue
	.loc 1 38 0
	.loc 1 37 0
	b	asm_PassEntry(PLT)
.LFE6:
	.size	Pass, .-Pass
	.align	2
	.global	Exit
	.type	Exit, %function
Exit:
.LFB7:
	.loc 1 40 0
	@ args = 0, pretend = 0, frame = 0
	@ frame_needed = 0, uses_anonymous_args = 0
	@ link register save eliminated.
.LVL6:
	@ lr needed for prologue
	.loc 1 42 0
	.loc 1 41 0
	b	asm_ExitEntry(PLT)
.LFE7:
	.size	Exit, .-Exit
	.align	2
	.global	Send
	.type	Send, %function
Send:
.LFB8:
	.loc 1 44 0
	@ args = 4, pretend = 0, frame = 0
	@ frame_needed = 0, uses_anonymous_args = 0
	@ link register save eliminated.
.LVL7:
	@ lr needed for prologue
	.loc 1 46 0
	.loc 1 45 0
	b	asm_SendEntry(PLT)
.LVL8:
.LFE8:
	.size	Send, .-Send
	.align	2
	.global	Receive
	.type	Receive, %function
Receive:
.LFB9:
	.loc 1 48 0
	@ args = 0, pretend = 0, frame = 0
	@ frame_needed = 0, uses_anonymous_args = 0
	@ link register save eliminated.
.LVL9:
	@ lr needed for prologue
	.loc 1 50 0
	.loc 1 49 0
	b	asm_ReceiveEntry(PLT)
.LVL10:
.LFE9:
	.size	Receive, .-Receive
	.align	2
	.global	Reply
	.type	Reply, %function
Reply:
.LFB10:
	.loc 1 52 0
	@ args = 0, pretend = 0, frame = 0
	@ frame_needed = 0, uses_anonymous_args = 0
	@ link register save eliminated.
.LVL11:
	@ lr needed for prologue
	.loc 1 54 0
	.loc 1 53 0
	b	asm_ReplyEntry(PLT)
.LVL12:
.LFE10:
	.size	Reply, .-Reply
	.section	.rodata.str1.4,"aMS",%progbits,1
	.align	2
.LC0:
	.ascii	"Didn't get back a register ok message type\000"
	.text
	.align	2
	.global	RegisterAs
	.type	RegisterAs, %function
RegisterAs:
.LFB11:
	.loc 1 56 0
	@ args = 0, pretend = 0, frame = 32
	@ frame_needed = 0, uses_anonymous_args = 0
.LVL13:
	stmfd	sp!, {r4, sl, lr}
.LCFI0:
	ldr	sl, .L22
	sub	sp, sp, #36
.LCFI1:
.LVL14:
.L21:
	add	sl, pc, sl
	mov	r1, r0
	.loc 1 65 0
	mov	r2, #8
	.loc 1 64 0
	mov	r4, #0
	.loc 1 65 0
	add	r0, sp, #24
.LVL15:
	.loc 1 64 0
	str	r4, [sp, #20]
	.loc 1 65 0
	bl	m_strcpy(PLT)
.LVL16:
	.loc 1 66 0
	bl	MyTid(PLT)
	.loc 1 68 0
	mov	ip, #16
	.loc 1 66 0
	str	r0, [sp, #32]
	.loc 1 68 0
	add	r1, sp, #20
.LVL17:
	mov	r2, ip
	add	r3, sp, #4
	mov	r0, #3
	str	ip, [sp, #0]
	bl	Send(PLT)
.LVL18:
	.loc 1 71 0
	ldr	r0, [sp, #4]
	ldr	r1, .L22+4
	cmp	r0, #1
	movne	r0, #0
	moveq	r0, #1
	add	r1, sl, r1
	bl	assert(PLT)
	.loc 1 77 0
	mov	r0, r4
	add	sp, sp, #36
	ldmfd	sp!, {r4, sl, pc}
.L23:
	.align	2
.L22:
	.word	_GLOBAL_OFFSET_TABLE_-(.L21+8)
	.word	.LC0(GOTOFF)
.LFE11:
	.size	RegisterAs, .-RegisterAs
	.section	.rodata.str1.4
	.align	2
.LC1:
	.ascii	"Didn't get back a whois reply message type\000"
	.text
	.align	2
	.global	WhoIs
	.type	WhoIs, %function
WhoIs:
.LFB12:
	.loc 1 79 0
	@ args = 0, pretend = 0, frame = 32
	@ frame_needed = 0, uses_anonymous_args = 0
.LVL19:
	stmfd	sp!, {sl, lr}
.LCFI2:
	ldr	sl, .L27
	sub	sp, sp, #36
.LCFI3:
.LVL20:
.L26:
	add	sl, pc, sl
	mov	r1, r0
	.loc 1 87 0
	mov	r3, #2
	.loc 1 88 0
	add	r0, sp, #24
.LVL21:
	mov	r2, #8
	.loc 1 87 0
	str	r3, [sp, #20]
	.loc 1 88 0
	bl	m_strcpy(PLT)
.LVL22:
	.loc 1 90 0
	mov	ip, #16
	add	r1, sp, #20
.LVL23:
	mov	r2, ip
	add	r3, sp, #4
	mov	r0, #3
	str	ip, [sp, #0]
	bl	Send(PLT)
.LVL24:
	.loc 1 93 0
	ldr	r0, [sp, #4]
	ldr	r1, .L27+4
	cmp	r0, #3
	movne	r0, #0
	moveq	r0, #1
	add	r1, sl, r1
	bl	assert(PLT)
	.loc 1 98 0
	ldr	r0, [sp, #16]
	add	sp, sp, #36
	ldmfd	sp!, {sl, pc}
.L28:
	.align	2
.L27:
	.word	_GLOBAL_OFFSET_TABLE_-(.L26+8)
	.word	.LC1(GOTOFF)
.LFE12:
	.size	WhoIs, .-WhoIs
	.align	2
	.global	AwaitEvent
	.type	AwaitEvent, %function
AwaitEvent:
.LFB13:
	.loc 1 102 0
	@ args = 0, pretend = 0, frame = 0
	@ frame_needed = 0, uses_anonymous_args = 0
	@ link register save eliminated.
.LVL25:
	@ lr needed for prologue
	.loc 1 104 0
	.loc 1 103 0
	b	asm_AwaitEventEntry(PLT)
.LVL26:
.LFE13:
	.size	AwaitEvent, .-AwaitEvent
	.section	.rodata.str1.4
	.align	2
.LC2:
	.ascii	"Didn't get back TIME_DELAY_REPLY message type\000"
	.text
	.align	2
	.global	Delay
	.type	Delay, %function
Delay:
.LFB14:
	.loc 1 106 0
	@ args = 0, pretend = 0, frame = 32
	@ frame_needed = 0, uses_anonymous_args = 0
.LVL27:
	stmfd	sp!, {r4, r5, sl, lr}
.LCFI4:
	ldr	sl, .L34
	.loc 1 107 0
	ldr	r3, .L34+4
	.loc 1 106 0
.L33:
	add	sl, pc, sl
	sub	sp, sp, #36
.LCFI5:
.LVL28:
	mov	r5, r0
	.loc 1 118 0
	mov	r4, #16
	.loc 1 107 0
	ldr	r0, [sl, r3]
.LVL29:
	bl	WhoIs(PLT)
	.loc 1 115 0
	mov	ip, #18
	.loc 1 118 0
	mov	r2, r4
	add	r1, sp, #20
.LVL30:
	add	r3, sp, #4
	.loc 1 115 0
	str	ip, [sp, #20]
	.loc 1 116 0
	str	r5, [sp, #24]
	.loc 1 118 0
	str	r4, [sp, #0]
	bl	Send(PLT)
.LVL31:
	.loc 1 121 0
	ldr	r0, [sp, #4]
	ldr	r1, .L34+8
	cmp	r0, #19
	movne	r0, #0
	moveq	r0, #1
	add	r1, sl, r1
	bl	assert(PLT)
	.loc 1 124 0
	mov	r0, #0
	add	sp, sp, #36
	ldmfd	sp!, {r4, r5, sl, pc}
.L35:
	.align	2
.L34:
	.word	_GLOBAL_OFFSET_TABLE_-(.L33+8)
	.word	CLOCK_SERVER_NAME(GOT)
	.word	.LC2(GOTOFF)
.LFE14:
	.size	Delay, .-Delay
	.section	.rodata.str1.4
	.align	2
.LC3:
	.ascii	"Didn't get back TIME_DELAY_UNTIL_REPLY message type"
	.ascii	"\000"
	.text
	.align	2
	.global	DelayUntil
	.type	DelayUntil, %function
DelayUntil:
.LFB15:
	.loc 1 126 0
	@ args = 0, pretend = 0, frame = 32
	@ frame_needed = 0, uses_anonymous_args = 0
.LVL32:
	stmfd	sp!, {r4, r5, sl, lr}
.LCFI6:
	ldr	sl, .L39
	.loc 1 127 0
	ldr	r3, .L39+4
	.loc 1 126 0
.L38:
	add	sl, pc, sl
	sub	sp, sp, #36
.LCFI7:
.LVL33:
	mov	r5, r0
	.loc 1 138 0
	mov	r4, #16
	.loc 1 127 0
	ldr	r0, [sl, r3]
.LVL34:
	bl	WhoIs(PLT)
	.loc 1 135 0
	mov	ip, #20
	.loc 1 138 0
	mov	r2, r4
	add	r1, sp, #20
.LVL35:
	add	r3, sp, #4
	.loc 1 135 0
	str	ip, [sp, #20]
	.loc 1 136 0
	str	r5, [sp, #24]
	.loc 1 138 0
	str	r4, [sp, #0]
	bl	Send(PLT)
.LVL36:
	.loc 1 141 0
	ldr	r0, [sp, #4]
	ldr	r1, .L39+8
	cmp	r0, #21
	movne	r0, #0
	moveq	r0, #1
	add	r1, sl, r1
	bl	assert(PLT)
	.loc 1 144 0
	mov	r0, #0
	add	sp, sp, #36
	ldmfd	sp!, {r4, r5, sl, pc}
.L40:
	.align	2
.L39:
	.word	_GLOBAL_OFFSET_TABLE_-(.L38+8)
	.word	CLOCK_SERVER_NAME(GOT)
	.word	.LC3(GOTOFF)
.LFE15:
	.size	DelayUntil, .-DelayUntil
	.section	.rodata.str1.4
	.align	2
.LC4:
	.ascii	"Didn't get back TIME_REPLY message type\000"
	.text
	.align	2
	.global	Time
	.type	Time, %function
Time:
.LFB16:
	.loc 1 146 0
	@ args = 0, pretend = 0, frame = 32
	@ frame_needed = 0, uses_anonymous_args = 0
.LVL37:
	stmfd	sp!, {sl, lr}
.LCFI8:
	ldr	sl, .L44
	.loc 1 147 0
	ldr	r3, .L44+4
	.loc 1 146 0
.L43:
	add	sl, pc, sl
	sub	sp, sp, #36
.LCFI9:
.LVL38:
	.loc 1 147 0
	ldr	r0, [sl, r3]
	bl	WhoIs(PLT)
	.loc 1 155 0
	mov	ip, #16
	.loc 1 157 0
	mov	r2, ip
	add	r1, sp, #20
.LVL39:
	add	r3, sp, #4
	.loc 1 155 0
	str	ip, [sp, #20]
	.loc 1 157 0
	str	ip, [sp, #0]
	bl	Send(PLT)
.LVL40:
	.loc 1 160 0
	ldr	r0, [sp, #4]
	ldr	r1, .L44+8
	cmp	r0, #17
	movne	r0, #0
	moveq	r0, #1
	add	r1, sl, r1
	bl	assert(PLT)
	.loc 1 163 0
	ldr	r0, [sp, #8]
	add	sp, sp, #36
	ldmfd	sp!, {sl, pc}
.L45:
	.align	2
.L44:
	.word	_GLOBAL_OFFSET_TABLE_-(.L43+8)
	.word	CLOCK_SERVER_NAME(GOT)
	.word	.LC4(GOTOFF)
.LFE16:
	.size	Time, .-Time
	.global	__extendsfdf2
	.global	__muldf3
	.global	__divdf3
	.global	__fixdfsi
	.align	2
	.global	DelaySeconds
	.type	DelaySeconds, %function
DelaySeconds:
.LFB17:
	.loc 1 166 0
	@ args = 0, pretend = 0, frame = 0
	@ frame_needed = 0, uses_anonymous_args = 0
.LVL41:
	str	lr, [sp, #-4]!
.LCFI10:
	.loc 1 167 0
	bl	__extendsfdf2(PLT)
.LVL42:
	adr	r2, .L48
	ldmia	r2, {r2-r3}
	bl	__muldf3(PLT)
	adr	r2, .L48+8
	ldmia	r2, {r2-r3}
	bl	__divdf3(PLT)
	bl	__fixdfsi(PLT)
	.loc 1 168 0
	ldr	lr, [sp], #4
	.loc 1 167 0
	b	Delay(PLT)
.L49:
	.align	2
.L48:
	.word	1083129856
	.word	0
	.word	1072064102
	.word	1717986918
.LFE17:
	.size	DelaySeconds, .-DelaySeconds
	.global	__floatsidf
	.global	__truncdfsf2
	.align	2
	.global	TimeSeconds
	.type	TimeSeconds, %function
TimeSeconds:
.LFB18:
	.loc 1 170 0
	@ args = 0, pretend = 0, frame = 0
	@ frame_needed = 0, uses_anonymous_args = 0
.LVL43:
	str	lr, [sp, #-4]!
.LCFI11:
	.loc 1 171 0
	bl	Time(PLT)
	bl	__floatsidf(PLT)
	adr	r2, .L52
	ldmia	r2, {r2-r3}
	bl	__divdf3(PLT)
	adr	r2, .L52+8
	ldmia	r2, {r2-r3}
	bl	__muldf3(PLT)
	bl	__truncdfsf2(PLT)
	.loc 1 172 0
	ldr	pc, [sp], #4
.L53:
	.align	2
.L52:
	.word	1083129856
	.word	0
	.word	1072064102
	.word	1717986918
.LFE18:
	.size	TimeSeconds, .-TimeSeconds
	.align	2
	.global	DelayUntilSeconds
	.type	DelayUntilSeconds, %function
DelayUntilSeconds:
.LFB19:
	.loc 1 174 0
	@ args = 0, pretend = 0, frame = 0
	@ frame_needed = 0, uses_anonymous_args = 0
.LVL44:
	str	lr, [sp, #-4]!
.LCFI12:
	.loc 1 175 0
	bl	__extendsfdf2(PLT)
.LVL45:
	adr	r2, .L56
	ldmia	r2, {r2-r3}
	bl	__muldf3(PLT)
	adr	r2, .L56+8
	ldmia	r2, {r2-r3}
	bl	__divdf3(PLT)
	bl	__fixdfsi(PLT)
	.loc 1 176 0
	ldr	lr, [sp], #4
	.loc 1 175 0
	b	DelayUntil(PLT)
.L57:
	.align	2
.L56:
	.word	1083129856
	.word	0
	.word	1072064102
	.word	1717986918
.LFE19:
	.size	DelayUntilSeconds, .-DelayUntilSeconds
	.section	.rodata.str1.4
	.align	2
.LC5:
	.ascii	"Getc: unknown channel\000"
	.align	2
.LC6:
	.ascii	"Getc: whois failed\000"
	.align	2
.LC7:
	.ascii	"Puc: Did not get ACK message from output server\000"
	.text
	.align	2
	.global	Getc
	.type	Getc, %function
Getc:
.LFB20:
	.loc 1 178 0
	@ args = 0, pretend = 0, frame = 32
	@ frame_needed = 0, uses_anonymous_args = 0
.LVL46:
	stmfd	sp!, {r4, sl, lr}
.LCFI13:
	ldr	sl, .L70
	sub	sp, sp, #36
.LCFI14:
.LVL47:
	.loc 1 184 0
	mov	r3, #24
	.loc 1 186 0
	subs	r2, r0, #0
	.loc 1 178 0
.L66:
	add	sl, pc, sl
	.loc 1 184 0
	str	r3, [sp, #20]
	.loc 1 186 0
	beq	.L68
.LVL48:
	.loc 1 191 0
	ldr	r1, .L70+4
	.loc 1 188 0
	cmp	r2, #1
	.loc 1 191 0
	mov	r0, #0
	add	r1, sl, r1
	.loc 1 188 0
	beq	.L69
	.loc 1 191 0
	bl	assert(PLT)
.LVL49:
	mov	r0, #0
.LVL50:
.L64:
	.loc 1 203 0
	add	sp, sp, #36
	ldmfd	sp!, {r4, sl, pc}
.LVL51:
.L69:
	.loc 1 189 0
	ldr	r3, .L70+8
	ldr	r0, [sl, r3]
	bl	WhoIs(PLT)
.LVL52:
	mov	r4, r0
.LVL53:
.L61:
	.loc 1 195 0
	ldr	r1, .L70+12
	mov	r0, r4
	add	r1, sl, r1
	bl	assert(PLT)
	.loc 1 197 0
	mov	ip, #16
	mov	r2, ip
	add	r3, sp, #4
	add	r1, sp, #20
	mov	r0, r4
	str	ip, [sp, #0]
	bl	Send(PLT)
	.loc 1 199 0
	ldr	r0, [sp, #4]
	ldr	r1, .L70+16
	cmp	r0, #10
	movne	r0, #0
	moveq	r0, #1
	add	r1, sl, r1
	bl	assert(PLT)
	.loc 1 202 0
	ldrb	r0, [sp, #8]	@ zero_extendqisi2
	b	.L64
.LVL54:
.L68:
	.loc 1 187 0
	ldr	r3, .L70+20
	ldr	r0, [sl, r3]
	bl	WhoIs(PLT)
.LVL55:
	mov	r4, r0
.LVL56:
	b	.L61
.L71:
	.align	2
.L70:
	.word	_GLOBAL_OFFSET_TABLE_-(.L66+8)
	.word	.LC5(GOTOFF)
	.word	KEYBOARD_INPUT_SERVER_NAME(GOT)
	.word	.LC6(GOTOFF)
	.word	.LC7(GOTOFF)
	.word	TRAIN_INPUT_SERVER_NAME(GOT)
.LFE20:
	.size	Getc, .-Getc
	.section	.rodata.str1.4
	.align	2
.LC8:
	.ascii	"PutcAtomicVa: count too big\000"
	.align	2
.LC9:
	.ascii	"CharMessage: too big\000"
	.align	2
.LC10:
	.ascii	"Putc: unknown channel\000"
	.align	2
.LC11:
	.ascii	"Putc: whois failed for COM%d\000"
	.text
	.align	2
	.global	PutcAtomicVa
	.type	PutcAtomicVa, %function
PutcAtomicVa:
.LFB26:
	.loc 1 290 0
	@ args = 0, pretend = 0, frame = 32
	@ frame_needed = 0, uses_anonymous_args = 0
.LVL57:
	stmfd	sp!, {r4, r5, r6, r7, r8, sl, lr}
.LCFI15:
	ldr	sl, .L87
	mov	r5, r0
	mov	r6, r1
	.loc 1 291 0
	cmp	r1, #8
	movhi	r0, #0
	movls	r0, #1
.LVL58:
	ldr	r1, .L87+4
.LVL59:
	.loc 1 290 0
.L84:
	add	sl, pc, sl
	sub	sp, sp, #36
.LCFI16:
.LVL60:
	.loc 1 291 0
	add	r1, sl, r1
	.loc 1 290 0
	mov	r4, r2
	.loc 1 291 0
	bl	assert(PLT)
.LVL61:
	.loc 1 293 0
	ldr	r1, .L87+8
	mov	r0, #1
	add	r1, sl, r1
	bl	assert(PLT)
	.loc 1 300 0
	mov	r3, #24
	.loc 1 302 0
	cmp	r5, #0
	.loc 1 300 0
	str	r3, [sp, #20]
	.loc 1 298 0
	add	r8, sp, #20
	.loc 1 302 0
	beq	.L85
	.loc 1 304 0
	cmp	r5, #1
	beq	.L86
	.loc 1 307 0
	ldr	r1, .L87+12
	mov	r0, #0
	add	r1, sl, r1
	bl	assert(PLT)
.LVL62:
.L78:
	.loc 1 326 0
	mov	r0, #0
	add	sp, sp, #36
	ldmfd	sp!, {r4, r5, r6, r7, r8, sl, pc}
.LVL63:
.L86:
	.loc 1 305 0
	ldr	r3, .L87+16
	ldr	r0, [sl, r3]
	bl	WhoIs(PLT)
	mov	r7, r0
.LVL64:
.L75:
	.loc 1 311 0
	ldr	r1, .L87+20
	mov	r2, r5
	add	r1, sl, r1
	mov	r0, r7
	bl	assertf(PLT)
	.loc 1 314 0
	cmp	r6, #0
	beq	.L79
	mov	r2, r8
	mov	r1, #0
.LVL65:
.L81:
	.loc 1 315 0
	ldrb	r3, [r4, #0]	@ zero_extendqisi2
	.loc 1 314 0
	add	r1, r1, #1
	.loc 1 315 0
	strb	r3, [r2, #4]
	.loc 1 314 0
	cmp	r1, r6
	.loc 1 315 0
	add	r3, r4, #4
.LVL66:
	.loc 1 314 0
	add	r2, r2, #1
	mov	r4, r3
	bne	.L81
.L79:
	.loc 1 320 0
	mov	ip, #16
	mov	r1, r8
.LVL67:
	mov	r0, r7
	mov	r2, ip
	add	r3, sp, #4
.LVL68:
	.loc 1 318 0
	str	r6, [r8, #12]
	.loc 1 320 0
	str	ip, [sp, #0]
	bl	Send(PLT)
	.loc 1 322 0
	ldr	r0, [sp, #4]
	ldr	r1, .L87+24
	cmp	r0, #10
	movne	r0, #0
	moveq	r0, #1
	add	r1, sl, r1
	bl	assert(PLT)
	b	.L78
.LVL69:
.L85:
	.loc 1 303 0
	ldr	r3, .L87+28
	ldr	r0, [sl, r3]
	bl	WhoIs(PLT)
	mov	r7, r0
.LVL70:
	b	.L75
.L88:
	.align	2
.L87:
	.word	_GLOBAL_OFFSET_TABLE_-(.L84+8)
	.word	.LC8(GOTOFF)
	.word	.LC9(GOTOFF)
	.word	.LC10(GOTOFF)
	.word	SCREEN_OUTPUT_SERVER_NAME(GOT)
	.word	.LC11(GOTOFF)
	.word	.LC7(GOTOFF)
	.word	TRAIN_OUTPUT_SERVER_NAME(GOT)
.LFE26:
	.size	PutcAtomicVa, .-PutcAtomicVa
	.align	2
	.global	PutcAtomic
	.type	PutcAtomic, %function
PutcAtomic:
.LFB25:
	.loc 1 282 0
	@ args = 4, pretend = 12, frame = 0
	@ frame_needed = 0, uses_anonymous_args = 1
.LVL71:
	stmfd	sp!, {r1, r2, r3}
.LCFI17:
	str	lr, [sp, #-4]!
.LCFI18:
	.loc 1 285 0
	ldr	r1, [sp, #4]
	add	r2, sp, #8
	bl	PutcAtomicVa(PLT)
.LVL72:
	.loc 1 288 0
	mov	r0, #0
	ldr	lr, [sp], #4
	add	sp, sp, #12
	bx	lr
.LFE25:
	.size	PutcAtomic, .-PutcAtomic
	.align	2
	.global	Putc
	.type	Putc, %function
Putc:
.LFB21:
	.loc 1 205 0
	@ args = 0, pretend = 0, frame = 0
	@ frame_needed = 0, uses_anonymous_args = 0
	@ link register save eliminated.
.LVL73:
	and	r2, r1, #255
	.loc 1 206 0
	mov	r1, #1
.LVL74:
	.loc 1 205 0
	@ lr needed for prologue
	.loc 1 207 0
	.loc 1 206 0
	b	PutcAtomic(PLT)
.LVL75:
.LFE21:
	.size	Putc, .-Putc
	.align	2
	.global	PutWord
	.type	PutWord, %function
PutWord:
.LFB22:
	.loc 1 209 0
	@ args = 0, pretend = 0, frame = 0
	@ frame_needed = 0, uses_anonymous_args = 0
.LVL76:
	stmfd	sp!, {r4, r5, r6, r7, r8, lr}
.LCFI19:
	.loc 1 213 0
	ldrb	ip, [r3, #0]	@ zero_extendqisi2
	.loc 1 209 0
	mov	r7, r3
	.loc 1 213 0
	cmp	ip, #0
	.loc 1 209 0
	mov	r6, r0
	and	r5, r2, #255
	.loc 1 213 0
	add	r8, r3, #1
.LVL77:
	bne	.L113
.LVL78:
.L94:
	.loc 1 214 0
	cmp	r1, #0
	sub	r4, r1, #1
.LVL79:
	ble	.L100
.L107:
	sub	r4, r4, #1
	mov	r0, r6
.LVL80:
	mov	r1, r5
.LVL81:
	bl	Putc(PLT)
	add	r3, r4, #1
	cmp	r3, #0
	bgt	.L107
	ldrb	ip, [r7, #0]	@ zero_extendqisi2
.LVL82:
.L100:
	.loc 1 215 0
	and	r1, ip, #255
.LVL83:
	cmp	r1, #0
	ldmeqfd	sp!, {r4, r5, r6, r7, r8, pc}
	mov	r4, r8
.LVL84:
.L105:
	mov	r0, r6
.LVL85:
	bl	Putc(PLT)
.LVL86:
	ldrb	r1, [r4], #1	@ zero_extendqisi2
.LVL87:
	cmp	r1, #0
	ldmeqfd	sp!, {r4, r5, r6, r7, r8, pc}
	mov	r0, r6
	bl	Putc(PLT)
.LVL88:
	ldrb	r1, [r4], #1	@ zero_extendqisi2
.LVL89:
	cmp	r1, #0
	bne	.L105
	ldmfd	sp!, {r4, r5, r6, r7, r8, pc}
.LVL90:
.L113:
	.loc 1 213 0
	cmp	r1, #0
	movgt	r0, r1
.LVL91:
	movgt	r2, #0
	ble	.L94
.LVL92:
.L97:
	ldrb	r3, [r2, r8]	@ zero_extendqisi2
	sub	r0, r0, #1
	cmp	r3, #0
	add	r2, r2, #1
	beq	.L98
	cmp	r1, r2
	bne	.L97
.L98:
	mov	r1, r0
	b	.L94
.LFE22:
	.size	PutWord, .-PutWord
	.align	2
	.global	PutStringFormat
	.type	PutStringFormat, %function
PutStringFormat:
.LFB23:
	.loc 1 218 0
	@ args = 0, pretend = 0, frame = 20
	@ frame_needed = 0, uses_anonymous_args = 0
.LVL93:
	stmfd	sp!, {r4, r5, r6, r7, lr}
.LCFI20:
	sub	sp, sp, #20
.LCFI21:
.LVL94:
	.loc 1 218 0
	mov	r5, r2
	mov	r6, r0
	add	r7, sp, #4
	str	r1, [sp, #0]
	mov	r2, r1
.LVL95:
.L142:
	.loc 1 223 0
	mov	r3, r2
.LVL96:
	ldrb	r1, [r3], #1	@ zero_extendqisi2
	cmp	r1, #0
	str	r3, [sp, #0]
	beq	.L123
.L116:
	.loc 1 224 0
	cmp	r1, #37
	beq	.L117
	.loc 1 225 0
	mov	r0, #1
.LVL97:
	bl	Putc(PLT)
.LVL98:
	ldr	r2, [sp, #0]
	.loc 1 223 0
	mov	r3, r2
	ldrb	r1, [r3], #1	@ zero_extendqisi2
.LVL99:
	cmp	r1, #0
	str	r3, [sp, #0]
	bne	.L116
.LVL100:
.L123:
	.loc 1 272 0
	mov	r0, #0
.LVL101:
	add	sp, sp, #20
	ldmfd	sp!, {r4, r5, r6, r7, pc}
.LVL102:
.L117:
	.loc 1 227 0
	mov	r4, #0
.LVL103:
	str	r4, [sp, #16]
	.loc 1 228 0
	ldrb	r0, [r2, #1]	@ zero_extendqisi2
	add	r3, r2, #2
	.loc 1 229 0
	cmp	r0, #48
	.loc 1 228 0
	str	r3, [sp, #0]
	.loc 1 229 0
	beq	.L120
	bcc	.L122
	cmp	r0, #57
	.loc 1 242 0
	movls	r1, sp
.LVL104:
	movls	r2, #10
	addls	r3, sp, #16
	blls	bwa2i(PLT)
.LVL105:
.L122:
	.loc 1 245 0
	cmp	r0, #115
	beq	.L127
	bhi	.L130
	cmp	r0, #99
	beq	.L125
	bhi	.L131
	cmp	r0, #0
	beq	.L123
	cmp	r0, #37
	beq	.L143
.L140:
	ldr	r2, [sp, #0]
	b	.L142
.L130:
	cmp	r0, #117
	beq	.L128
	cmp	r0, #120
	bne	.L140
	.loc 1 262 0
	ldr	r0, [r5, #0]
.LVL106:
	mov	r1, #16
.LVL107:
	mov	r2, r7
	bl	bwui2a(PLT)
	b	.L141
.LVL108:
.L127:
	.loc 1 251 0
	ldr	r3, [r5, #0]
	mov	r2, #0
	mov	r0, r6
.LVL109:
	ldr	r1, [sp, #16]
.LVL110:
	bl	PutWord(PLT)
	add	r3, r5, #4
.LVL111:
	ldr	r2, [sp, #0]
	mov	r5, r3
	b	.L142
.LVL112:
.L120:
	.loc 1 231 0
	ldrb	r0, [r2, #2]	@ zero_extendqisi2
	add	r3, r2, #3
	mov	r4, #1
.LVL113:
	str	r3, [sp, #0]
	b	.L122
.L131:
	.loc 1 245 0
	cmp	r0, #100
	bne	.L140
	.loc 1 258 0
	ldr	r0, [r5, #0]
.LVL114:
	mov	r1, r7
.LVL115:
	bl	bwi2a(PLT)
	b	.L141
.LVL116:
.L128:
	.loc 1 254 0
	ldr	r0, [r5, #0]
.LVL117:
	mov	r1, #10
.LVL118:
	mov	r2, r7
	bl	bwui2a(PLT)
.L141:
	.loc 1 263 0
	mov	r2, r4
	mov	r3, r7
	mov	r0, r6
	ldr	r1, [sp, #16]
	bl	PutWord(PLT)
	.loc 1 262 0
	add	r3, r5, #4
.LVL119:
	ldr	r2, [sp, #0]
	.loc 1 263 0
	mov	r5, r3
	b	.L142
.LVL120:
.L125:
	.loc 1 248 0
	ldrb	r1, [r5, #0]	@ zero_extendqisi2
.LVL121:
	mov	r0, #1
.LVL122:
	bl	Putc(PLT)
	add	r3, r5, #4
.LVL123:
	ldr	r2, [sp, #0]
	mov	r5, r3
	b	.L142
.LVL124:
.L143:
	.loc 1 266 0
	mov	r1, r0
.LVL125:
	mov	r0, r6
.LVL126:
	bl	Putc(PLT)
.LVL127:
	ldr	r2, [sp, #0]
	b	.L142
.LFE23:
	.size	PutStringFormat, .-PutStringFormat
	.align	2
	.global	PutString
	.type	PutString, %function
PutString:
.LFB24:
	.loc 1 274 0
	@ args = 4, pretend = 12, frame = 0
	@ frame_needed = 0, uses_anonymous_args = 1
.LVL128:
	stmfd	sp!, {r1, r2, r3}
.LCFI22:
	str	lr, [sp, #-4]!
.LCFI23:
	.loc 1 277 0
	ldr	r1, [sp, #4]
	add	r2, sp, #8
	bl	PutStringFormat(PLT)
.LVL129:
	.loc 1 280 0
	mov	r0, #0
	ldr	lr, [sp], #4
	add	sp, sp, #12
	bx	lr
.LFE24:
	.size	PutString, .-PutString
	.section	.rodata.str1.4
	.align	2
.LC12:
	.ascii	"SendTrainCommand: whois failed\000"
	.align	2
.LC13:
	.ascii	"SendTrainCommand: Did not get ACK message from trai"
	.ascii	"n server\000"
	.text
	.align	2
	.global	SendTrainCommand
	.type	SendTrainCommand, %function
SendTrainCommand:
.LFB27:
	.loc 1 328 0
	@ args = 4, pretend = 0, frame = 32
	@ frame_needed = 0, uses_anonymous_args = 0
.LVL130:
	stmfd	sp!, {r4, r5, r6, r7, r8, r9, sl, fp, lr}
.LCFI24:
	ldr	sl, .L153
	mov	r5, r2
	.loc 1 331 0
	ldr	r2, .L153+4
.LVL131:
	.loc 1 328 0
.L152:
	add	sl, pc, sl
	sub	sp, sp, #36
.LCFI25:
.LVL132:
	mov	r8, r0
	.loc 1 331 0
	ldr	r0, [sl, r2]
.LVL133:
	.loc 1 328 0
	mov	r9, r3
	and	r4, r1, #255
	ldr	fp, [sp, #72]
	.loc 1 331 0
	bl	WhoIs(PLT)
.LVL134:
	.loc 1 333 0
	ldr	r1, .L153+8
	.loc 1 331 0
	mov	r6, r0
.LVL135:
	.loc 1 333 0
	add	r1, sl, r1
	.loc 1 343 0
	mov	r7, #16
	.loc 1 333 0
	bl	assert(PLT)
	.loc 1 328 0
	and	r5, r5, #255
	.loc 1 343 0
	add	r3, sp, #4
.LVL136:
	.loc 1 338 0
	mov	ip, #27
	.loc 1 343 0
	mov	r2, r7
	add	r1, sp, #20
.LVL137:
	mov	r0, r6
	.loc 1 338 0
	str	ip, [sp, #20]
	.loc 1 339 0
	str	r8, [sp, #24]
	.loc 1 340 0
	strb	r4, [sp, #28]
	.loc 1 341 0
	strb	r5, [sp, #29]
	.loc 1 343 0
	str	r7, [sp, #0]
	bl	Send(PLT)
.LVL138:
	.loc 1 345 0
	ldr	r0, [sp, #4]
	ldr	r1, .L153+12
	cmp	r0, #10
	movne	r0, #0
	moveq	r0, #1
	add	r1, sl, r1
	bl	assert(PLT)
	.loc 1 348 0
	cmp	r9, #0
	.loc 1 349 0
	ldrneb	r3, [sp, #12]	@ zero_extendqisi2
	.loc 1 356 0
	mov	r0, #0
	.loc 1 349 0
	strneb	r3, [r9, #0]
	.loc 1 351 0
	cmp	fp, #0
	.loc 1 352 0
	ldrneb	r3, [sp, #13]	@ zero_extendqisi2
	strneb	r3, [fp, #0]
	.loc 1 356 0
	add	sp, sp, #36
	ldmfd	sp!, {r4, r5, r6, r7, r8, r9, sl, fp, pc}
.L154:
	.align	2
.L153:
	.word	_GLOBAL_OFFSET_TABLE_-(.L152+8)
	.word	TRAIN_COMMAND_SERVER_NAME(GOT)
	.word	.LC12(GOTOFF)
	.word	.LC13(GOTOFF)
.LFE27:
	.size	SendTrainCommand, .-SendTrainCommand
	.section	.rodata.str1.4
	.align	2
.LC14:
	.ascii	"SetTrainSwitch: whois failed\000"
	.align	2
.LC15:
	.ascii	"SetTrainSwitch: Did not get ACK message from train "
	.ascii	"server\000"
	.text
	.align	2
	.global	SetTrainSwitch
	.type	SetTrainSwitch, %function
SetTrainSwitch:
.LFB28:
	.loc 1 358 0
	@ args = 0, pretend = 0, frame = 32
	@ frame_needed = 0, uses_anonymous_args = 0
.LVL139:
	stmfd	sp!, {r4, r5, r6, r7, sl, lr}
.LCFI26:
	ldr	sl, .L158
	.loc 1 361 0
	ldr	r3, .L158+4
	.loc 1 358 0
.L157:
	add	sl, pc, sl
	sub	sp, sp, #36
.LCFI27:
.LVL140:
	mov	r7, r0
	.loc 1 361 0
	ldr	r0, [sl, r3]
.LVL141:
	.loc 1 358 0
	and	r4, r1, #255
	.loc 1 361 0
	bl	WhoIs(PLT)
.LVL142:
	.loc 1 363 0
	ldr	r1, .L158+8
	.loc 1 361 0
	mov	r5, r0
.LVL143:
	.loc 1 363 0
	add	r1, sl, r1
	.loc 1 373 0
	mov	r6, #16
	.loc 1 363 0
	bl	assert(PLT)
	.loc 1 368 0
	mov	ip, #38
	.loc 1 369 0
	mov	lr, #4
	.loc 1 373 0
	mov	r2, r6
	add	r1, sp, #20
.LVL144:
	add	r3, sp, #4
.LVL145:
	mov	r0, r5
	.loc 1 368 0
	str	ip, [sp, #20]
	.loc 1 369 0
	str	lr, [sp, #24]
	.loc 1 370 0
	strb	r7, [sp, #28]
	.loc 1 371 0
	strb	r4, [sp, #29]
	.loc 1 373 0
	str	r6, [sp, #0]
	bl	Send(PLT)
.LVL146:
	.loc 1 375 0
	ldr	r0, [sp, #4]
	ldr	r1, .L158+12
	cmp	r0, #10
	movne	r0, #0
	moveq	r0, #1
	add	r1, sl, r1
	bl	assert(PLT)
	.loc 1 379 0
	mov	r0, #0
	add	sp, sp, #36
	ldmfd	sp!, {r4, r5, r6, r7, sl, pc}
.L159:
	.align	2
.L158:
	.word	_GLOBAL_OFFSET_TABLE_-(.L157+8)
	.word	TRAIN_SERVER_NAME(GOT)
	.word	.LC14(GOTOFF)
	.word	.LC15(GOTOFF)
.LFE28:
	.size	SetTrainSwitch, .-SetTrainSwitch
	.section	.rodata.str1.4
	.align	2
.LC16:
	.ascii	"PrintMessageFormat: Did not get ACK message from ui"
	.ascii	" server\000"
	.text
	.align	2
	.global	PrintMessageFormat
	.type	PrintMessageFormat, %function
PrintMessageFormat:
.LFB30:
	.loc 1 388 0
	@ args = 0, pretend = 0, frame = 32
	@ frame_needed = 0, uses_anonymous_args = 0
.LVL147:
	stmfd	sp!, {r4, r5, sl, lr}
.LCFI28:
	ldr	sl, .L166
	.loc 1 391 0
	ldr	r3, .L166+4
	.loc 1 388 0
.L165:
	add	sl, pc, sl
	sub	sp, sp, #36
.LCFI29:
.LVL148:
	mov	r4, r0
	.loc 1 391 0
	ldr	r0, [sl, r3]
.LVL149:
	.loc 1 388 0
	mov	r5, r1
	.loc 1 391 0
	bl	WhoIs(PLT)
.LVL150:
.LBB2:
	.loc 1 401 0
	mov	lr, #16
.LBE2:
	.loc 1 393 0
	cmp	r0, #0
.LBB3:
	.loc 1 401 0
	mov	r2, lr
	add	r1, sp, #20
.LVL151:
	add	r3, sp, #4
.LVL152:
.LBE3:
	.loc 1 393 0
	beq	.L161
.LBB4:
	.loc 1 397 0
	mov	ip, #35
	str	ip, [sp, #20]
	.loc 1 398 0
	str	r4, [sp, #24]
	.loc 1 399 0
	str	r5, [sp, #28]
	.loc 1 401 0
	str	lr, [sp, #0]
	bl	Send(PLT)
.LVL153:
	.loc 1 403 0
	ldr	r0, [sp, #4]
	ldr	r1, .L166+8
	cmp	r0, #10
	movne	r0, #0
	moveq	r0, #1
	add	r1, sl, r1
	bl	assert(PLT)
.L164:
.LBE4:
	.loc 1 408 0
	add	sp, sp, #36
	ldmfd	sp!, {r4, r5, sl, pc}
.LVL154:
.L161:
	.loc 1 406 0
	mov	r1, r4
.LVL155:
	mov	r2, r5
	mov	r0, #1
	bl	PutStringFormat(PLT)
.LVL156:
	b	.L164
.L167:
	.align	2
.L166:
	.word	_GLOBAL_OFFSET_TABLE_-(.L165+8)
	.word	UI_PRINT_TASK_NAME(GOT)
	.word	.LC16(GOTOFF)
.LFE30:
	.size	PrintMessageFormat, .-PrintMessageFormat
	.align	2
	.global	PrintMessage
	.type	PrintMessage, %function
PrintMessage:
.LFB29:
	.loc 1 381 0
	@ args = 4, pretend = 16, frame = 0
	@ frame_needed = 0, uses_anonymous_args = 1
.LVL157:
	stmfd	sp!, {r0, r1, r2, r3}
.LCFI30:
	str	lr, [sp, #-4]!
.LCFI31:
	.loc 1 384 0
	ldr	r0, [sp, #4]
	add	r1, sp, #8
	bl	PrintMessageFormat(PLT)
	.loc 1 386 0
	ldr	lr, [sp], #4
	add	sp, sp, #16
	bx	lr
.LFE29:
	.size	PrintMessage, .-PrintMessage
	.section	.debug_frame,"",%progbits
.Lframe0:
	.4byte	.LECIE0-.LSCIE0
.LSCIE0:
	.4byte	0xffffffff
	.byte	0x1
	.ascii	"\000"
	.uleb128 0x1
	.sleb128 -4
	.byte	0xe
	.byte	0xc
	.uleb128 0xd
	.uleb128 0x0
	.align	2
.LECIE0:
.LSFDE0:
	.4byte	.LEFDE0-.LASFDE0
.LASFDE0:
	.4byte	.Lframe0
	.4byte	.LFB2
	.4byte	.LFE2-.LFB2
	.align	2
.LEFDE0:
.LSFDE2:
	.4byte	.LEFDE2-.LASFDE2
.LASFDE2:
	.4byte	.Lframe0
	.4byte	.LFB3
	.4byte	.LFE3-.LFB3
	.align	2
.LEFDE2:
.LSFDE4:
	.4byte	.LEFDE4-.LASFDE4
.LASFDE4:
	.4byte	.Lframe0
	.4byte	.LFB4
	.4byte	.LFE4-.LFB4
	.align	2
.LEFDE4:
.LSFDE6:
	.4byte	.LEFDE6-.LASFDE6
.LASFDE6:
	.4byte	.Lframe0
	.4byte	.LFB5
	.4byte	.LFE5-.LFB5
	.align	2
.LEFDE6:
.LSFDE8:
	.4byte	.LEFDE8-.LASFDE8
.LASFDE8:
	.4byte	.Lframe0
	.4byte	.LFB6
	.4byte	.LFE6-.LFB6
	.align	2
.LEFDE8:
.LSFDE10:
	.4byte	.LEFDE10-.LASFDE10
.LASFDE10:
	.4byte	.Lframe0
	.4byte	.LFB7
	.4byte	.LFE7-.LFB7
	.align	2
.LEFDE10:
.LSFDE12:
	.4byte	.LEFDE12-.LASFDE12
.LASFDE12:
	.4byte	.Lframe0
	.4byte	.LFB8
	.4byte	.LFE8-.LFB8
	.align	2
.LEFDE12:
.LSFDE14:
	.4byte	.LEFDE14-.LASFDE14
.LASFDE14:
	.4byte	.Lframe0
	.4byte	.LFB9
	.4byte	.LFE9-.LFB9
	.align	2
.LEFDE14:
.LSFDE16:
	.4byte	.LEFDE16-.LASFDE16
.LASFDE16:
	.4byte	.Lframe0
	.4byte	.LFB10
	.4byte	.LFE10-.LFB10
	.align	2
.LEFDE16:
.LSFDE18:
	.4byte	.LEFDE18-.LASFDE18
.LASFDE18:
	.4byte	.Lframe0
	.4byte	.LFB11
	.4byte	.LFE11-.LFB11
	.byte	0x4
	.4byte	.LCFI0-.LFB11
	.byte	0xe
	.uleb128 0xc
	.byte	0x8e
	.uleb128 0x1
	.byte	0x8a
	.uleb128 0x2
	.byte	0x84
	.uleb128 0x3
	.byte	0x4
	.4byte	.LCFI1-.LCFI0
	.byte	0xe
	.uleb128 0x30
	.align	2
.LEFDE18:
.LSFDE20:
	.4byte	.LEFDE20-.LASFDE20
.LASFDE20:
	.4byte	.Lframe0
	.4byte	.LFB12
	.4byte	.LFE12-.LFB12
	.byte	0x4
	.4byte	.LCFI2-.LFB12
	.byte	0xe
	.uleb128 0x8
	.byte	0x8e
	.uleb128 0x1
	.byte	0x8a
	.uleb128 0x2
	.byte	0x4
	.4byte	.LCFI3-.LCFI2
	.byte	0xe
	.uleb128 0x2c
	.align	2
.LEFDE20:
.LSFDE22:
	.4byte	.LEFDE22-.LASFDE22
.LASFDE22:
	.4byte	.Lframe0
	.4byte	.LFB13
	.4byte	.LFE13-.LFB13
	.align	2
.LEFDE22:
.LSFDE24:
	.4byte	.LEFDE24-.LASFDE24
.LASFDE24:
	.4byte	.Lframe0
	.4byte	.LFB14
	.4byte	.LFE14-.LFB14
	.byte	0x4
	.4byte	.LCFI4-.LFB14
	.byte	0xe
	.uleb128 0x10
	.byte	0x8e
	.uleb128 0x1
	.byte	0x8a
	.uleb128 0x2
	.byte	0x85
	.uleb128 0x3
	.byte	0x84
	.uleb128 0x4
	.byte	0x4
	.4byte	.LCFI5-.LCFI4
	.byte	0xe
	.uleb128 0x34
	.align	2
.LEFDE24:
.LSFDE26:
	.4byte	.LEFDE26-.LASFDE26
.LASFDE26:
	.4byte	.Lframe0
	.4byte	.LFB15
	.4byte	.LFE15-.LFB15
	.byte	0x4
	.4byte	.LCFI6-.LFB15
	.byte	0xe
	.uleb128 0x10
	.byte	0x8e
	.uleb128 0x1
	.byte	0x8a
	.uleb128 0x2
	.byte	0x85
	.uleb128 0x3
	.byte	0x84
	.uleb128 0x4
	.byte	0x4
	.4byte	.LCFI7-.LCFI6
	.byte	0xe
	.uleb128 0x34
	.align	2
.LEFDE26:
.LSFDE28:
	.4byte	.LEFDE28-.LASFDE28
.LASFDE28:
	.4byte	.Lframe0
	.4byte	.LFB16
	.4byte	.LFE16-.LFB16
	.byte	0x4
	.4byte	.LCFI8-.LFB16
	.byte	0xe
	.uleb128 0x8
	.byte	0x8e
	.uleb128 0x1
	.byte	0x8a
	.uleb128 0x2
	.byte	0x4
	.4byte	.LCFI9-.LCFI8
	.byte	0xe
	.uleb128 0x2c
	.align	2
.LEFDE28:
.LSFDE30:
	.4byte	.LEFDE30-.LASFDE30
.LASFDE30:
	.4byte	.Lframe0
	.4byte	.LFB17
	.4byte	.LFE17-.LFB17
	.byte	0x4
	.4byte	.LCFI10-.LFB17
	.byte	0xe
	.uleb128 0x4
	.byte	0x8e
	.uleb128 0x1
	.align	2
.LEFDE30:
.LSFDE32:
	.4byte	.LEFDE32-.LASFDE32
.LASFDE32:
	.4byte	.Lframe0
	.4byte	.LFB18
	.4byte	.LFE18-.LFB18
	.byte	0x4
	.4byte	.LCFI11-.LFB18
	.byte	0xe
	.uleb128 0x4
	.byte	0x8e
	.uleb128 0x1
	.align	2
.LEFDE32:
.LSFDE34:
	.4byte	.LEFDE34-.LASFDE34
.LASFDE34:
	.4byte	.Lframe0
	.4byte	.LFB19
	.4byte	.LFE19-.LFB19
	.byte	0x4
	.4byte	.LCFI12-.LFB19
	.byte	0xe
	.uleb128 0x4
	.byte	0x8e
	.uleb128 0x1
	.align	2
.LEFDE34:
.LSFDE36:
	.4byte	.LEFDE36-.LASFDE36
.LASFDE36:
	.4byte	.Lframe0
	.4byte	.LFB20
	.4byte	.LFE20-.LFB20
	.byte	0x4
	.4byte	.LCFI13-.LFB20
	.byte	0xe
	.uleb128 0xc
	.byte	0x8e
	.uleb128 0x1
	.byte	0x8a
	.uleb128 0x2
	.byte	0x84
	.uleb128 0x3
	.byte	0x4
	.4byte	.LCFI14-.LCFI13
	.byte	0xe
	.uleb128 0x30
	.align	2
.LEFDE36:
.LSFDE38:
	.4byte	.LEFDE38-.LASFDE38
.LASFDE38:
	.4byte	.Lframe0
	.4byte	.LFB26
	.4byte	.LFE26-.LFB26
	.byte	0x4
	.4byte	.LCFI15-.LFB26
	.byte	0xe
	.uleb128 0x1c
	.byte	0x8e
	.uleb128 0x1
	.byte	0x8a
	.uleb128 0x2
	.byte	0x88
	.uleb128 0x3
	.byte	0x87
	.uleb128 0x4
	.byte	0x86
	.uleb128 0x5
	.byte	0x85
	.uleb128 0x6
	.byte	0x84
	.uleb128 0x7
	.byte	0x4
	.4byte	.LCFI16-.LCFI15
	.byte	0xe
	.uleb128 0x40
	.align	2
.LEFDE38:
.LSFDE40:
	.4byte	.LEFDE40-.LASFDE40
.LASFDE40:
	.4byte	.Lframe0
	.4byte	.LFB25
	.4byte	.LFE25-.LFB25
	.byte	0x4
	.4byte	.LCFI17-.LFB25
	.byte	0xe
	.uleb128 0xc
	.byte	0x4
	.4byte	.LCFI18-.LCFI17
	.byte	0xe
	.uleb128 0x10
	.byte	0x8e
	.uleb128 0x4
	.byte	0x83
	.uleb128 0x1
	.byte	0x82
	.uleb128 0x2
	.byte	0x81
	.uleb128 0x3
	.align	2
.LEFDE40:
.LSFDE42:
	.4byte	.LEFDE42-.LASFDE42
.LASFDE42:
	.4byte	.Lframe0
	.4byte	.LFB21
	.4byte	.LFE21-.LFB21
	.align	2
.LEFDE42:
.LSFDE44:
	.4byte	.LEFDE44-.LASFDE44
.LASFDE44:
	.4byte	.Lframe0
	.4byte	.LFB22
	.4byte	.LFE22-.LFB22
	.byte	0x4
	.4byte	.LCFI19-.LFB22
	.byte	0xe
	.uleb128 0x18
	.byte	0x8e
	.uleb128 0x1
	.byte	0x88
	.uleb128 0x2
	.byte	0x87
	.uleb128 0x3
	.byte	0x86
	.uleb128 0x4
	.byte	0x85
	.uleb128 0x5
	.byte	0x84
	.uleb128 0x6
	.align	2
.LEFDE44:
.LSFDE46:
	.4byte	.LEFDE46-.LASFDE46
.LASFDE46:
	.4byte	.Lframe0
	.4byte	.LFB23
	.4byte	.LFE23-.LFB23
	.byte	0x4
	.4byte	.LCFI20-.LFB23
	.byte	0xe
	.uleb128 0x14
	.byte	0x4
	.4byte	.LCFI21-.LCFI20
	.byte	0xe
	.uleb128 0x28
	.byte	0x8e
	.uleb128 0x1
	.byte	0x87
	.uleb128 0x2
	.byte	0x86
	.uleb128 0x3
	.byte	0x85
	.uleb128 0x4
	.byte	0x84
	.uleb128 0x5
	.align	2
.LEFDE46:
.LSFDE48:
	.4byte	.LEFDE48-.LASFDE48
.LASFDE48:
	.4byte	.Lframe0
	.4byte	.LFB24
	.4byte	.LFE24-.LFB24
	.byte	0x4
	.4byte	.LCFI22-.LFB24
	.byte	0xe
	.uleb128 0xc
	.byte	0x4
	.4byte	.LCFI23-.LCFI22
	.byte	0xe
	.uleb128 0x10
	.byte	0x8e
	.uleb128 0x4
	.byte	0x83
	.uleb128 0x1
	.byte	0x82
	.uleb128 0x2
	.byte	0x81
	.uleb128 0x3
	.align	2
.LEFDE48:
.LSFDE50:
	.4byte	.LEFDE50-.LASFDE50
.LASFDE50:
	.4byte	.Lframe0
	.4byte	.LFB27
	.4byte	.LFE27-.LFB27
	.byte	0x4
	.4byte	.LCFI24-.LFB27
	.byte	0xe
	.uleb128 0x24
	.byte	0x8e
	.uleb128 0x1
	.byte	0x8b
	.uleb128 0x2
	.byte	0x8a
	.uleb128 0x3
	.byte	0x89
	.uleb128 0x4
	.byte	0x88
	.uleb128 0x5
	.byte	0x87
	.uleb128 0x6
	.byte	0x86
	.uleb128 0x7
	.byte	0x85
	.uleb128 0x8
	.byte	0x84
	.uleb128 0x9
	.byte	0x4
	.4byte	.LCFI25-.LCFI24
	.byte	0xe
	.uleb128 0x48
	.align	2
.LEFDE50:
.LSFDE52:
	.4byte	.LEFDE52-.LASFDE52
.LASFDE52:
	.4byte	.Lframe0
	.4byte	.LFB28
	.4byte	.LFE28-.LFB28
	.byte	0x4
	.4byte	.LCFI26-.LFB28
	.byte	0xe
	.uleb128 0x18
	.byte	0x8e
	.uleb128 0x1
	.byte	0x8a
	.uleb128 0x2
	.byte	0x87
	.uleb128 0x3
	.byte	0x86
	.uleb128 0x4
	.byte	0x85
	.uleb128 0x5
	.byte	0x84
	.uleb128 0x6
	.byte	0x4
	.4byte	.LCFI27-.LCFI26
	.byte	0xe
	.uleb128 0x3c
	.align	2
.LEFDE52:
.LSFDE54:
	.4byte	.LEFDE54-.LASFDE54
.LASFDE54:
	.4byte	.Lframe0
	.4byte	.LFB30
	.4byte	.LFE30-.LFB30
	.byte	0x4
	.4byte	.LCFI28-.LFB30
	.byte	0xe
	.uleb128 0x10
	.byte	0x8e
	.uleb128 0x1
	.byte	0x8a
	.uleb128 0x2
	.byte	0x85
	.uleb128 0x3
	.byte	0x84
	.uleb128 0x4
	.byte	0x4
	.4byte	.LCFI29-.LCFI28
	.byte	0xe
	.uleb128 0x34
	.align	2
.LEFDE54:
.LSFDE56:
	.4byte	.LEFDE56-.LASFDE56
.LASFDE56:
	.4byte	.Lframe0
	.4byte	.LFB29
	.4byte	.LFE29-.LFB29
	.byte	0x4
	.4byte	.LCFI30-.LFB29
	.byte	0xe
	.uleb128 0x10
	.byte	0x4
	.4byte	.LCFI31-.LCFI30
	.byte	0xe
	.uleb128 0x14
	.byte	0x8e
	.uleb128 0x5
	.byte	0x83
	.uleb128 0x1
	.byte	0x82
	.uleb128 0x2
	.byte	0x81
	.uleb128 0x3
	.byte	0x80
	.uleb128 0x4
	.align	2
.LEFDE56:
	.file 2 "nameserver.h"
	.file 3 "message.h"
	.file 4 "clock.h"
	.file 5 "va_list_def.h"
	.file 6 "train.h"
	.file 7 "ui.h"
	.file 8 "queue.h"
	.file 9 "public_kernel_interface.h"
	.file 10 "task_descriptor.h"
	.file 11 "buffer.h"
	.file 12 "uart.h"
	.text
.Letext0: