	.file	"random.c"
	.text
.Ltext0:
	.align	2
	.global	RNG_Initialize
	.type	RNG_Initialize, %function
RNG_Initialize:
.LFB2:
	.file 1 "random.c"
	.loc 1 4 0
	@ args = 0, pretend = 0, frame = 0
	@ frame_needed = 0, uses_anonymous_args = 0
	@ link register save eliminated.
.LVL0:
	.loc 1 8 0
	add	r3, r1, r1, asl #4
	rsb	r3, r1, r3, asl #4
	rsb	r3, r1, r3, asl #2
	add	r3, r3, r3, asl #4
	add	r3, r3, r3, asl #5
	rsb	r3, r1, r3, asl #4
	rsb	r3, r3, r3, asl #7
	add	r3, r3, r1
	bic	r3, r3, #-2147483648
	.loc 1 5 0
	ldr	r2, .L3
	.loc 1 8 0
	str	r3, [r0, #8]
	.loc 1 6 0
	ldr	r3, .L3+4
	.loc 1 5 0
	str	r2, [r0, #0]
	.loc 1 7 0
	mov	r2, #-2147483648
	.loc 1 4 0
	@ lr needed for prologue
	.loc 1 6 0
	str	r3, [r0, #4]
	.loc 1 7 0
	str	r2, [r0, #12]
	.loc 1 9 0
	bx	lr
.L4:
	.align	2
.L3:
	.word	1103515245
	.word	12345
.LFE2:
	.size	RNG_Initialize, .-RNG_Initialize
	.global	__umodsi3
	.align	2
	.global	RNG_Get
	.type	RNG_Get, %function
RNG_Get:
.LFB3:
	.loc 1 11 0
	@ args = 0, pretend = 0, frame = 0
	@ frame_needed = 0, uses_anonymous_args = 0
.LVL1:
	stmfd	sp!, {r4, lr}
.LCFI0:
	.loc 1 12 0
	ldmia	r0, {r2, r3, ip}	@ phole ldm
	.loc 1 11 0
	mov	r4, r0
	.loc 1 12 0
	ldr	r1, [r0, #12]
	mla	r0, ip, r2, r3
.LVL2:
	bl	__umodsi3(PLT)
	bic	r0, r0, #-1073741824
.LVL3:
	.loc 1 13 0
	str	r0, [r4, #8]
.LVL4:
	.loc 1 15 0
	ldmfd	sp!, {r4, pc}
.LFE3:
	.size	RNG_Get, .-RNG_Get
	.global	__floatsisf
	.global	__addsf3
	.global	__mulsf3
	.align	2
	.global	RNG_GetFloat
	.type	RNG_GetFloat, %function
RNG_GetFloat:
.LFB4:
	.loc 1 17 0
	@ args = 0, pretend = 0, frame = 0
	@ frame_needed = 0, uses_anonymous_args = 0
.LVL5:
	str	lr, [sp, #-4]!
.LCFI1:
	.loc 1 18 0
	bl	RNG_Get(PLT)
.LVL6:
	subs	r3, r0, #0
	and	r2, r3, #1
	blt	.L9
	bl	__floatsisf(PLT)
	mov	r1, #813694976
	bl	__mulsf3(PLT)
	.loc 1 19 0
	ldr	pc, [sp], #4
.L9:
	.loc 1 18 0
	orr	r0, r2, r3, lsr #1
	bl	__floatsisf(PLT)
	mov	r1, r0
	bl	__addsf3(PLT)
	mov	r1, #813694976
	bl	__mulsf3(PLT)
	.loc 1 19 0
	ldr	pc, [sp], #4
.LFE4:
	.size	RNG_GetFloat, .-RNG_GetFloat
	.global	__fixunssfsi
	.section	.rodata.str1.4,"aMS",%progbits,1
	.align	2
.LC0:
	.ascii	"RNG_GetRange: returned an integer not in range (too"
	.ascii	" big)\000"
	.align	2
.LC1:
	.ascii	"RNG_GetRange: returned an integer not in range (too"
	.ascii	" small)\000"
	.text
	.align	2
	.global	RNG_GetRange
	.type	RNG_GetRange, %function
RNG_GetRange:
.LFB5:
	.loc 1 21 0
	@ args = 0, pretend = 0, frame = 0
	@ frame_needed = 0, uses_anonymous_args = 0
.LVL7:
	stmfd	sp!, {r4, r5, r6, sl, lr}
.LCFI2:
	ldr	sl, .L20
	mov	r6, r2
.L18:
	add	sl, pc, sl
	mov	r5, r1
	.loc 1 22 0
	bl	RNG_GetFloat(PLT)
.LVL8:
	.loc 1 22 0
	rsb	r3, r5, r6
	adds	r3, r3, #1
	mov	r4, r0
	and	r2, r3, #1
	mov	r0, r3
	bmi	.L14
	bl	__floatsisf(PLT)
	mov	r1, r0
	mov	r0, r4
	bl	__mulsf3(PLT)
	cmp	r5, #0
	mov	r4, r0
	and	r3, r5, #1
	mov	r0, r5
	blt	.L16
.LVL9:
.L19:
	bl	__floatsisf(PLT)
.LVL10:
.L15:
	mov	r1, r0
	mov	r0, r4
	bl	__addsf3(PLT)
	bl	__fixunssfsi(PLT)
	.loc 1 24 0
	ldr	r1, .L20+4
	.loc 1 22 0
	mov	r4, r0
	.loc 1 24 0
	add	r1, sl, r1
	cmp	r6, r0
	movcc	r0, #0
	movcs	r0, #1
	bl	assert(PLT)
	.loc 1 25 0
	ldr	r1, .L20+8
	cmp	r5, r4
	movhi	r0, #0
	movls	r0, #1
	add	r1, sl, r1
	bl	assert(PLT)
	.loc 1 28 0
	mov	r0, r4
	ldmfd	sp!, {r4, r5, r6, sl, pc}
.L14:
	.loc 1 22 0
	orr	r0, r2, r3, lsr #1
	bl	__floatsisf(PLT)
	mov	r1, r0
	bl	__addsf3(PLT)
	mov	r1, r0
	mov	r0, r4
	bl	__mulsf3(PLT)
	cmp	r5, #0
	mov	r4, r0
	and	r3, r5, #1
	mov	r0, r5
	bge	.L19
.LVL11:
.L16:
	orr	r0, r3, r5, lsr #1
.LVL12:
	bl	__floatsisf(PLT)
	mov	r1, r0
	bl	__addsf3(PLT)
	b	.L15
.L21:
	.align	2
.L20:
	.word	_GLOBAL_OFFSET_TABLE_-(.L18+8)
	.word	.LC0(GOTOFF)
	.word	.LC1(GOTOFF)
.LFE5:
	.size	RNG_GetRange, .-RNG_GetRange
	.section	.debug_frame,"",%progbits
.Lframe0:
	.4byte	.LECIE0-.LSCIE0
.LSCIE0:
	.4byte	0xffffffff
	.byte	0x1
	.ascii	"\000"
	.uleb128 0x1
	.sleb128 -4
	.byte	0xe
	.byte	0xc
	.uleb128 0xd
	.uleb128 0x0
	.align	2
.LECIE0:
.LSFDE0:
	.4byte	.LEFDE0-.LASFDE0
.LASFDE0:
	.4byte	.Lframe0
	.4byte	.LFB2
	.4byte	.LFE2-.LFB2
	.align	2
.LEFDE0:
.LSFDE2:
	.4byte	.LEFDE2-.LASFDE2
.LASFDE2:
	.4byte	.Lframe0
	.4byte	.LFB3
	.4byte	.LFE3-.LFB3
	.byte	0x4
	.4byte	.LCFI0-.LFB3
	.byte	0xe
	.uleb128 0x8
	.byte	0x8e
	.uleb128 0x1
	.byte	0x84
	.uleb128 0x2
	.align	2
.LEFDE2:
.LSFDE4:
	.4byte	.LEFDE4-.LASFDE4
.LASFDE4:
	.4byte	.Lframe0
	.4byte	.LFB4
	.4byte	.LFE4-.LFB4
	.byte	0x4
	.4byte	.LCFI1-.LFB4
	.byte	0xe
	.uleb128 0x4
	.byte	0x8e
	.uleb128 0x1
	.align	2
.LEFDE4:
.LSFDE6:
	.4byte	.LEFDE6-.LASFDE6
.LASFDE6:
	.4byte	.Lframe0
	.4byte	.LFB5
	.4byte	.LFE5-.LFB5
	.byte	0x4
	.4byte	.LCFI2-.LFB5
	.byte	0xe
	.uleb128 0x14
	.byte	0x8e
	.uleb128 0x1
	.byte	0x8a
	.uleb128 0x2
	.byte	0x86
	.uleb128 0x3
	.byte	0x85
	.uleb128 0x4
	.byte	0x84
	.uleb128 0x5
	.align	2
.LEFDE6:
	.file 2 "random.h"
	.text
.Letext0: