	.file	"robio.c"
	.text
.Ltext0:
	.section	.rodata
	.align	2
.LC0:
	.ascii	"\033[36m                                ``,:::::`` "
	.ascii	"                                         \012      "
	.ascii	"                        .@@@@@@@@@@@#`             "
	.ascii	"                           \012                    "
	.ascii	"         `#@@@@@@@@@@@@#`                          "
	.ascii	"             \012                            :@@@@@"
	.ascii	"@@@@@@@@@@@.                                      \012"
	.ascii	"                           `+@@@@@@@@@@@@@@@@.     "
	.ascii	"                                 \012              "
	.ascii	"               ;+@@@@@@@@@@@@#;`                   "
	.ascii	"                   \012                      ``:::;"
	.ascii	"'+#@@@@@@@@@@@@#+++;::,```                         "
	.ascii	"     \012               `.,:###@@@@@@@@@@@@@@@@@@@@"
	.ascii	"@@@@@@@@@@@@##,,``                        \012     "
	.ascii	"     `,+##@@@@@@@@@@@@@@@@@@@@@@@@@@@@@@@@@@@@@@@@@"
	.ascii	"@@@@@+,.                    \012     `,;'@@@@@@@@@@"
	.ascii	"@@@@@@@@@@@@@@@@@@@@@@@@@@@@@@@@@@@@@@@@@@@@@@@';, "
	.ascii	"              \012 `.;+@@@@@@@@@@@@@@@@@@@@@@@@@@@@"
	.ascii	"@@@@@@@@@@@@@@@@@@@@@@@@@@@@@@@@@@@@@;.`           "
	.ascii	"\012#@@@@@@@@@@@@@@@@@@@@@@@@@@@@@@@@@@@@@@@@@@@@@@"
	.ascii	"@@@@@@@@@@@@@@@@@@@@@@@@@@'`         \012@@@@@@@@@@"
	.ascii	"@@@@@@@@@@@@@@@@@@@@@@@@@@@@@@@@@@@@@@@@@@@@@@@@@@@"
	.ascii	"@@@@@@@@@@@@@,         \012,##@@@@@@@@#@@@@@@@@@@@@"
	.ascii	"@@@@@@@@@@@@@@@@@@@@@@@@@@@@@@@@@@@@@@@@@@@@@@@##+ "
	.ascii	"         \012  `#@@@@@@@@@@@@@@@@@@@@@@@@@@@@@@@@@@"
	.ascii	"@@@@@@@@@@@@@@@@@@@@@@@@@@@@@@@@#`            \012 "
	.ascii	" `#@@@@@@@@@@@@@@@@@@@@@@@@@@@@@@@@@@@@@@@@@@@@@@@@"
	.ascii	"@@@@@@@@@@@@@@@@@@#`            \012  `#@@@@@@@@@@@"
	.ascii	"@@@@@@@@@@@@@@@@@@#########@@@@@@@@@@@@@@@@@@@@@@@@"
	.ascii	"@@@@#`            \012  `#@@@@@@@@@@@@@@@@@@@@@@@@#"
	.ascii	";..` `      `.,'+@@@@@@@@@@@@@@@@@@@@@@@@#`        "
	.ascii	"    \012  `#@@@@@@@@@@@@@@@@@@@@+;,`               "
	.ascii	"   `,;@@@@@@@@@@@@@@@@@@@@@#`            \012  `#@@"
	.ascii	"@@@@@@@@@@@@@@@@',`,:.                  `,,`,#@@@@@"
	.ascii	"@@@@@@@@@@@@@#`            \012  `#@@@@@@@@@@@@@@@@"
	.ascii	"#. `;@@@@`               ,@@@@,`.#@@@@@@@@@@@@@@@@#"
	.ascii	"`            \012  `#@@@@@@@@@@@@@@@:  ,@@+;;@@'   "
	.ascii	"          +@+;'#@#` ,#@@@@@@@@@@@@@@#`            \012"
	.ascii	"  `#@@@@@@@@@@@@@'`    `  `` `               `     "
	.ascii	"'`  `'@@@@@@@@@@@@@#`            \012`+@@@@@@@@@@@@"
	.ascii	"@@:     :'@@@@@#+         "
	.ascii	"   .++@@+'':     :@@@@@@@@@@@@@#:`          \012@@@"
	.ascii	"@@@@@@@@@@@@:    '+',,:,,:+@#:        :#@@;:,,@@;+."
	.ascii	"    :@@@@@@@@@@@@@@@,         \012@@@@@@@@@@@@@@+  "
	.ascii	"   ++        ,@@,      .@@:`      `+@`    :@@@@@@@@"
	.ascii	"@@@@@@,         \012@@@@@@@@@@@@@+`    @`          "
	.ascii	"'@#      #@+          +@    `+@@@@@@@@@@@@@,       "
	.ascii	"  \012@@@@@@@@@@@@@,     ',  .:;;:`           .;   "
	.ascii	"`:;:`    '     ;@@@@@@@@@@@@@,         \012@@@@@@@@"
	.ascii	"@@@@+`     ,. ,+@@@@@;           ` `;@@@@@#` ;+    "
	.ascii	" .@@@@@@@@@@@@@,         \012@@@@@@@@@@@@:      @+ "
	.ascii	"+@@@@@@@`         #@ +@@@@@@@+        `'@@@@@@@@@@@"
	.ascii	"@,         \012@@@@@@@@@@@@:      `.`+@@@@@@@`     "
	.ascii	"     ``@@@@@@@@+#:       :@@@@@@@@@@@@,         \012"
	.ascii	"@@@@@@@@@@@@:         ;@@@@@@#'           `,#@@@@@@"
	.ascii	"`.`       :@@@@@@@@@@@@,         \012@@@@@@@@@@@@: "
	.ascii	"         `.,.,.  ,.        ,. `.,,..`          :@@@"
	.ascii	"@@@@@@@@@,         \012@@@@@@@@@@@@:               "
	.ascii	"  '@@+`     ;@#`                `+@@@@@@@@@@@@,    "
	.ascii	"     \012@@@@@@@@@@@@@`               ;@@@@@;::'+@@"
	.ascii	"@+`               .@@@@@@@@@@@@@,         \012@@@@@"
	.ascii	"@@@@@@@@;             .@@@::@@@@@@@':'@@'          "
	.ascii	"    '@@@@@@@@@@@@@,         \012@@@@@@@@@@@@@@.    "
	.ascii	"      .#@@#.    ````    :@@#:           .@@@@@@@@@@"
	.ascii	"@@@@,         \012@@@@@@@@@@@@@@#`     ,:@@@#@;``  "
	.ascii	"            ,@@@@::      `#@@@@@@@@@@@@@@,         "
	.ascii	"\012@@@@@@@@@@@@@@@'`     #'```@:@@@+```    `..:,:#"
	.ascii	"#'++;     `'@@@@@@@@@@@@@@@,         \012@@@@@@@@@@"
	.ascii	"@@@@@@+`         ,@  `''@@::+;@#;.,@`         `+@@@"
	.ascii	"@@@@@@@@@@@@@,         \012@@@@@@@@@@@@@@@@@+.     "
	.ascii	"   `@#              ;@`        .+@@@@@@@@@@@@@@@@@,"
	.ascii	"         \012:+@@@@@@@@@@@@@@@@@'`       .@@,.`    "
	.ascii	"  `..+@+       `;@@@@@@@@@@@@@@@@';:`         \012 "
	.ascii	"`@@@@@@@@@@@@@@@@@@@#.      `@@@@#@.`;##@@@`      `"
	.ascii	":@@@@@@@@@@@@@@@@@@,            \012;'@@@@@@@@@@@@@"
	.ascii	"@@@@@@@@',`     :;#@@@@@@##:     `:'@@@@@@@@@@@@@@@"
	.ascii	"@@@@@+';`         \012@@@@@@@@@@@@@@@@@@@@@@@@@@;,`"
	.ascii	"`    `....`    `.,;@@@@@@@@@@@@@@@@@@@@@@@@@@:`    "
	.ascii	"    \012@@@@@@@@@@@@@@@@@@@@@@@@@@@@@@#+';.````.;'+"
	.ascii	"#@@@@@@@@@@@@@@@@@@@@@@@@@@@@@@@:        \012@@@@@@"
	.ascii	"@@@@@@@@@@@@@@@@@@@@@@@@@@@@@@@@@@@@@@@@@@@@@@@@@@@"
	.ascii	"@@@@@@@@@@@@@@@@@@@`       \012"
	.ascii	"@@@@@@@@@@@@@@@@@@@@@@@@@@@@@@@@@@@@@@@@@@@@@@@@@@@"
	.ascii	"@@@@@@@@@@@@@@@@@@@@@@@@@+    \012\011\033[0m\012\033"
	.ascii	"[1;4;7mASSERTION FAILURE!!!\033[0m\012\000"
	.text
	.align	2
	.global	assertf
	.type	assertf, %function
assertf:
.LFB2:
	.file 1 "robio.c"
	.loc 1 9 0
	@ args = 4, pretend = 12, frame = 16
	@ frame_needed = 1, uses_anonymous_args = 1
	mov	ip, sp
.LCFI0:
	stmfd	sp!, {r1, r2, r3}
.LCFI1:
	stmfd	sp!, {sl, fp, ip, lr, pc}
.LCFI2:
	sub	fp, ip, #16
.LCFI3:
	sub	sp, sp, #16
.LCFI4:
	ldr	sl, .L13
.L12:
	add	sl, pc, sl
	str	r0, [fp, #-32]
	.loc 1 12 0
	add	r3, fp, #8
	str	r3, [fp, #-28]
	.loc 1 13 0
	ldr	r3, [fp, #-32]
	cmp	r3, #0
	bne	.L11
.LBB2:
	.loc 1 14 0
	bl	asm_AssertKernelEntry(PLT)
	.loc 1 65 0
	ldr	r3, .L13+4
	add	r3, sl, r3
	str	r3, [fp, #-24]
	.loc 1 66 0
	ldr	r3, [fp, #-24]
	mov	r0, r3
	bl	robputstrbusy(PLT)
	.loc 1 67 0
	ldr	r3, [fp, #4]
	mov	r0, r3
	ldr	r1, [fp, #-28]
	bl	bwformatbusy(PLT)
.L4:
	.loc 1 70 0
	mov	r3, #0
	str	r3, [fp, #-20]
	b	.L5
.L6:
	ldr	r3, [fp, #-20]
	add	r3, r3, #1
	str	r3, [fp, #-20]
.L5:
	ldr	r2, [fp, #-20]
	ldr	r3, .L13+8
	cmp	r2, r3
	ble	.L6
	.loc 1 71 0
	mov	r0, #3
	bl	set_led(PLT)
	.loc 1 72 0
	mov	r3, #0
	str	r3, [fp, #-20]
	b	.L8
.L9:
	ldr	r3, [fp, #-20]
	add	r3, r3, #1
	str	r3, [fp, #-20]
.L8:
	ldr	r2, [fp, #-20]
	ldr	r3, .L13+8
	cmp	r2, r3
	ble	.L9
	.loc 1 73 0
	mov	r0, #0
	bl	set_led(PLT)
	.loc 1 74 0
	b	.L4
.L11:
.LBE2:
	.loc 1 78 0
	sub	sp, fp, #16
	ldmfd	sp, {sl, fp, sp, pc}
.L14:
	.align	2
.L13:
	.word	_GLOBAL_OFFSET_TABLE_-(.L12+8)
	.word	.LC0(GOTOFF)
	.word	99999
.LFE2:
	.size	assertf, .-assertf
	.align	2
	.global	assert
	.type	assert, %function
assert:
.LFB3:
	.loc 1 82 0
	@ args = 0, pretend = 0, frame = 8
	@ frame_needed = 1, uses_anonymous_args = 0
	mov	ip, sp
.LCFI5:
	stmfd	sp!, {fp, ip, lr, pc}
.LCFI6:
	sub	fp, ip, #4
.LCFI7:
	sub	sp, sp, #8
.LCFI8:
	str	r0, [fp, #-16]
	str	r1, [fp, #-20]
	.loc 1 83 0
	ldr	r0, [fp, #-16]
	ldr	r1, [fp, #-20]
	bl	assertf(PLT)
	.loc 1 110 0
	sub	sp, fp, #12
	ldmfd	sp, {fp, sp, pc}
.LFE3:
	.size	assert, .-assert
	.section	.rodata
	.align	2
.LC1:
	.ascii	"Unknown Channel in set fifo.\000"
	.align	2
.LC2:
	.ascii	"The FIFO is enabled, and that is bad.\012\000"
	.text
	.align	2
	.global	robsetfifo
	.type	robsetfifo, %function
robsetfifo:
.LFB4:
	.loc 1 119 0
	@ args = 0, pretend = 0, frame = 28
	@ frame_needed = 1, uses_anonymous_args = 0
	mov	ip, sp
.LCFI9:
	stmfd	sp!, {sl, fp, ip, lr, pc}
.LCFI10:
	sub	fp, ip, #4
.LCFI11:
	sub	sp, sp, #28
.LCFI12:
	ldr	sl, .L30
.L29:
	add	sl, pc, sl
	str	r0, [fp, #-28]
	str	r1, [fp, #-32]
	.loc 1 121 0
	ldr	r3, [fp, #-28]
	ldr	r3, [r3, #0]
	str	r3, [fp, #-44]
	ldr	r3, [fp, #-44]
	cmp	r3, #0
	beq	.L19
	ldr	r3, [fp, #-44]
	cmp	r3, #1
	beq	.L20
	b	.L18
.L19:
	.loc 1 123 0
	ldr	r3, .L30+4
	str	r3, [fp, #-24]
	.loc 1 124 0
	ldr	r3, [fp, #-24]
	ldr	r3, [r3, #0]
	str	r3, [fp, #-20]
	.loc 1 125 0
	ldr	r3, [fp, #-32]
	cmp	r3, #0
	beq	.L21
	ldr	r3, [fp, #-20]
	orr	r3, r3, #16
	str	r3, [fp, #-40]
	b	.L23
.L21:
	ldr	r3, [fp, #-20]
	bic	r3, r3, #16
	str	r3, [fp, #-40]
.L23:
	ldr	r3, [fp, #-40]
	str	r3, [fp, #-20]
	.loc 1 127 0
	ldr	r3, [fp, #-20]
	orr	r3, r3, #104
	bic	r3, r3, #3
	str	r3, [fp, #-20]
	.loc 1 128 0
	b	.L24
.L20:
	.loc 1 130 0
	ldr	r3, .L30+8
	str	r3, [fp, #-24]
	.loc 1 131 0
	ldr	r3, [fp, #-24]
	ldr	r3, [r3, #0]
	str	r3, [fp, #-20]
	.loc 1 132 0
	ldr	r3, [fp, #-32]
	cmp	r3, #0
	beq	.L25
	ldr	r3, [fp, #-20]
	orr	r3, r3, #16
	str	r3, [fp, #-36]
	b	.L27
.L25:
	ldr	r3, [fp, #-20]
	bic	r3, r3, #16
	str	r3, [fp, #-36]
.L27:
	ldr	r3, [fp, #-36]
	str	r3, [fp, #-20]
	.loc 1 133 0
	b	.L24
.L18:
	.loc 1 135 0
	mov	r0, #0
	ldr	r3, .L30+12
	add	r3, sl, r3
	mov	r1, r3
	bl	assert(PLT)
.L24:
	.loc 1 139 0
	ldr	r2, [fp, #-24]
	ldr	r3, [fp, #-20]
	str	r3, [r2, #0]
	.loc 1 141 0
	ldr	r3, [fp, #-24]
	ldr	r3, [r3, #0]
	mov	r3, r3, lsr #4
	and	r3, r3, #1
	cmp	r3, #0
	movne	r3, #0
	moveq	r3, #1
	mov	r0, r3
	ldr	r3, .L30+16
	add	r3, sl, r3
	mov	r1, r3
	bl	assert(PLT)
	.loc 1 142 0
	sub	sp, fp, #16
	ldmfd	sp, {sl, fp, sp, pc}
.L31:
	.align	2
.L30:
	.word	_GLOBAL_OFFSET_TABLE_-(.L29+8)
	.word	-2138308600
	.word	-2138243064
	.word	.LC1(GOTOFF)
	.word	.LC2(GOTOFF)
.LFE4:
	.size	robsetfifo, .-robsetfifo
	.section	.rodata
	.align	2
.LC3:
	.ascii	"Unknown Channel in robsetspeed.\000"
	.align	2
.LC4:
	.ascii	"Unknown speed.\000"
	.text
	.align	2
	.global	robsetspeed
	.type	robsetspeed, %function
robsetspeed:
.LFB5:
	.loc 1 144 0
	@ args = 0, pretend = 0, frame = 20
	@ frame_needed = 1, uses_anonymous_args = 0
	mov	ip, sp
.LCFI13:
	stmfd	sp!, {sl, fp, ip, lr, pc}
.LCFI14:
	sub	fp, ip, #4
.LCFI15:
	sub	sp, sp, #20
.LCFI16:
	ldr	sl, .L43
.L42:
	add	sl, pc, sl
	str	r0, [fp, #-28]
	.loc 1 146 0
	ldr	r3, [fp, #-28]
	ldr	r3, [r3, #0]
	str	r3, [fp, #-36]
	ldr	r2, [fp, #-36]
	cmp	r2, #0
	beq	.L34
	ldr	r3, [fp, #-36]
	cmp	r3, #1
	beq	.L35
	b	.L33
.L34:
	.loc 1 148 0
	ldr	r3, .L43+4
	str	r3, [fp, #-24]
	.loc 1 149 0
	ldr	r3, .L43+8
	str	r3, [fp, #-20]
	.loc 1 150 0
	b	.L36
.L35:
	.loc 1 152 0
	ldr	r3, .L43+12
	str	r3, [fp, #-24]
	.loc 1 153 0
	ldr	r3, .L43+16
	str	r3, [fp, #-20]
	.loc 1 154 0
	b	.L36
.L33:
	.loc 1 156 0
	mov	r0, #0
	ldr	r3, .L43+20
	add	r3, sl, r3
	mov	r1, r3
	bl	assert(PLT)
.L36:
	.loc 1 159 0
	ldr	r3, [fp, #-28]
	ldr	r3, [r3, #4]
	str	r3, [fp, #-32]
	ldr	r2, [fp, #-32]
	cmp	r2, #2400
	beq	.L38
	ldr	r3, .L43+24
	ldr	r2, [fp, #-32]
	cmp	r2, r3
	beq	.L39
	b	.L37
.L39:
	.loc 1 161 0
	ldr	r2, [fp, #-24]
	mov	r3, #0
	str	r3, [r2, #0]
	.loc 1 162 0
	ldr	r2, [fp, #-20]
	mov	r3, #3
	str	r3, [r2, #0]
	.loc 1 163 0
	b	.L40
.L38:
	.loc 1 165 0
	ldr	r2, [fp, #-24]
	mov	r3, #0
	str	r3, [r2, #0]
	.loc 1 166 0
	ldr	r2, [fp, #-20]
	mov	r3, #191
	str	r3, [r2, #0]
	.loc 1 167 0
	b	.L40
.L37:
	.loc 1 169 0
	mov	r0, #0
	ldr	r3, .L43+28
	add	r3, sl, r3
	mov	r1, r3
	bl	assert(PLT)
.L40:
	.loc 1 173 0
	ldr	r0, [fp, #-28]
	mov	r1, #0
	bl	robsetfifo(PLT)
	.loc 1 174 0
	sub	sp, fp, #16
	ldmfd	sp, {sl, fp, sp, pc}
.L44:
	.align	2
.L43:
	.word	_GLOBAL_OFFSET_TABLE_-(.L42+8)
	.word	-2138308596
	.word	-2138308592
	.word	-2138243060
	.word	-2138243056
	.word	.LC3(GOTOFF)
	.word	115200
	.word	.LC4(GOTOFF)
.LFE5:
	.size	robsetspeed, .-robsetspeed
	.section	.rodata
	.align	2
.LC5:
	.ascii	"Unknown channel in error check.\000"
	.align	2
.LC6:
	.ascii	"Framming error on COM1.\012\000"
	.align	2
.LC7:
	.ascii	"Parity error on COM1.\012\000"
	.align	2
.LC8:
	.ascii	"Break error on COM1.\012\000"
	.align	2
.LC9:
	.ascii	"Overrun error on COM1.\012\000"
	.align	2
.LC10:
	.ascii	"Framming error on COM2.\012\000"
	.align	2
.LC11:
	.ascii	"Parity error on COM2.\012\000"
	.align	2
.LC12:
	.ascii	"Break error on COM2.\012\000"
	.align	2
.LC13:
	.ascii	"Overrun error on COM2.\012\000"
	.text
	.align	2
	.global	robchannelerrorcheck
	.type	robchannelerrorcheck, %function
robchannelerrorcheck:
.LFB6:
	.loc 1 176 0
	@ args = 0, pretend = 0, frame = 12
	@ frame_needed = 1, uses_anonymous_args = 0
	mov	ip, sp
.LCFI17:
	stmfd	sp!, {sl, fp, ip, lr, pc}
.LCFI18:
	sub	fp, ip, #4
.LCFI19:
	sub	sp, sp, #12
.LCFI20:
	ldr	sl, .L55
.L54:
	add	sl, pc, sl
	str	r0, [fp, #-24]
	.loc 1 178 0
	ldr	r3, [fp, #-24]
	ldr	r3, [r3, #0]
	str	r3, [fp, #-28]
	ldr	r3, [fp, #-28]
	cmp	r3, #0
	beq	.L47
	ldr	r3, [fp, #-28]
	cmp	r3, #1
	beq	.L48
	b	.L46
.L47:
	.loc 1 180 0
	ldr	r3, .L55+4
	str	r3, [fp, #-20]
	.loc 1 181 0
	b	.L49
.L48:
	.loc 1 183 0
	ldr	r3, .L55+8
	str	r3, [fp, #-20]
	.loc 1 184 0
	b	.L49
.L46:
	.loc 1 186 0
	mov	r0, #0
	ldr	r3, .L55+12
	add	r3, sl, r3
	mov	r1, r3
	bl	assert(PLT)
.L49:
	.loc 1 190 0
	ldr	r3, [fp, #-24]
	ldr	r3, [r3, #0]
	cmp	r3, #0
	bne	.L50
	.loc 1 191 0
	ldr	r3, [fp, #-20]
	ldr	r3, [r3, #0]
	and	r3, r3, #1
	cmp	r3, #0
	movne	r3, #0
	moveq	r3, #1
	mov	r0, r3
	ldr	r3, .L55+16
	add	r3, sl, r3
	mov	r1, r3
	bl	assert(PLT)
	.loc 1 192 0
	ldr	r3, [fp, #-20]
	ldr	r3, [r3, #0]
	mov	r3, r3, lsr #1
	and	r3, r3, #1
	cmp	r3, #0
	movne	r3, #0
	moveq	r3, #1
	mov	r0, r3
	ldr	r3, .L55+20
	add	r3, sl, r3
	mov	r1, r3
	bl	assert(PLT)
	.loc 1 193 0
	ldr	r3, [fp, #-20]
	ldr	r3, [r3, #0]
	mov	r3, r3, lsr #2
	and	r3, r3, #1
	cmp	r3, #0
	movne	r3, #0
	moveq	r3, #1
	mov	r0, r3
	ldr	r3, .L55+24
	add	r3, sl, r3
	mov	r1, r3
	bl	assert(PLT)
	.loc 1 194 0
	ldr	r3, [fp, #-20]
	ldr	r3, [r3, #0]
	mov	r3, r3, lsr #3
	and	r3, r3, #1
	cmp	r3, #0
	movne	r3, #0
	moveq	r3, #1
	mov	r0, r3
	ldr	r3, .L55+28
	add	r3, sl, r3
	mov	r1, r3
	bl	assert(PLT)
	b	.L52
.L50:
	.loc 1 196 0
	ldr	r3, [fp, #-20]
	ldr	r3, [r3, #0]
	and	r3, r3, #1
	cmp	r3, #0
	movne	r3, #0
	moveq	r3, #1
	mov	r0, r3
	ldr	r3, .L55+32
	add	r3, sl, r3
	mov	r1, r3
	bl	assert(PLT)
	.loc 1 197 0
	ldr	r3, [fp, #-20]
	ldr	r3, [r3, #0]
	mov	r3, r3, lsr #1
	and	r3, r3, #1
	cmp	r3, #0
	movne	r3, #0
	moveq	r3, #1
	mov	r0, r3
	ldr	r3, .L55+36
	add	r3, sl, r3
	mov	r1, r3
	bl	assert(PLT)
	.loc 1 198 0
	ldr	r3, [fp, #-20]
	ldr	r3, [r3, #0]
	mov	r3, r3, lsr #2
	and	r3, r3, #1
	cmp	r3, #0
	movne	r3, #0
	moveq	r3, #1
	mov	r0, r3
	ldr	r3, .L55+40
	add	r3, sl, r3
	mov	r1, r3
	bl	assert(PLT)
	.loc 1 199 0
	ldr	r3, [fp, #-20]
	ldr	r3, [r3, #0]
	mov	r3, r3, lsr #3
	and	r3, r3, #1
	cmp	r3, #0
	movne	r3, #0
	moveq	r3, #1
	mov	r0, r3
	ldr	r3, .L55+44
	add	r3, sl, r3
	mov	r1, r3
	bl	assert(PLT)
.L52:
	.loc 1 204 0
	ldr	r2, [fp, #-20]
	mov	r3, #0
	str	r3, [r2, #0]
	.loc 1 206 0
	sub	sp, fp, #16
	ldmfd	sp, {sl, fp, sp, pc}
.L56:
	.align	2
.L55:
	.word	_GLOBAL_OFFSET_TABLE_-(.L54+8)
	.word	-2138308604
	.word	-2138243068
	.word	.LC5(GOTOFF)
	.word	.LC6(GOTOFF)
	.word	.LC7(GOTOFF)
	.word	.LC8(GOTOFF)
	.word	.LC9(GOTOFF)
	.word	.LC10(GOTOFF)
	.word	.LC11(GOTOFF)
	.word	.LC12(GOTOFF)
	.word	.LC13(GOTOFF)
.LFE6:
	.size	robchannelerrorcheck, .-robchannelerrorcheck
	.section	.rodata
	.align	2
.LC14:
	.ascii	"Unknown channel in channel send.\000"
	.global	__umodsi3
	.text
	.align	2
	.global	robchannelsend
	.type	robchannelsend, %function
robchannelsend:
.LFB7:
	.loc 1 207 0
	@ args = 0, pretend = 0, frame = 24
	@ frame_needed = 1, uses_anonymous_args = 0
	mov	ip, sp
.LCFI21:
	stmfd	sp!, {sl, fp, ip, lr, pc}
.LCFI22:
	sub	fp, ip, #4
.LCFI23:
	sub	sp, sp, #24
.LCFI24:
	ldr	sl, .L73
.L72:
	add	sl, pc, sl
	str	r0, [fp, #-36]
	.loc 1 208 0
	ldr	r3, [fp, #-36]
	ldr	r2, [r3, #8]
	ldr	r3, [fp, #-36]
	ldr	r3, [r3, #12]
	cmp	r2, r3
	beq	.L71
	.loc 1 213 0
	ldr	r3, [fp, #-36]
	ldr	r3, [r3, #0]
	str	r3, [fp, #-40]
	ldr	r3, [fp, #-40]
	cmp	r3, #0
	beq	.L61
	ldr	r3, [fp, #-40]
	cmp	r3, #1
	beq	.L62
	b	.L60
.L61:
	.loc 1 215 0
	ldr	r3, .L73+4
	str	r3, [fp, #-32]
	.loc 1 216 0
	ldr	r3, .L73+8
	str	r3, [fp, #-28]
	.loc 1 217 0
	b	.L63
.L62:
	.loc 1 219 0
	ldr	r3, .L73+12
	str	r3, [fp, #-32]
	.loc 1 220 0
	ldr	r3, .L73+16
	str	r3, [fp, #-28]
	.loc 1 221 0
	b	.L63
.L60:
	.loc 1 223 0
	mov	r0, #0
	ldr	r3, .L73+20
	add	r3, sl, r3
	mov	r1, r3
	bl	assert(PLT)
.L63:
	.loc 1 227 0
	mov	r3, #100
	str	r3, [fp, #-24]
	.loc 1 228 0
	mov	r3, #0
	str	r3, [fp, #-20]
	.loc 1 229 0
	b	.L64
.L65:
	.loc 1 230 0
	ldr	r3, [fp, #-32]
	ldr	r3, [r3, #0]
	mov	r3, r3, lsr #7
	and	r3, r3, #1
	and	r3, r3, #255
	cmp	r3, #0
	beq	.L66
	ldr	r3, [fp, #-32]
	ldr	r3, [r3, #0]
	mov	r3, r3, lsr #3
	and	r3, r3, #1
	cmp	r3, #0
	bne	.L66
	ldr	r3, [fp, #-32]
	ldr	r3, [r3, #0]
	and	r3, r3, #1
	and	r3, r3, #255
	cmp	r3, #0
	bne	.L69
	ldr	r3, [fp, #-36]
	ldr	r3, [r3, #0]
	cmp	r3, #1
	bne	.L66
.L69:
	.loc 1 231 0
	ldr	r3, [fp, #-36]
	ldr	r2, [r3, #32]
	ldr	r3, [fp, #-36]
	ldr	r3, [r3, #8]
	add	r3, r2, r3
	ldrb	r3, [r3, #0]	@ zero_extendqisi2
	mov	r2, r3
	ldr	r3, [fp, #-28]
	str	r2, [r3, #0]
	.loc 1 232 0
	ldr	r3, [fp, #-36]
	ldr	r3, [r3, #8]
	add	r2, r3, #1
	ldr	r3, [fp, #-36]
	ldr	r3, [r3, #24]
	mov	r0, r2
	mov	r1, r3
	bl	__umodsi3(PLT)
	mov	r3, r0
	mov	r2, r3
	ldr	r3, [fp, #-36]
	str	r2, [r3, #8]
	.loc 1 234 0
	b	.L71
.L66:
	.loc 1 236 0
	ldr	r3, [fp, #-20]
	add	r3, r3, #1
	str	r3, [fp, #-20]
.L64:
	.loc 1 229 0
	ldr	r2, [fp, #-20]
	ldr	r3, [fp, #-24]
	cmp	r2, r3
	blt	.L65
.L71:
	.loc 1 238 0
	sub	sp, fp, #16
	ldmfd	sp, {sl, fp, sp, pc}
.L74:
	.align	2
.L73:
	.word	_GLOBAL_OFFSET_TABLE_-(.L72+8)
	.word	-2138308584
	.word	-2138308608
	.word	-2138243048
	.word	-2138243072
	.word	.LC14(GOTOFF)
.LFE7:
	.size	robchannelsend, .-robchannelsend
	.section	.rodata
	.align	2
.LC15:
	.ascii	"The output buffer is full.\000"
	.text
	.align	2
	.global	robputc
	.type	robputc, %function
robputc:
.LFB8:
	.loc 1 240 0
	@ args = 0, pretend = 0, frame = 8
	@ frame_needed = 1, uses_anonymous_args = 0
	mov	ip, sp
.LCFI25:
	stmfd	sp!, {sl, fp, ip, lr, pc}
.LCFI26:
	sub	fp, ip, #4
.LCFI27:
	sub	sp, sp, #8
.LCFI28:
	ldr	sl, .L78
.L77:
	add	sl, pc, sl
	str	r0, [fp, #-20]
	mov	r3, r1
	strb	r3, [fp, #-24]
	.loc 1 241 0
	ldr	r3, [fp, #-20]
	ldr	r2, [r3, #32]
	ldr	r3, [fp, #-20]
	ldr	r3, [r3, #12]
	add	r2, r2, r3
	ldrb	r3, [fp, #-24]
	strb	r3, [r2, #0]
	.loc 1 242 0
	ldr	r3, [fp, #-20]
	ldr	r3, [r3, #12]
	add	r2, r3, #1
	ldr	r3, [fp, #-20]
	ldr	r3, [r3, #24]
	mov	r0, r2
	mov	r1, r3
	bl	__umodsi3(PLT)
	mov	r3, r0
	mov	r2, r3
	ldr	r3, [fp, #-20]
	ldr	r3, [r3, #8]
	cmp	r2, r3
	moveq	r3, #0
	movne	r3, #1
	mov	r0, r3
	ldr	r3, .L78+4
	add	r3, sl, r3
	mov	r1, r3
	bl	assert(PLT)
	.loc 1 243 0
	ldr	r3, [fp, #-20]
	ldr	r3, [r3, #12]
	add	r2, r3, #1
	ldr	r3, [fp, #-20]
	ldr	r3, [r3, #24]
	mov	r0, r2
	mov	r1, r3
	bl	__umodsi3(PLT)
	mov	r3, r0
	mov	r2, r3
	ldr	r3, [fp, #-20]
	str	r2, [r3, #12]
	.loc 1 244 0
	mov	r3, #0
	.loc 1 245 0
	mov	r0, r3
	sub	sp, fp, #16
	ldmfd	sp, {sl, fp, sp, pc}
.L79:
	.align	2
.L78:
	.word	_GLOBAL_OFFSET_TABLE_-(.L77+8)
	.word	.LC15(GOTOFF)
.LFE8:
	.size	robputc, .-robputc
	.align	2
	.global	robputcbusy
	.type	robputcbusy, %function
robputcbusy:
.LFB9:
	.loc 1 247 0
	@ args = 0, pretend = 0, frame = 12
	@ frame_needed = 1, uses_anonymous_args = 0
	mov	ip, sp
.LCFI29:
	stmfd	sp!, {fp, ip, lr, pc}
.LCFI30:
	sub	fp, ip, #4
.LCFI31:
	sub	sp, sp, #12
.LCFI32:
	mov	r3, r0
	strb	r3, [fp, #-24]
	.loc 1 250 0
	ldr	r3, .L84
	str	r3, [fp, #-16]
	.loc 1 251 0
	ldr	r3, .L84+4
	str	r3, [fp, #-20]
.L81:
	.loc 1 253 0
	ldr	r3, [fp, #-20]
	ldr	r3, [r3, #0]
	mov	r3, r3, lsr #5
	and	r3, r3, #1
	and	r3, r3, #255
	cmp	r3, #0
	bne	.L81
	.loc 1 254 0
	ldrb	r2, [fp, #-24]	@ zero_extendqisi2
	ldr	r3, [fp, #-16]
	str	r2, [r3, #0]
	.loc 1 255 0
	mov	r3, #0
	.loc 1 256 0
	mov	r0, r3
	sub	sp, fp, #12
	ldmfd	sp, {fp, sp, pc}
.L85:
	.align	2
.L84:
	.word	-2138243072
	.word	-2138243048
.LFE9:
	.size	robputcbusy, .-robputcbusy
	.align	2
	.global	c2x
	.type	c2x, %function
c2x:
.LFB10:
	.loc 1 258 0
	@ args = 0, pretend = 0, frame = 8
	@ frame_needed = 1, uses_anonymous_args = 0
	mov	ip, sp
.LCFI33:
	stmfd	sp!, {fp, ip, lr, pc}
.LCFI34:
	sub	fp, ip, #4
.LCFI35:
	sub	sp, sp, #8
.LCFI36:
	mov	r3, r0
	strb	r3, [fp, #-16]
	.loc 1 259 0
	ldrb	r3, [fp, #-16]	@ zero_extendqisi2
	cmp	r3, #9
	bhi	.L87
	ldrb	r3, [fp, #-16]	@ zero_extendqisi2
	add	r3, r3, #48
	and	r3, r3, #255
	and	r3, r3, #255
	str	r3, [fp, #-20]
	b	.L89
.L87:
	.loc 1 260 0
	ldrb	r3, [fp, #-16]	@ zero_extendqisi2
	add	r3, r3, #87
	and	r3, r3, #255
	and	r3, r3, #255
	str	r3, [fp, #-20]
.L89:
	ldr	r3, [fp, #-20]
	.loc 1 261 0
	mov	r0, r3
	sub	sp, fp, #12
	ldmfd	sp, {fp, sp, pc}
.LFE10:
	.size	c2x, .-c2x
	.align	2
	.global	robputx
	.type	robputx, %function
robputx:
.LFB11:
	.loc 1 263 0
	@ args = 0, pretend = 0, frame = 12
	@ frame_needed = 1, uses_anonymous_args = 0
	mov	ip, sp
.LCFI37:
	stmfd	sp!, {fp, ip, lr, pc}
.LCFI38:
	sub	fp, ip, #4
.LCFI39:
	sub	sp, sp, #12
.LCFI40:
	str	r0, [fp, #-20]
	mov	r3, r1
	strb	r3, [fp, #-24]
	.loc 1 266 0
	ldrb	r3, [fp, #-24]	@ zero_extendqisi2
	mov	r3, r3, lsr #4
	and	r3, r3, #255
	mov	r0, r3
	bl	c2x(PLT)
	mov	r3, r0
	strb	r3, [fp, #-14]
	.loc 1 267 0
	ldrb	r3, [fp, #-24]	@ zero_extendqisi2
	and	r3, r3, #15
	mov	r0, r3
	bl	c2x(PLT)
	mov	r3, r0
	strb	r3, [fp, #-13]
	.loc 1 268 0
	ldrb	r3, [fp, #-14]	@ zero_extendqisi2
	ldr	r0, [fp, #-20]
	mov	r1, r3
	bl	robputc(PLT)
	.loc 1 269 0
	ldrb	r3, [fp, #-13]	@ zero_extendqisi2
	ldr	r0, [fp, #-20]
	mov	r1, r3
	bl	robputc(PLT)
	mov	r3, r0
	.loc 1 270 0
	mov	r0, r3
	sub	sp, fp, #12
	ldmfd	sp, {fp, sp, pc}
.LFE11:
	.size	robputx, .-robputx
	.align	2
	.global	robputxbusy
	.type	robputxbusy, %function
robputxbusy:
.LFB12:
	.loc 1 272 0
	@ args = 0, pretend = 0, frame = 8
	@ frame_needed = 1, uses_anonymous_args = 0
	mov	ip, sp
.LCFI41:
	stmfd	sp!, {fp, ip, lr, pc}
.LCFI42:
	sub	fp, ip, #4
.LCFI43:
	sub	sp, sp, #8
.LCFI44:
	mov	r3, r0
	strb	r3, [fp, #-20]
	.loc 1 275 0
	ldrb	r3, [fp, #-20]	@ zero_extendqisi2
	mov	r3, r3, lsr #4
	and	r3, r3, #255
	mov	r0, r3
	bl	c2x(PLT)
	mov	r3, r0
	strb	r3, [fp, #-14]
	.loc 1 276 0
	ldrb	r3, [fp, #-20]	@ zero_extendqisi2
	and	r3, r3, #255
	and	r3, r3, #15
	mov	r0, r3
	bl	c2x(PLT)
	mov	r3, r0
	strb	r3, [fp, #-13]
	.loc 1 277 0
	ldrb	r3, [fp, #-14]	@ zero_extendqisi2
	mov	r0, r3
	bl	robputcbusy(PLT)
	.loc 1 278 0
	ldrb	r3, [fp, #-13]	@ zero_extendqisi2
	mov	r0, r3
	bl	robputcbusy(PLT)
	mov	r3, r0
	.loc 1 279 0
	mov	r0, r3
	sub	sp, fp, #12
	ldmfd	sp, {fp, sp, pc}
.LFE12:
	.size	robputxbusy, .-robputxbusy
	.align	2
	.global	robputr
	.type	robputr, %function
robputr:
.LFB13:
	.loc 1 281 0
	@ args = 0, pretend = 0, frame = 16
	@ frame_needed = 1, uses_anonymous_args = 0
	mov	ip, sp
.LCFI45:
	stmfd	sp!, {fp, ip, lr, pc}
.LCFI46:
	sub	fp, ip, #4
.LCFI47:
	sub	sp, sp, #16
.LCFI48:
	str	r0, [fp, #-24]
	str	r1, [fp, #-28]
	.loc 1 283 0
	sub	r3, fp, #28
	str	r3, [fp, #-16]
	.loc 1 285 0
	mov	r3, #3
	str	r3, [fp, #-20]
	b	.L96
.L97:
	ldr	r3, [fp, #-20]
	mov	r2, r3
	ldr	r3, [fp, #-16]
	add	r3, r2, r3
	ldrb	r3, [r3, #0]	@ zero_extendqisi2
	ldr	r0, [fp, #-24]
	mov	r1, r3
	bl	robputx(PLT)
	ldr	r3, [fp, #-20]
	sub	r3, r3, #1
	str	r3, [fp, #-20]
.L96:
	ldr	r3, [fp, #-20]
	cmp	r3, #0
	bge	.L97
	.loc 1 286 0
	ldr	r0, [fp, #-24]
	mov	r1, #32
	bl	robputc(PLT)
	mov	r3, r0
	.loc 1 287 0
	mov	r0, r3
	sub	sp, fp, #12
	ldmfd	sp, {fp, sp, pc}
.LFE13:
	.size	robputr, .-robputr
	.align	2
	.global	robputrbusy
	.type	robputrbusy, %function
robputrbusy:
.LFB14:
	.loc 1 289 0
	@ args = 0, pretend = 0, frame = 12
	@ frame_needed = 1, uses_anonymous_args = 0
	mov	ip, sp
.LCFI49:
	stmfd	sp!, {fp, ip, lr, pc}
.LCFI50:
	sub	fp, ip, #4
.LCFI51:
	sub	sp, sp, #12
.LCFI52:
	str	r0, [fp, #-24]
	.loc 1 291 0
	sub	r3, fp, #24
	str	r3, [fp, #-16]
	.loc 1 293 0
	mov	r3, #3
	str	r3, [fp, #-20]
	b	.L101
.L102:
	ldr	r3, [fp, #-20]
	mov	r2, r3
	ldr	r3, [fp, #-16]
	add	r3, r2, r3
	ldrb	r3, [r3, #0]	@ zero_extendqisi2
	mov	r0, r3
	bl	robputxbusy(PLT)
	ldr	r3, [fp, #-20]
	sub	r3, r3, #1
	str	r3, [fp, #-20]
.L101:
	ldr	r3, [fp, #-20]
	cmp	r3, #0
	bge	.L102
	.loc 1 294 0
	mov	r0, #32
	bl	robputcbusy(PLT)
	mov	r3, r0
	.loc 1 295 0
	mov	r0, r3
	sub	sp, fp, #12
	ldmfd	sp, {fp, sp, pc}
.LFE14:
	.size	robputrbusy, .-robputrbusy
	.align	2
	.global	robputstr
	.type	robputstr, %function
robputstr:
.LFB15:
	.loc 1 297 0
	@ args = 0, pretend = 0, frame = 12
	@ frame_needed = 1, uses_anonymous_args = 0
	mov	ip, sp
.LCFI53:
	stmfd	sp!, {fp, ip, lr, pc}
.LCFI54:
	sub	fp, ip, #4
.LCFI55:
	sub	sp, sp, #12
.LCFI56:
	str	r0, [fp, #-16]
	str	r1, [fp, #-20]
	.loc 1 298 0
	b	.L106
.L107:
	.loc 1 299 0
	ldr	r3, [fp, #-20]
	ldrb	r3, [r3, #0]	@ zero_extendqisi2
	ldr	r0, [fp, #-16]
	mov	r1, r3
	bl	robputc(PLT)
	mov	r3, r0
	cmp	r3, #0
	bge	.L108
	mvn	r3, #0
	str	r3, [fp, #-24]
	b	.L110
.L108:
	.loc 1 300 0
	ldr	r3, [fp, #-20]
	add	r3, r3, #1
	str	r3, [fp, #-20]
.L106:
	.loc 1 298 0
	ldr	r3, [fp, #-20]
	ldrb	r3, [r3, #0]	@ zero_extendqisi2
	cmp	r3, #0
	bne	.L107
	.loc 1 302 0
	mov	r3, #0
	str	r3, [fp, #-24]
.L110:
	ldr	r3, [fp, #-24]
	.loc 1 303 0
	mov	r0, r3
	sub	sp, fp, #12
	ldmfd	sp, {fp, sp, pc}
.LFE15:
	.size	robputstr, .-robputstr
	.align	2
	.global	robputstrbusy
	.type	robputstrbusy, %function
robputstrbusy:
.LFB16:
	.loc 1 305 0
	@ args = 0, pretend = 0, frame = 8
	@ frame_needed = 1, uses_anonymous_args = 0
	mov	ip, sp
.LCFI57:
	stmfd	sp!, {fp, ip, lr, pc}
.LCFI58:
	sub	fp, ip, #4
.LCFI59:
	sub	sp, sp, #8
.LCFI60:
	str	r0, [fp, #-16]
	.loc 1 306 0
	b	.L114
.L115:
	.loc 1 307 0
	ldr	r3, [fp, #-16]
	ldrb	r3, [r3, #0]	@ zero_extendqisi2
	mov	r0, r3
	bl	robputcbusy(PLT)
	mov	r3, r0
	cmp	r3, #0
	bge	.L116
	mvn	r3, #0
	str	r3, [fp, #-20]
	b	.L118
.L116:
	.loc 1 308 0
	ldr	r3, [fp, #-16]
	add	r3, r3, #1
	str	r3, [fp, #-16]
.L114:
	.loc 1 306 0
	ldr	r3, [fp, #-16]
	ldrb	r3, [r3, #0]	@ zero_extendqisi2
	cmp	r3, #0
	bne	.L115
	.loc 1 310 0
	mov	r3, #0
	str	r3, [fp, #-20]
.L118:
	ldr	r3, [fp, #-20]
	.loc 1 311 0
	mov	r0, r3
	sub	sp, fp, #12
	ldmfd	sp, {fp, sp, pc}
.LFE16:
	.size	robputstrbusy, .-robputstrbusy
	.align	2
	.global	robputw
	.type	robputw, %function
robputw:
.LFB17:
	.loc 1 313 0
	@ args = 0, pretend = 0, frame = 24
	@ frame_needed = 1, uses_anonymous_args = 0
	mov	ip, sp
.LCFI61:
	stmfd	sp!, {fp, ip, lr, pc}
.LCFI62:
	sub	fp, ip, #4
.LCFI63:
	sub	sp, sp, #24
.LCFI64:
	str	r0, [fp, #-24]
	str	r1, [fp, #-28]
	str	r3, [fp, #-36]
	mov	r3, r2
	strb	r3, [fp, #-32]
	.loc 1 315 0
	ldr	r3, [fp, #-36]
	str	r3, [fp, #-16]
	.loc 1 317 0
	b	.L122
.L123:
	ldr	r3, [fp, #-28]
	sub	r3, r3, #1
	str	r3, [fp, #-28]
.L122:
	ldr	r3, [fp, #-16]
	ldrb	r3, [r3, #0]	@ zero_extendqisi2
	cmp	r3, #0
	moveq	r3, #0
	movne	r3, #1
	and	r2, r3, #255
	ldr	r3, [fp, #-16]
	add	r3, r3, #1
	str	r3, [fp, #-16]
	eor	r3, r2, #1
	and	r3, r3, #255
	cmp	r3, #0
	bne	.L126
	ldr	r3, [fp, #-28]
	cmp	r3, #0
	bgt	.L123
	.loc 1 318 0
	b	.L126
.L127:
	ldrb	r3, [fp, #-32]	@ zero_extendqisi2
	ldr	r0, [fp, #-24]
	mov	r1, r3
	bl	robputc(PLT)
.L126:
	ldr	r3, [fp, #-28]
	cmp	r3, #0
	movle	r3, #0
	movgt	r3, #1
	and	r2, r3, #255
	ldr	r3, [fp, #-28]
	sub	r3, r3, #1
	str	r3, [fp, #-28]
	cmp	r2, #0
	bne	.L127
	.loc 1 319 0
	b	.L129
.L130:
	ldrb	r3, [fp, #-17]	@ zero_extendqisi2
	ldr	r0, [fp, #-24]
	mov	r1, r3
	bl	robputc(PLT)
.L129:
	ldr	r3, [fp, #-36]
	ldrb	r3, [r3, #0]
	strb	r3, [fp, #-17]
	ldrb	r3, [fp, #-17]	@ zero_extendqisi2
	cmp	r3, #0
	moveq	r3, #0
	movne	r3, #1
	and	r2, r3, #255
	ldr	r3, [fp, #-36]
	add	r3, r3, #1
	str	r3, [fp, #-36]
	cmp	r2, #0
	bne	.L130
	.loc 1 320 0
	sub	sp, fp, #12
	ldmfd	sp, {fp, sp, pc}
.LFE17:
	.size	robputw, .-robputw
	.align	2
	.global	robputwbusy
	.type	robputwbusy, %function
robputwbusy:
.LFB18:
	.loc 1 322 0
	@ args = 0, pretend = 0, frame = 20
	@ frame_needed = 1, uses_anonymous_args = 0
	mov	ip, sp
.LCFI65:
	stmfd	sp!, {fp, ip, lr, pc}
.LCFI66:
	sub	fp, ip, #4
.LCFI67:
	sub	sp, sp, #20
.LCFI68:
	str	r0, [fp, #-24]
	mov	r3, r1
	str	r2, [fp, #-32]
	strb	r3, [fp, #-28]
	.loc 1 324 0
	ldr	r3, [fp, #-32]
	str	r3, [fp, #-16]
	.loc 1 326 0
	b	.L134
.L135:
	ldr	r3, [fp, #-24]
	sub	r3, r3, #1
	str	r3, [fp, #-24]
.L134:
	ldr	r3, [fp, #-16]
	ldrb	r3, [r3, #0]	@ zero_extendqisi2
	cmp	r3, #0
	moveq	r3, #0
	movne	r3, #1
	and	r2, r3, #255
	ldr	r3, [fp, #-16]
	add	r3, r3, #1
	str	r3, [fp, #-16]
	eor	r3, r2, #1
	and	r3, r3, #255
	cmp	r3, #0
	bne	.L138
	ldr	r3, [fp, #-24]
	cmp	r3, #0
	bgt	.L135
	.loc 1 327 0
	b	.L138
.L139:
	ldrb	r3, [fp, #-28]	@ zero_extendqisi2
	mov	r0, r3
	bl	robputcbusy(PLT)
.L138:
	ldr	r3, [fp, #-24]
	cmp	r3, #0
	movle	r3, #0
	movgt	r3, #1
	and	r2, r3, #255
	ldr	r3, [fp, #-24]
	sub	r3, r3, #1
	str	r3, [fp, #-24]
	cmp	r2, #0
	bne	.L139
	.loc 1 328 0
	b	.L141
.L142:
	ldrb	r3, [fp, #-17]	@ zero_extendqisi2
	mov	r0, r3
	bl	robputcbusy(PLT)
.L141:
	ldr	r3, [fp, #-32]
	ldrb	r3, [r3, #0]
	strb	r3, [fp, #-17]
	ldrb	r3, [fp, #-17]	@ zero_extendqisi2
	cmp	r3, #0
	moveq	r3, #0
	movne	r3, #1
	and	r2, r3, #255
	ldr	r3, [fp, #-32]
	add	r3, r3, #1
	str	r3, [fp, #-32]
	cmp	r2, #0
	bne	.L142
	.loc 1 329 0
	sub	sp, fp, #12
	ldmfd	sp, {fp, sp, pc}
.LFE18:
	.size	robputwbusy, .-robputwbusy
	.align	2
	.global	robtakec
	.type	robtakec, %function
robtakec:
.LFB19:
	.loc 1 331 0
	@ args = 0, pretend = 0, frame = 12
	@ frame_needed = 1, uses_anonymous_args = 0
	mov	ip, sp
.LCFI69:
	stmfd	sp!, {fp, ip, lr, pc}
.LCFI70:
	sub	fp, ip, #4
.LCFI71:
	sub	sp, sp, #12
.LCFI72:
	str	r0, [fp, #-20]
	.loc 1 333 0
	ldr	r3, [fp, #-20]
	ldr	r2, [r3, #16]
	ldr	r3, [fp, #-20]
	ldr	r3, [r3, #20]
	cmp	r2, r3
	bne	.L146
	.loc 1 335 0
	mov	r3, #0
	str	r3, [fp, #-24]
	b	.L148
.L146:
	.loc 1 337 0
	ldr	r3, [fp, #-20]
	ldr	r2, [r3, #36]
	ldr	r3, [fp, #-20]
	ldr	r3, [r3, #16]
	add	r3, r2, r3
	ldrb	r3, [r3, #0]
	strb	r3, [fp, #-13]
	.loc 1 338 0
	ldr	r3, [fp, #-20]
	ldr	r3, [r3, #16]
	add	r2, r3, #1
	ldr	r3, [fp, #-20]
	ldr	r3, [r3, #28]
	mov	r0, r2
	mov	r1, r3
	bl	__umodsi3(PLT)
	mov	r3, r0
	mov	r2, r3
	ldr	r3, [fp, #-20]
	str	r2, [r3, #16]
	.loc 1 339 0
	ldrb	r3, [fp, #-13]	@ zero_extendqisi2
	str	r3, [fp, #-24]
.L148:
	ldr	r3, [fp, #-24]
	.loc 1 340 0
	mov	r0, r3
	sub	sp, fp, #12
	ldmfd	sp, {fp, sp, pc}
.LFE19:
	.size	robtakec, .-robtakec
	.section	.rodata
	.align	2
.LC16:
	.ascii	"Unknown Channel in getc.\000"
	.align	2
.LC17:
	.ascii	"The input buffer is full.\000"
	.text
	.align	2
	.global	robgetc
	.type	robgetc, %function
robgetc:
.LFB20:
	.loc 1 342 0
	@ args = 0, pretend = 0, frame = 16
	@ frame_needed = 1, uses_anonymous_args = 0
	mov	ip, sp
.LCFI73:
	stmfd	sp!, {sl, fp, ip, lr, pc}
.LCFI74:
	sub	fp, ip, #4
.LCFI75:
	sub	sp, sp, #16
.LCFI76:
	ldr	sl, .L159
.L158:
	add	sl, pc, sl
	str	r0, [fp, #-28]
	.loc 1 345 0
	ldr	r3, [fp, #-28]
	ldr	r3, [r3, #0]
	str	r3, [fp, #-32]
	ldr	r3, [fp, #-32]
	cmp	r3, #0
	beq	.L152
	ldr	r3, [fp, #-32]
	cmp	r3, #1
	beq	.L153
	b	.L151
.L152:
	.loc 1 347 0
	ldr	r3, .L159+4
	str	r3, [fp, #-24]
	.loc 1 348 0
	ldr	r3, .L159+8
	str	r3, [fp, #-20]
	.loc 1 349 0
	b	.L154
.L153:
	.loc 1 351 0
	ldr	r3, .L159+12
	str	r3, [fp, #-24]
	.loc 1 352 0
	ldr	r3, .L159+16
	str	r3, [fp, #-20]
	.loc 1 353 0
	b	.L154
.L151:
	.loc 1 355 0
	mov	r0, #0
	ldr	r3, .L159+20
	add	r3, sl, r3
	mov	r1, r3
	bl	assert(PLT)
.L154:
	.loc 1 359 0
	ldr	r3, [fp, #-24]
	ldr	r3, [r3, #0]
	mov	r3, r3, lsr #4
	and	r3, r3, #1
	cmp	r3, #0
	bne	.L157
	.loc 1 360 0
	ldr	r3, [fp, #-28]
	ldr	r2, [r3, #36]
	ldr	r3, [fp, #-28]
	ldr	r3, [r3, #20]
	add	r2, r2, r3
	ldr	r3, [fp, #-20]
	ldr	r3, [r3, #0]
	and	r3, r3, #255
	strb	r3, [r2, #0]
	.loc 1 361 0
	ldr	r3, [fp, #-28]
	ldr	r3, [r3, #20]
	add	r2, r3, #1
	ldr	r3, [fp, #-28]
	ldr	r3, [r3, #28]
	mov	r0, r2
	mov	r1, r3
	bl	__umodsi3(PLT)
	mov	r3, r0
	mov	r2, r3
	ldr	r3, [fp, #-28]
	ldr	r3, [r3, #16]
	cmp	r2, r3
	moveq	r3, #0
	movne	r3, #1
	mov	r0, r3
	ldr	r3, .L159+24
	add	r3, sl, r3
	mov	r1, r3
	bl	assert(PLT)
	.loc 1 362 0
	ldr	r3, [fp, #-28]
	ldr	r3, [r3, #20]
	add	r2, r3, #1
	ldr	r3, [fp, #-28]
	ldr	r3, [r3, #28]
	mov	r0, r2
	mov	r1, r3
	bl	__umodsi3(PLT)
	mov	r3, r0
	mov	r2, r3
	ldr	r3, [fp, #-28]
	str	r2, [r3, #20]
.L157:
	.loc 1 364 0
	sub	sp, fp, #16
	ldmfd	sp, {sl, fp, sp, pc}
.L160:
	.align	2
.L159:
	.word	_GLOBAL_OFFSET_TABLE_-(.L158+8)
	.word	-2138308584
	.word	-2138308608
	.word	-2138243048
	.word	-2138243072
	.word	.LC16(GOTOFF)
	.word	.LC17(GOTOFF)
.LFE20:
	.size	robgetc, .-robgetc
	.align	2
	.global	bwa2d
	.type	bwa2d, %function
bwa2d:
.LFB21:
	.loc 1 366 0
	@ args = 0, pretend = 0, frame = 8
	@ frame_needed = 1, uses_anonymous_args = 0
	mov	ip, sp
.LCFI77:
	stmfd	sp!, {fp, ip, lr, pc}
.LCFI78:
	sub	fp, ip, #4
.LCFI79:
	sub	sp, sp, #8
.LCFI80:
	mov	r3, r0
	strb	r3, [fp, #-16]
	.loc 1 367 0
	ldrb	r3, [fp, #-16]	@ zero_extendqisi2
	cmp	r3, #47
	bls	.L162
	ldrb	r3, [fp, #-16]	@ zero_extendqisi2
	cmp	r3, #57
	bhi	.L162
	ldrb	r3, [fp, #-16]	@ zero_extendqisi2
	sub	r3, r3, #48
	str	r3, [fp, #-20]
	b	.L165
.L162:
	.loc 1 368 0
	ldrb	r3, [fp, #-16]	@ zero_extendqisi2
	cmp	r3, #96
	bls	.L166
	ldrb	r3, [fp, #-16]	@ zero_extendqisi2
	cmp	r3, #102
	bhi	.L166
	ldrb	r3, [fp, #-16]	@ zero_extendqisi2
	sub	r3, r3, #87
	str	r3, [fp, #-20]
	b	.L165
.L166:
	.loc 1 369 0
	ldrb	r3, [fp, #-16]	@ zero_extendqisi2
	cmp	r3, #64
	bls	.L169
	ldrb	r3, [fp, #-16]	@ zero_extendqisi2
	cmp	r3, #70
	bhi	.L169
	ldrb	r3, [fp, #-16]	@ zero_extendqisi2
	sub	r3, r3, #55
	str	r3, [fp, #-20]
	b	.L165
.L169:
	.loc 1 370 0
	mvn	r3, #0
	str	r3, [fp, #-20]
.L165:
	ldr	r3, [fp, #-20]
	.loc 1 371 0
	mov	r0, r3
	sub	sp, fp, #12
	ldmfd	sp, {fp, sp, pc}
.LFE21:
	.size	bwa2d, .-bwa2d
	.align	2
	.global	bwa2i
	.type	bwa2i, %function
bwa2i:
.LFB22:
	.loc 1 373 0
	@ args = 0, pretend = 0, frame = 28
	@ frame_needed = 1, uses_anonymous_args = 0
	mov	ip, sp
.LCFI81:
	stmfd	sp!, {fp, ip, lr, pc}
.LCFI82:
	sub	fp, ip, #4
.LCFI83:
	sub	sp, sp, #28
.LCFI84:
	str	r1, [fp, #-32]
	str	r2, [fp, #-36]
	str	r3, [fp, #-40]
	mov	r3, r0
	strb	r3, [fp, #-28]
	.loc 1 377 0
	ldr	r3, [fp, #-32]
	ldr	r3, [r3, #0]
	str	r3, [fp, #-16]
	mov	r3, #0
	str	r3, [fp, #-24]
	.loc 1 378 0
	b	.L174
.L175:
	.loc 1 379 0
	ldr	r2, [fp, #-20]
	ldr	r3, [fp, #-36]
	cmp	r2, r3
	bgt	.L176
	.loc 1 380 0
	ldr	r2, [fp, #-24]
	ldr	r3, [fp, #-36]
	mul	r2, r3, r2
	ldr	r3, [fp, #-20]
	add	r3, r2, r3
	str	r3, [fp, #-24]
	.loc 1 381 0
	ldr	r3, [fp, #-16]
	ldrb	r3, [r3, #0]
	strb	r3, [fp, #-28]
	ldr	r3, [fp, #-16]
	add	r3, r3, #1
	str	r3, [fp, #-16]
.L174:
	.loc 1 378 0
	ldrb	r3, [fp, #-28]	@ zero_extendqisi2
	mov	r0, r3
	bl	bwa2d(PLT)
	mov	r3, r0
	str	r3, [fp, #-20]
	ldr	r3, [fp, #-20]
	cmp	r3, #0
	bge	.L175
.L176:
	.loc 1 383 0
	ldr	r2, [fp, #-32]
	ldr	r3, [fp, #-16]
	str	r3, [r2, #0]
	ldr	r2, [fp, #-40]
	ldr	r3, [fp, #-24]
	str	r3, [r2, #0]
	.loc 1 384 0
	ldrb	r3, [fp, #-28]	@ zero_extendqisi2
	.loc 1 385 0
	mov	r0, r3
	sub	sp, fp, #12
	ldmfd	sp, {fp, sp, pc}
.LFE22:
	.size	bwa2i, .-bwa2i
	.global	__udivsi3
	.align	2
	.global	bwui2a
	.type	bwui2a, %function
bwui2a:
.LFB23:
	.loc 1 387 0
	@ args = 0, pretend = 0, frame = 28
	@ frame_needed = 1, uses_anonymous_args = 0
	mov	ip, sp
.LCFI85:
	stmfd	sp!, {fp, ip, lr, pc}
.LCFI86:
	sub	fp, ip, #4
.LCFI87:
	sub	sp, sp, #28
.LCFI88:
	str	r0, [fp, #-28]
	str	r1, [fp, #-32]
	str	r2, [fp, #-36]
	.loc 1 388 0
	mov	r3, #0
	str	r3, [fp, #-24]
	.loc 1 390 0
	mov	r3, #1
	str	r3, [fp, #-16]
	.loc 1 392 0
	b	.L180
.L181:
	ldr	r3, [fp, #-16]
	ldr	r2, [fp, #-32]
	mul	r3, r2, r3
	str	r3, [fp, #-16]
.L180:
	ldr	r0, [fp, #-28]
	ldr	r1, [fp, #-16]
	bl	__udivsi3(PLT)
	mov	r3, r0
	mov	r2, r3
	ldr	r3, [fp, #-32]
	cmp	r2, r3
	bcs	.L181
	.loc 1 393 0
	b	.L193
.L184:
	.loc 1 394 0
	ldr	r0, [fp, #-28]
	ldr	r1, [fp, #-16]
	bl	__udivsi3(PLT)
	mov	r3, r0
	str	r3, [fp, #-20]
	.loc 1 395 0
	ldr	r3, [fp, #-28]
	mov	r0, r3
	ldr	r1, [fp, #-16]
	bl	__umodsi3(PLT)
	mov	r3, r0
	str	r3, [fp, #-28]
	.loc 1 396 0
	ldr	r0, [fp, #-16]
	ldr	r1, [fp, #-32]
	bl	__udivsi3(PLT)
	mov	r3, r0
	str	r3, [fp, #-16]
	.loc 1 397 0
	ldr	r3, [fp, #-24]
	cmp	r3, #0
	bne	.L185
	ldr	r3, [fp, #-20]
	cmp	r3, #0
	bgt	.L185
	ldr	r3, [fp, #-16]
	cmp	r3, #0
	bne	.L183
.L185:
	.loc 1 398 0
	ldr	r3, [fp, #-20]
	cmp	r3, #9
	bgt	.L188
	mov	r1, #48
	str	r1, [fp, #-40]
	b	.L190
.L188:
	mov	r3, #87
	str	r3, [fp, #-40]
.L190:
	ldr	r3, [fp, #-20]
	and	r3, r3, #255
	ldr	r1, [fp, #-40]
	mov	r2, r1
	add	r3, r2, r3
	and	r3, r3, #255
	and	r3, r3, #255
	ldr	r2, [fp, #-36]
	strb	r3, [r2, #0]
	ldr	r3, [fp, #-36]
	add	r3, r3, #1
	str	r3, [fp, #-36]
	.loc 1 399 0
	ldr	r3, [fp, #-24]
	add	r3, r3, #1
	str	r3, [fp, #-24]
.L183:
.L193:
	.loc 1 393 0
	ldr	r3, [fp, #-16]
	cmp	r3, #0
	bne	.L184
	.loc 1 402 0
	ldr	r3, [fp, #-36]
	mov	r2, #0
	strb	r2, [r3, #0]
	.loc 1 403 0
	sub	sp, fp, #12
	ldmfd	sp, {fp, sp, pc}
.LFE23:
	.size	bwui2a, .-bwui2a
	.align	2
	.global	bwi2a
	.type	bwi2a, %function
bwi2a:
.LFB24:
	.loc 1 405 0
	@ args = 0, pretend = 0, frame = 8
	@ frame_needed = 1, uses_anonymous_args = 0
	mov	ip, sp
.LCFI89:
	stmfd	sp!, {fp, ip, lr, pc}
.LCFI90:
	sub	fp, ip, #4
.LCFI91:
	sub	sp, sp, #8
.LCFI92:
	str	r0, [fp, #-16]
	str	r1, [fp, #-20]
	.loc 1 406 0
	ldr	r3, [fp, #-16]
	cmp	r3, #0
	bge	.L195
	.loc 1 407 0
	ldr	r3, [fp, #-16]
	rsb	r3, r3, #0
	str	r3, [fp, #-16]
	.loc 1 408 0
	ldr	r2, [fp, #-20]
	mov	r3, #45
	strb	r3, [r2, #0]
	ldr	r3, [fp, #-20]
	add	r3, r3, #1
	str	r3, [fp, #-20]
.L195:
	.loc 1 410 0
	ldr	r3, [fp, #-16]
	mov	r0, r3
	mov	r1, #10
	ldr	r2, [fp, #-20]
	bl	bwui2a(PLT)
	.loc 1 411 0
	sub	sp, fp, #12
	ldmfd	sp, {fp, sp, pc}
.LFE24:
	.size	bwi2a, .-bwi2a
	.align	2
	.global	bwformat
	.type	bwformat, %function
bwformat:
.LFB25:
	.loc 1 413 0
	@ args = 0, pretend = 0, frame = 40
	@ frame_needed = 1, uses_anonymous_args = 0
	mov	ip, sp
.LCFI93:
	stmfd	sp!, {fp, ip, lr, pc}
.LCFI94:
	sub	fp, ip, #4
.LCFI95:
	sub	sp, sp, #40
.LCFI96:
	str	r0, [fp, #-36]
	str	r1, [fp, #-40]
	str	r2, [fp, #-44]
	.loc 1 419 0
	b	.L217
.L200:
	.loc 1 420 0
	ldrb	r3, [fp, #-14]	@ zero_extendqisi2
	cmp	r3, #37
	beq	.L201
	.loc 1 421 0
	ldrb	r3, [fp, #-14]	@ zero_extendqisi2
	ldr	r0, [fp, #-36]
	mov	r1, r3
	bl	robputc(PLT)
	b	.L199
.L201:
	.loc 1 423 0
	mov	r3, #0
	strb	r3, [fp, #-13]
	mov	r3, #0
	str	r3, [fp, #-32]
	.loc 1 424 0
	ldr	r2, [fp, #-40]
	ldrb	r3, [r2, #0]
	strb	r3, [fp, #-14]
	add	r3, r2, #1
	str	r3, [fp, #-40]
	.loc 1 425 0
	ldrb	r3, [fp, #-14]	@ zero_extendqisi2
	str	r3, [fp, #-52]
	ldr	r3, [fp, #-52]
	cmp	r3, #48
	beq	.L204
	ldr	r3, [fp, #-52]
	cmp	r3, #48
	blt	.L203
	ldr	r3, [fp, #-52]
	cmp	r3, #57
	bgt	.L203
	b	.L205
.L204:
	.loc 1 427 0
	mov	r3, #1
	strb	r3, [fp, #-13]
	ldr	r2, [fp, #-40]
	ldrb	r3, [r2, #0]
	strb	r3, [fp, #-14]
	add	r3, r2, #1
	str	r3, [fp, #-40]
	.loc 1 428 0
	b	.L203
.L205:
	.loc 1 438 0
	ldrb	r3, [fp, #-14]	@ zero_extendqisi2
	sub	r2, fp, #40
	sub	ip, fp, #32
	mov	r0, r3
	mov	r1, r2
	mov	r2, #10
	mov	r3, ip
	bl	bwa2i(PLT)
	mov	r3, r0
	strb	r3, [fp, #-14]
.L203:
	.loc 1 441 0
	ldrb	r3, [fp, #-14]	@ zero_extendqisi2
	str	r3, [fp, #-48]
	ldr	r3, [fp, #-48]
	cmp	r3, #115
	beq	.L210
	ldr	r3, [fp, #-48]
	cmp	r3, #115
	bgt	.L213
	ldr	r3, [fp, #-48]
	cmp	r3, #99
	beq	.L208
	ldr	r3, [fp, #-48]
	cmp	r3, #99
	bgt	.L214
	ldr	r3, [fp, #-48]
	cmp	r3, #0
	beq	.L216
	ldr	r3, [fp, #-48]
	cmp	r3, #37
	beq	.L207
	b	.L199
.L214:
	ldr	r3, [fp, #-48]
	cmp	r3, #100
	beq	.L209
	b	.L199
.L213:
	ldr	r3, [fp, #-48]
	cmp	r3, #117
	beq	.L211
	ldr	r3, [fp, #-48]
	cmp	r3, #120
	beq	.L212
	b	.L199
.L208:
	.loc 1 444 0
	ldr	r3, [fp, #-44]
	add	r3, r3, #4
	str	r3, [fp, #-44]
	ldr	r3, [fp, #-44]
	sub	r3, r3, #4
	ldrb	r3, [r3, #0]	@ zero_extendqisi2
	ldr	r0, [fp, #-36]
	mov	r1, r3
	bl	robputc(PLT)
	.loc 1 445 0
	b	.L199
.L210:
	.loc 1 447 0
	ldr	r2, [fp, #-32]
	ldr	r3, [fp, #-44]
	add	r3, r3, #4
	str	r3, [fp, #-44]
	ldr	r3, [fp, #-44]
	sub	r3, r3, #4
	ldr	r3, [r3, #0]
	ldr	r0, [fp, #-36]
	mov	r1, r2
	mov	r2, #0
	bl	robputw(PLT)
	.loc 1 448 0
	b	.L199
.L211:
	.loc 1 450 0
	ldr	r3, [fp, #-44]
	add	r3, r3, #4
	str	r3, [fp, #-44]
	ldr	r3, [fp, #-44]
	sub	r3, r3, #4
	ldr	r3, [r3, #0]
	sub	r2, fp, #26
	mov	r0, r3
	mov	r1, #10
	bl	bwui2a(PLT)
	.loc 1 451 0
	ldr	r3, [fp, #-32]
	ldrb	r2, [fp, #-13]	@ zero_extendqisi2
	sub	ip, fp, #26
	ldr	r0, [fp, #-36]
	mov	r1, r3
	mov	r3, ip
	bl	robputw(PLT)
	.loc 1 452 0
	b	.L199
.L209:
	.loc 1 454 0
	ldr	r3, [fp, #-44]
	add	r3, r3, #4
	str	r3, [fp, #-44]
	ldr	r3, [fp, #-44]
	sub	r3, r3, #4
	ldr	r3, [r3, #0]
	sub	r2, fp, #26
	mov	r0, r3
	mov	r1, r2
	bl	bwi2a(PLT)
	.loc 1 455 0
	ldr	r3, [fp, #-32]
	ldrb	r2, [fp, #-13]	@ zero_extendqisi2
	sub	ip, fp, #26
	ldr	r0, [fp, #-36]
	mov	r1, r3
	mov	r3, ip
	bl	robputw(PLT)
	.loc 1 456 0
	b	.L199
.L212:
	.loc 1 458 0
	ldr	r3, [fp, #-44]
	add	r3, r3, #4
	str	r3, [fp, #-44]
	ldr	r3, [fp, #-44]
	sub	r3, r3, #4
	ldr	r3, [r3, #0]
	sub	r2, fp, #26
	mov	r0, r3
	mov	r1, #16
	bl	bwui2a(PLT)
	.loc 1 459 0
	ldr	r3, [fp, #-32]
	ldrb	r2, [fp, #-13]	@ zero_extendqisi2
	sub	ip, fp, #26
	ldr	r0, [fp, #-36]
	mov	r1, r3
	mov	r3, ip
	bl	robputw(PLT)
	.loc 1 460 0
	b	.L199
.L207:
	.loc 1 462 0
	ldrb	r3, [fp, #-14]	@ zero_extendqisi2
	ldr	r0, [fp, #-36]
	mov	r1, r3
	bl	robputc(PLT)
.L199:
.L217:
	.loc 1 419 0
	ldr	r1, [fp, #-40]
	ldrb	r3, [r1, #0]
	strb	r3, [fp, #-14]
	ldrb	r3, [fp, #-14]	@ zero_extendqisi2
	cmp	r3, #0
	moveq	r3, #0
	movne	r3, #1
	and	r2, r3, #255
	add	r3, r1, #1
	str	r3, [fp, #-40]
	cmp	r2, #0
	bne	.L200
.L216:
	.loc 1 467 0
	sub	sp, fp, #12
	ldmfd	sp, {fp, sp, pc}
.LFE25:
	.size	bwformat, .-bwformat
	.align	2
	.global	bwformatbusy
	.type	bwformatbusy, %function
bwformatbusy:
.LFB26:
	.loc 1 469 0
	@ args = 0, pretend = 0, frame = 36
	@ frame_needed = 1, uses_anonymous_args = 0
	mov	ip, sp
.LCFI97:
	stmfd	sp!, {fp, ip, lr, pc}
.LCFI98:
	sub	fp, ip, #4
.LCFI99:
	sub	sp, sp, #36
.LCFI100:
	str	r0, [fp, #-36]
	str	r1, [fp, #-40]
	.loc 1 475 0
	b	.L237
.L220:
	.loc 1 476 0
	ldrb	r3, [fp, #-14]	@ zero_extendqisi2
	cmp	r3, #37
	beq	.L221
	.loc 1 477 0
	ldrb	r3, [fp, #-14]	@ zero_extendqisi2
	mov	r0, r3
	bl	robputcbusy(PLT)
	b	.L219
.L221:
	.loc 1 479 0
	mov	r3, #0
	strb	r3, [fp, #-13]
	mov	r3, #0
	str	r3, [fp, #-32]
	.loc 1 480 0
	ldr	r2, [fp, #-36]
	ldrb	r3, [r2, #0]
	strb	r3, [fp, #-14]
	add	r3, r2, #1
	str	r3, [fp, #-36]
	.loc 1 481 0
	ldrb	r3, [fp, #-14]	@ zero_extendqisi2
	str	r3, [fp, #-48]
	ldr	r3, [fp, #-48]
	cmp	r3, #48
	beq	.L224
	ldr	r3, [fp, #-48]
	cmp	r3, #48
	blt	.L223
	ldr	r3, [fp, #-48]
	cmp	r3, #57
	bgt	.L223
	b	.L225
.L224:
	.loc 1 483 0
	mov	r3, #1
	strb	r3, [fp, #-13]
	ldr	r2, [fp, #-36]
	ldrb	r3, [r2, #0]
	strb	r3, [fp, #-14]
	add	r3, r2, #1
	str	r3, [fp, #-36]
	.loc 1 484 0
	b	.L223
.L225:
	.loc 1 494 0
	ldrb	r3, [fp, #-14]	@ zero_extendqisi2
	sub	r2, fp, #36
	sub	ip, fp, #32
	mov	r0, r3
	mov	r1, r2
	mov	r2, #10
	mov	r3, ip
	bl	bwa2i(PLT)
	mov	r3, r0
	strb	r3, [fp, #-14]
.L223:
	.loc 1 497 0
	ldrb	r3, [fp, #-14]	@ zero_extendqisi2
	str	r3, [fp, #-44]
	ldr	r3, [fp, #-44]
	cmp	r3, #115
	beq	.L230
	ldr	r3, [fp, #-44]
	cmp	r3, #115
	bgt	.L233
	ldr	r3, [fp, #-44]
	cmp	r3, #99
	beq	.L228
	ldr	r3, [fp, #-44]
	cmp	r3, #99
	bgt	.L234
	ldr	r3, [fp, #-44]
	cmp	r3, #0
	beq	.L236
	ldr	r3, [fp, #-44]
	cmp	r3, #37
	beq	.L227
	b	.L219
.L234:
	ldr	r3, [fp, #-44]
	cmp	r3, #100
	beq	.L229
	b	.L219
.L233:
	ldr	r3, [fp, #-44]
	cmp	r3, #117
	beq	.L231
	ldr	r3, [fp, #-44]
	cmp	r3, #120
	beq	.L232
	b	.L219
.L228:
	.loc 1 500 0
	ldr	r3, [fp, #-40]
	add	r3, r3, #4
	str	r3, [fp, #-40]
	ldr	r3, [fp, #-40]
	sub	r3, r3, #4
	ldrb	r3, [r3, #0]	@ zero_extendqisi2
	mov	r0, r3
	bl	robputcbusy(PLT)
	.loc 1 501 0
	b	.L219
.L230:
	.loc 1 503 0
	ldr	r2, [fp, #-32]
	ldr	r3, [fp, #-40]
	add	r3, r3, #4
	str	r3, [fp, #-40]
	ldr	r3, [fp, #-40]
	sub	r3, r3, #4
	ldr	r3, [r3, #0]
	mov	r0, r2
	mov	r1, #0
	mov	r2, r3
	bl	robputwbusy(PLT)
	.loc 1 504 0
	b	.L219
.L231:
	.loc 1 506 0
	ldr	r3, [fp, #-40]
	add	r3, r3, #4
	str	r3, [fp, #-40]
	ldr	r3, [fp, #-40]
	sub	r3, r3, #4
	ldr	r3, [r3, #0]
	sub	r2, fp, #26
	mov	r0, r3
	mov	r1, #10
	bl	bwui2a(PLT)
	.loc 1 507 0
	ldr	r3, [fp, #-32]
	ldrb	r2, [fp, #-13]	@ zero_extendqisi2
	sub	ip, fp, #26
	mov	r0, r3
	mov	r1, r2
	mov	r2, ip
	bl	robputwbusy(PLT)
	.loc 1 508 0
	b	.L219
.L229:
	.loc 1 510 0
	ldr	r3, [fp, #-40]
	add	r3, r3, #4
	str	r3, [fp, #-40]
	ldr	r3, [fp, #-40]
	sub	r3, r3, #4
	ldr	r3, [r3, #0]
	sub	r2, fp, #26
	mov	r0, r3
	mov	r1, r2
	bl	bwi2a(PLT)
	.loc 1 511 0
	ldr	r3, [fp, #-32]
	ldrb	r2, [fp, #-13]	@ zero_extendqisi2
	sub	ip, fp, #26
	mov	r0, r3
	mov	r1, r2
	mov	r2, ip
	bl	robputwbusy(PLT)
	.loc 1 512 0
	b	.L219
.L232:
	.loc 1 514 0
	ldr	r3, [fp, #-40]
	add	r3, r3, #4
	str	r3, [fp, #-40]
	ldr	r3, [fp, #-40]
	sub	r3, r3, #4
	ldr	r3, [r3, #0]
	sub	r2, fp, #26
	mov	r0, r3
	mov	r1, #16
	bl	bwui2a(PLT)
	.loc 1 515 0
	ldr	r3, [fp, #-32]
	ldrb	r2, [fp, #-13]	@ zero_extendqisi2
	sub	ip, fp, #26
	mov	r0, r3
	mov	r1, r2
	mov	r2, ip
	bl	robputwbusy(PLT)
	.loc 1 516 0
	b	.L219
.L227:
	.loc 1 518 0
	ldrb	r3, [fp, #-14]	@ zero_extendqisi2
	mov	r0, r3
	bl	robputcbusy(PLT)
.L219:
.L237:
	.loc 1 475 0
	ldr	r1, [fp, #-36]
	ldrb	r3, [r1, #0]
	strb	r3, [fp, #-14]
	ldrb	r3, [fp, #-14]	@ zero_extendqisi2
	cmp	r3, #0
	moveq	r3, #0
	movne	r3, #1
	and	r2, r3, #255
	add	r3, r1, #1
	str	r3, [fp, #-36]
	cmp	r2, #0
	bne	.L220
.L236:
	.loc 1 523 0
	sub	sp, fp, #12
	ldmfd	sp, {fp, sp, pc}
.LFE26:
	.size	bwformatbusy, .-bwformatbusy
	.align	2
	.global	robprintf
	.type	robprintf, %function
robprintf:
.LFB27:
	.loc 1 525 0
	@ args = 4, pretend = 12, frame = 8
	@ frame_needed = 1, uses_anonymous_args = 1
	mov	ip, sp
.LCFI101:
	stmfd	sp!, {r1, r2, r3}
.LCFI102:
	stmfd	sp!, {fp, ip, lr, pc}
.LCFI103:
	sub	fp, ip, #16
.LCFI104:
	sub	sp, sp, #8
.LCFI105:
	str	r0, [fp, #-20]
	.loc 1 528 0
	add	r3, fp, #8
	str	r3, [fp, #-16]
	.loc 1 529 0
	ldr	r0, [fp, #-20]
	ldr	r1, [fp, #4]
	ldr	r2, [fp, #-16]
	bl	bwformat(PLT)
	.loc 1 531 0
	sub	sp, fp, #12
	ldmfd	sp, {fp, sp, pc}
.LFE27:
	.size	robprintf, .-robprintf
	.align	2
	.global	robprintfbusy
	.type	robprintfbusy, %function
robprintfbusy:
.LFB28:
	.loc 1 533 0
	@ args = 4, pretend = 16, frame = 4
	@ frame_needed = 1, uses_anonymous_args = 1
	mov	ip, sp
.LCFI106:
	stmfd	sp!, {r0, r1, r2, r3}
.LCFI107:
	stmfd	sp!, {fp, ip, lr, pc}
.LCFI108:
	sub	fp, ip, #20
.LCFI109:
	sub	sp, sp, #4
.LCFI110:
	.loc 1 536 0
	add	r3, fp, #8
	str	r3, [fp, #-16]
	.loc 1 537 0
	ldr	r0, [fp, #4]
	ldr	r1, [fp, #-16]
	bl	bwformatbusy(PLT)
	.loc 1 539 0
	sub	sp, fp, #12
	ldmfd	sp, {fp, sp, pc}
.LFE28:
	.size	robprintfbusy, .-robprintfbusy
	.align	2
	.global	robgetcbusy
	.type	robgetcbusy, %function
robgetcbusy:
.LFB29:
	.loc 1 541 0
	@ args = 0, pretend = 0, frame = 24
	@ frame_needed = 1, uses_anonymous_args = 0
	mov	ip, sp
.LCFI111:
	stmfd	sp!, {fp, ip, lr, pc}
.LCFI112:
	sub	fp, ip, #4
.LCFI113:
	sub	sp, sp, #24
.LCFI114:
	str	r0, [fp, #-28]
	.loc 1 545 0
	ldr	r3, [fp, #-28]
	str	r3, [fp, #-36]
	ldr	r3, [fp, #-36]
	cmp	r3, #0
	beq	.L244
	ldr	r3, [fp, #-36]
	cmp	r3, #1
	beq	.L245
	b	.L243
.L244:
	.loc 1 547 0
	ldr	r3, .L250
	str	r3, [fp, #-24]
	.loc 1 548 0
	ldr	r3, .L250+4
	str	r3, [fp, #-20]
	.loc 1 549 0
	b	.L246
.L245:
	.loc 1 551 0
	ldr	r3, .L250+8
	str	r3, [fp, #-24]
	.loc 1 552 0
	ldr	r3, .L250+12
	str	r3, [fp, #-20]
	.loc 1 553 0
	b	.L246
.L243:
	.loc 1 555 0
	mov	r3, #255
	str	r3, [fp, #-32]
	b	.L247
.L246:
	.loc 1 558 0
	ldr	r3, [fp, #-24]
	ldr	r3, [r3, #0]
	mov	r3, r3, lsr #6
	and	r3, r3, #1
	cmp	r3, #0
	beq	.L246
	.loc 1 559 0
	ldr	r3, [fp, #-20]
	ldr	r3, [r3, #0]
	strb	r3, [fp, #-13]
	.loc 1 560 0
	ldrb	r3, [fp, #-13]	@ zero_extendqisi2
	str	r3, [fp, #-32]
.L247:
	ldr	r3, [fp, #-32]
	.loc 1 561 0
	mov	r0, r3
	sub	sp, fp, #12
	ldmfd	sp, {fp, sp, pc}
.L251:
	.align	2
.L250:
	.word	-2138308584
	.word	-2138308608
	.word	-2138243048
	.word	-2138243072
.LFE29:
	.size	robgetcbusy, .-robgetcbusy
	.align	2
	.global	set_led
	.type	set_led, %function
set_led:
.LFB30:
	.loc 1 563 0
	@ args = 0, pretend = 0, frame = 8
	@ frame_needed = 1, uses_anonymous_args = 0
	mov	ip, sp
.LCFI115:
	stmfd	sp!, {fp, ip, lr, pc}
.LCFI116:
	sub	fp, ip, #4
.LCFI117:
	sub	sp, sp, #8
.LCFI118:
	str	r0, [fp, #-20]
	.loc 1 564 0
	ldr	r3, .L254
	str	r3, [fp, #-16]
	.loc 1 565 0
	ldr	r2, [fp, #-16]
	ldr	r3, [fp, #-20]
	str	r3, [r2, #0]
	.loc 1 566 0
	sub	sp, fp, #12
	ldmfd	sp, {fp, sp, pc}
.L255:
	.align	2
.L254:
	.word	-2138832864
.LFE30:
	.size	set_led, .-set_led
	.section	.rodata
	.align	2
.LC18:
	.ascii	"robatoi running too long\000"
	.text
	.align	2
	.global	robatoi
	.type	robatoi, %function
robatoi:
.LFB31:
	.loc 1 568 0
	@ args = 0, pretend = 0, frame = 24
	@ frame_needed = 1, uses_anonymous_args = 0
	mov	ip, sp
.LCFI119:
	stmfd	sp!, {sl, fp, ip, lr, pc}
.LCFI120:
	sub	fp, ip, #4
.LCFI121:
	sub	sp, sp, #24
.LCFI122:
	ldr	sl, .L264
.L263:
	add	sl, pc, sl
	str	r0, [fp, #-36]
	.loc 1 569 0
	mov	r3, #0
	str	r3, [fp, #-32]
	.loc 1 570 0
	mov	r3, #1
	strh	r3, [fp, #-26]	@ movhi
	.loc 1 571 0
	mov	r3, #0
	str	r3, [fp, #-24]
.L257:
.LBB3:
	.loc 1 573 0
	ldr	r3, [fp, #-24]
	mov	r2, r3
	ldr	r3, [fp, #-36]
	add	r3, r2, r3
	ldrb	r3, [r3, #0]	@ zero_extendqisi2
	mov	r0, r3
	bl	bwa2d(PLT)
	mov	r3, r0
	str	r3, [fp, #-20]
	.loc 1 575 0
	ldr	r3, [fp, #-20]
	cmn	r3, #1
	beq	.L258
	.loc 1 576 0
	ldr	r2, [fp, #-32]
	mov	r3, r2
	mov	r3, r3, asl #2
	add	r3, r3, r2
	mov	r3, r3, asl #1
	mov	r2, r3
	ldr	r3, [fp, #-20]
	add	r3, r2, r3
	str	r3, [fp, #-32]
	.loc 1 577 0
	mov	r3, #0
	strh	r3, [fp, #-26]	@ movhi
	b	.L260
.L258:
	.loc 1 578 0
	ldrsh	r3, [fp, #-26]
	cmp	r3, #0
	bne	.L260
	.loc 1 579 0
	ldr	r3, [fp, #-32]
	str	r3, [fp, #-40]
	b	.L256
.L260:
	.loc 1 581 0
	ldr	r3, [fp, #-24]
	add	r3, r3, #1
	str	r3, [fp, #-24]
	.loc 1 583 0
	ldr	r3, [fp, #-24]
	cmp	r3, #99
	movgt	r3, #0
	movle	r3, #1
	mov	r0, r3
	ldr	r3, .L264+4
	add	r3, sl, r3
	mov	r1, r3
	bl	assert(PLT)
	.loc 1 584 0
	b	.L257
.L256:
.LBE3:
	.loc 1 585 0
	ldr	r0, [fp, #-40]
	sub	sp, fp, #16
	ldmfd	sp, {sl, fp, sp, pc}
.L265:
	.align	2
.L264:
	.word	_GLOBAL_OFFSET_TABLE_-(.L263+8)
	.word	.LC18(GOTOFF)
.LFE31:
	.size	robatoi, .-robatoi
	.section	.rodata
	.align	2
.LC19:
	.ascii	"rob_next_whitespace running too long\000"
	.text
	.align	2
	.global	rob_next_whitespace
	.type	rob_next_whitespace, %function
rob_next_whitespace:
.LFB32:
	.loc 1 587 0
	@ args = 0, pretend = 0, frame = 16
	@ frame_needed = 1, uses_anonymous_args = 0
	mov	ip, sp
.LCFI123:
	stmfd	sp!, {sl, fp, ip, lr, pc}
.LCFI124:
	sub	fp, ip, #4
.LCFI125:
	sub	sp, sp, #16
.LCFI126:
	ldr	sl, .L278
.L277:
	add	sl, pc, sl
	str	r0, [fp, #-28]
	.loc 1 588 0
	mov	r3, #0
	str	r3, [fp, #-24]
	.loc 1 589 0
	mov	r3, #0
	strh	r3, [fp, #-18]	@ movhi
.L267:
	.loc 1 592 0
	ldr	r3, [fp, #-24]
	mov	r2, r3
	ldr	r3, [fp, #-28]
	add	r3, r2, r3
	ldrb	r3, [r3, #0]	@ zero_extendqisi2
	cmp	r3, #0
	bne	.L268
	.loc 1 593 0
	ldr	r3, [fp, #-24]
	str	r3, [fp, #-32]
	b	.L270
.L268:
	.loc 1 595 0
	ldr	r3, [fp, #-24]
	mov	r2, r3
	ldr	r3, [fp, #-28]
	add	r3, r2, r3
	ldrb	r3, [r3, #0]	@ zero_extendqisi2
	cmp	r3, #32
	bne	.L271
	.loc 1 596 0
	mov	r3, #1
	strh	r3, [fp, #-18]	@ movhi
.L271:
	.loc 1 598 0
	ldrsh	r3, [fp, #-18]
	cmp	r3, #0
	beq	.L273
	ldr	r3, [fp, #-24]
	mov	r2, r3
	ldr	r3, [fp, #-28]
	add	r3, r2, r3
	ldrb	r3, [r3, #0]	@ zero_extendqisi2
	cmp	r3, #32
	beq	.L273
	.loc 1 599 0
	ldr	r3, [fp, #-24]
	str	r3, [fp, #-32]
	b	.L270
.L273:
	.loc 1 601 0
	ldr	r3, [fp, #-24]
	add	r3, r3, #1
	str	r3, [fp, #-24]
	.loc 1 603 0
	ldr	r3, [fp, #-24]
	cmp	r3, #99
	movgt	r3, #0
	movle	r3, #1
	mov	r0, r3
	ldr	r3, .L278+4
	add	r3, sl, r3
	mov	r1, r3
	bl	assert(PLT)
	.loc 1 604 0
	b	.L267
.L270:
	ldr	r3, [fp, #-32]
	.loc 1 605 0
	mov	r0, r3
	sub	sp, fp, #16
	ldmfd	sp, {sl, fp, sp, pc}
.L279:
	.align	2
.L278:
	.word	_GLOBAL_OFFSET_TABLE_-(.L277+8)
	.word	.LC19(GOTOFF)
.LFE32:
	.size	rob_next_whitespace, .-rob_next_whitespace
	.align	2
	.global	rob_zero_pad
	.type	rob_zero_pad, %function
rob_zero_pad:
.LFB33:
	.loc 1 607 0
	@ args = 0, pretend = 0, frame = 8
	@ frame_needed = 1, uses_anonymous_args = 0
	mov	ip, sp
.LCFI127:
	stmfd	sp!, {fp, ip, lr, pc}
.LCFI128:
	sub	fp, ip, #4
.LCFI129:
	sub	sp, sp, #8
.LCFI130:
	str	r0, [fp, #-16]
	str	r1, [fp, #-20]
	.loc 1 608 0
	ldr	r3, [fp, #-16]
	cmp	r3, #9
	bgt	.L281
	.loc 1 609 0
	ldr	r2, [fp, #-20]
	mov	r3, #48
	strb	r3, [r2, #0]
	.loc 1 610 0
	ldr	r3, [fp, #-20]
	add	r3, r3, #1
	ldr	r0, [fp, #-16]
	mov	r1, r3
	bl	bwi2a(PLT)
	b	.L284
.L281:
	.loc 1 612 0
	ldr	r0, [fp, #-16]
	ldr	r1, [fp, #-20]
	bl	bwi2a(PLT)
.L284:
	.loc 1 614 0
	sub	sp, fp, #12
	ldmfd	sp, {fp, sp, pc}
.LFE33:
	.size	rob_zero_pad, .-rob_zero_pad
	.section	.debug_frame,"",%progbits
.Lframe0:
	.4byte	.LECIE0-.LSCIE0
.LSCIE0:
	.4byte	0xffffffff
	.byte	0x1
	.ascii	"\000"
	.uleb128 0x1
	.sleb128 -4
	.byte	0xe
	.byte	0xc
	.uleb128 0xd
	.uleb128 0x0
	.align	2
.LECIE0:
.LSFDE0:
	.4byte	.LEFDE0-.LASFDE0
.LASFDE0:
	.4byte	.Lframe0
	.4byte	.LFB2
	.4byte	.LFE2-.LFB2
	.byte	0x4
	.4byte	.LCFI0-.LFB2
	.byte	0xd
	.uleb128 0xc
	.byte	0x4
	.4byte	.LCFI2-.LCFI0
	.byte	0x8e
	.uleb128 0x5
	.byte	0x8d
	.uleb128 0x6
	.byte	0x8b
	.uleb128 0x7
	.byte	0x8a
	.uleb128 0x8
	.byte	0x83
	.uleb128 0x1
	.byte	0x82
	.uleb128 0x2
	.byte	0x81
	.uleb128 0x3
	.byte	0x4
	.4byte	.LCFI3-.LCFI2
	.byte	0xc
	.uleb128 0xb
	.uleb128 0x10
	.align	2
.LEFDE0:
.LSFDE2:
	.4byte	.LEFDE2-.LASFDE2
.LASFDE2:
	.4byte	.Lframe0
	.4byte	.LFB3
	.4byte	.LFE3-.LFB3
	.byte	0x4
	.4byte	.LCFI5-.LFB3
	.byte	0xd
	.uleb128 0xc
	.byte	0x4
	.4byte	.LCFI6-.LCFI5
	.byte	0x8e
	.uleb128 0x2
	.byte	0x8d
	.uleb128 0x3
	.byte	0x8b
	.uleb128 0x4
	.byte	0x4
	.4byte	.LCFI7-.LCFI6
	.byte	0xc
	.uleb128 0xb
	.uleb128 0x4
	.align	2
.LEFDE2:
.LSFDE4:
	.4byte	.LEFDE4-.LASFDE4
.LASFDE4:
	.4byte	.Lframe0
	.4byte	.LFB4
	.4byte	.LFE4-.LFB4
	.byte	0x4
	.4byte	.LCFI9-.LFB4
	.byte	0xd
	.uleb128 0xc
	.byte	0x4
	.4byte	.LCFI10-.LCFI9
	.byte	0x8e
	.uleb128 0x2
	.byte	0x8d
	.uleb128 0x3
	.byte	0x8b
	.uleb128 0x4
	.byte	0x8a
	.uleb128 0x5
	.byte	0x4
	.4byte	.LCFI11-.LCFI10
	.byte	0xc
	.uleb128 0xb
	.uleb128 0x4
	.align	2
.LEFDE4:
.LSFDE6:
	.4byte	.LEFDE6-.LASFDE6
.LASFDE6:
	.4byte	.Lframe0
	.4byte	.LFB5
	.4byte	.LFE5-.LFB5
	.byte	0x4
	.4byte	.LCFI13-.LFB5
	.byte	0xd
	.uleb128 0xc
	.byte	0x4
	.4byte	.LCFI14-.LCFI13
	.byte	0x8e
	.uleb128 0x2
	.byte	0x8d
	.uleb128 0x3
	.byte	0x8b
	.uleb128 0x4
	.byte	0x8a
	.uleb128 0x5
	.byte	0x4
	.4byte	.LCFI15-.LCFI14
	.byte	0xc
	.uleb128 0xb
	.uleb128 0x4
	.align	2
.LEFDE6:
.LSFDE8:
	.4byte	.LEFDE8-.LASFDE8
.LASFDE8:
	.4byte	.Lframe0
	.4byte	.LFB6
	.4byte	.LFE6-.LFB6
	.byte	0x4
	.4byte	.LCFI17-.LFB6
	.byte	0xd
	.uleb128 0xc
	.byte	0x4
	.4byte	.LCFI18-.LCFI17
	.byte	0x8e
	.uleb128 0x2
	.byte	0x8d
	.uleb128 0x3
	.byte	0x8b
	.uleb128 0x4
	.byte	0x8a
	.uleb128 0x5
	.byte	0x4
	.4byte	.LCFI19-.LCFI18
	.byte	0xc
	.uleb128 0xb
	.uleb128 0x4
	.align	2
.LEFDE8:
.LSFDE10:
	.4byte	.LEFDE10-.LASFDE10
.LASFDE10:
	.4byte	.Lframe0
	.4byte	.LFB7
	.4byte	.LFE7-.LFB7
	.byte	0x4
	.4byte	.LCFI21-.LFB7
	.byte	0xd
	.uleb128 0xc
	.byte	0x4
	.4byte	.LCFI22-.LCFI21
	.byte	0x8e
	.uleb128 0x2
	.byte	0x8d
	.uleb128 0x3
	.byte	0x8b
	.uleb128 0x4
	.byte	0x8a
	.uleb128 0x5
	.byte	0x4
	.4byte	.LCFI23-.LCFI22
	.byte	0xc
	.uleb128 0xb
	.uleb128 0x4
	.align	2
.LEFDE10:
.LSFDE12:
	.4byte	.LEFDE12-.LASFDE12
.LASFDE12:
	.4byte	.Lframe0
	.4byte	.LFB8
	.4byte	.LFE8-.LFB8
	.byte	0x4
	.4byte	.LCFI25-.LFB8
	.byte	0xd
	.uleb128 0xc
	.byte	0x4
	.4byte	.LCFI26-.LCFI25
	.byte	0x8e
	.uleb128 0x2
	.byte	0x8d
	.uleb128 0x3
	.byte	0x8b
	.uleb128 0x4
	.byte	0x8a
	.uleb128 0x5
	.byte	0x4
	.4byte	.LCFI27-.LCFI26
	.byte	0xc
	.uleb128 0xb
	.uleb128 0x4
	.align	2
.LEFDE12:
.LSFDE14:
	.4byte	.LEFDE14-.LASFDE14
.LASFDE14:
	.4byte	.Lframe0
	.4byte	.LFB9
	.4byte	.LFE9-.LFB9
	.byte	0x4
	.4byte	.LCFI29-.LFB9
	.byte	0xd
	.uleb128 0xc
	.byte	0x4
	.4byte	.LCFI30-.LCFI29
	.byte	0x8e
	.uleb128 0x2
	.byte	0x8d
	.uleb128 0x3
	.byte	0x8b
	.uleb128 0x4
	.byte	0x4
	.4byte	.LCFI31-.LCFI30
	.byte	0xc
	.uleb128 0xb
	.uleb128 0x4
	.align	2
.LEFDE14:
.LSFDE16:
	.4byte	.LEFDE16-.LASFDE16
.LASFDE16:
	.4byte	.Lframe0
	.4byte	.LFB10
	.4byte	.LFE10-.LFB10
	.byte	0x4
	.4byte	.LCFI33-.LFB10
	.byte	0xd
	.uleb128 0xc
	.byte	0x4
	.4byte	.LCFI34-.LCFI33
	.byte	0x8e
	.uleb128 0x2
	.byte	0x8d
	.uleb128 0x3
	.byte	0x8b
	.uleb128 0x4
	.byte	0x4
	.4byte	.LCFI35-.LCFI34
	.byte	0xc
	.uleb128 0xb
	.uleb128 0x4
	.align	2
.LEFDE16:
.LSFDE18:
	.4byte	.LEFDE18-.LASFDE18
.LASFDE18:
	.4byte	.Lframe0
	.4byte	.LFB11
	.4byte	.LFE11-.LFB11
	.byte	0x4
	.4byte	.LCFI37-.LFB11
	.byte	0xd
	.uleb128 0xc
	.byte	0x4
	.4byte	.LCFI38-.LCFI37
	.byte	0x8e
	.uleb128 0x2
	.byte	0x8d
	.uleb128 0x3
	.byte	0x8b
	.uleb128 0x4
	.byte	0x4
	.4byte	.LCFI39-.LCFI38
	.byte	0xc
	.uleb128 0xb
	.uleb128 0x4
	.align	2
.LEFDE18:
.LSFDE20:
	.4byte	.LEFDE20-.LASFDE20
.LASFDE20:
	.4byte	.Lframe0
	.4byte	.LFB12
	.4byte	.LFE12-.LFB12
	.byte	0x4
	.4byte	.LCFI41-.LFB12
	.byte	0xd
	.uleb128 0xc
	.byte	0x4
	.4byte	.LCFI42-.LCFI41
	.byte	0x8e
	.uleb128 0x2
	.byte	0x8d
	.uleb128 0x3
	.byte	0x8b
	.uleb128 0x4
	.byte	0x4
	.4byte	.LCFI43-.LCFI42
	.byte	0xc
	.uleb128 0xb
	.uleb128 0x4
	.align	2
.LEFDE20:
.LSFDE22:
	.4byte	.LEFDE22-.LASFDE22
.LASFDE22:
	.4byte	.Lframe0
	.4byte	.LFB13
	.4byte	.LFE13-.LFB13
	.byte	0x4
	.4byte	.LCFI45-.LFB13
	.byte	0xd
	.uleb128 0xc
	.byte	0x4
	.4byte	.LCFI46-.LCFI45
	.byte	0x8e
	.uleb128 0x2
	.byte	0x8d
	.uleb128 0x3
	.byte	0x8b
	.uleb128 0x4
	.byte	0x4
	.4byte	.LCFI47-.LCFI46
	.byte	0xc
	.uleb128 0xb
	.uleb128 0x4
	.align	2
.LEFDE22:
.LSFDE24:
	.4byte	.LEFDE24-.LASFDE24
.LASFDE24:
	.4byte	.Lframe0
	.4byte	.LFB14
	.4byte	.LFE14-.LFB14
	.byte	0x4
	.4byte	.LCFI49-.LFB14
	.byte	0xd
	.uleb128 0xc
	.byte	0x4
	.4byte	.LCFI50-.LCFI49
	.byte	0x8e
	.uleb128 0x2
	.byte	0x8d
	.uleb128 0x3
	.byte	0x8b
	.uleb128 0x4
	.byte	0x4
	.4byte	.LCFI51-.LCFI50
	.byte	0xc
	.uleb128 0xb
	.uleb128 0x4
	.align	2
.LEFDE24:
.LSFDE26:
	.4byte	.LEFDE26-.LASFDE26
.LASFDE26:
	.4byte	.Lframe0
	.4byte	.LFB15
	.4byte	.LFE15-.LFB15
	.byte	0x4
	.4byte	.LCFI53-.LFB15
	.byte	0xd
	.uleb128 0xc
	.byte	0x4
	.4byte	.LCFI54-.LCFI53
	.byte	0x8e
	.uleb128 0x2
	.byte	0x8d
	.uleb128 0x3
	.byte	0x8b
	.uleb128 0x4
	.byte	0x4
	.4byte	.LCFI55-.LCFI54
	.byte	0xc
	.uleb128 0xb
	.uleb128 0x4
	.align	2
.LEFDE26:
.LSFDE28:
	.4byte	.LEFDE28-.LASFDE28
.LASFDE28:
	.4byte	.Lframe0
	.4byte	.LFB16
	.4byte	.LFE16-.LFB16
	.byte	0x4
	.4byte	.LCFI57-.LFB16
	.byte	0xd
	.uleb128 0xc
	.byte	0x4
	.4byte	.LCFI58-.LCFI57
	.byte	0x8e
	.uleb128 0x2
	.byte	0x8d
	.uleb128 0x3
	.byte	0x8b
	.uleb128 0x4
	.byte	0x4
	.4byte	.LCFI59-.LCFI58
	.byte	0xc
	.uleb128 0xb
	.uleb128 0x4
	.align	2
.LEFDE28:
.LSFDE30:
	.4byte	.LEFDE30-.LASFDE30
.LASFDE30:
	.4byte	.Lframe0
	.4byte	.LFB17
	.4byte	.LFE17-.LFB17
	.byte	0x4
	.4byte	.LCFI61-.LFB17
	.byte	0xd
	.uleb128 0xc
	.byte	0x4
	.4byte	.LCFI62-.LCFI61
	.byte	0x8e
	.uleb128 0x2
	.byte	0x8d
	.uleb128 0x3
	.byte	0x8b
	.uleb128 0x4
	.byte	0x4
	.4byte	.LCFI63-.LCFI62
	.byte	0xc
	.uleb128 0xb
	.uleb128 0x4
	.align	2
.LEFDE30:
.LSFDE32:
	.4byte	.LEFDE32-.LASFDE32
.LASFDE32:
	.4byte	.Lframe0
	.4byte	.LFB18
	.4byte	.LFE18-.LFB18
	.byte	0x4
	.4byte	.LCFI65-.LFB18
	.byte	0xd
	.uleb128 0xc
	.byte	0x4
	.4byte	.LCFI66-.LCFI65
	.byte	0x8e
	.uleb128 0x2
	.byte	0x8d
	.uleb128 0x3
	.byte	0x8b
	.uleb128 0x4
	.byte	0x4
	.4byte	.LCFI67-.LCFI66
	.byte	0xc
	.uleb128 0xb
	.uleb128 0x4
	.align	2
.LEFDE32:
.LSFDE34:
	.4byte	.LEFDE34-.LASFDE34
.LASFDE34:
	.4byte	.Lframe0
	.4byte	.LFB19
	.4byte	.LFE19-.LFB19
	.byte	0x4
	.4byte	.LCFI69-.LFB19
	.byte	0xd
	.uleb128 0xc
	.byte	0x4
	.4byte	.LCFI70-.LCFI69
	.byte	0x8e
	.uleb128 0x2
	.byte	0x8d
	.uleb128 0x3
	.byte	0x8b
	.uleb128 0x4
	.byte	0x4
	.4byte	.LCFI71-.LCFI70
	.byte	0xc
	.uleb128 0xb
	.uleb128 0x4
	.align	2
.LEFDE34:
.LSFDE36:
	.4byte	.LEFDE36-.LASFDE36
.LASFDE36:
	.4byte	.Lframe0
	.4byte	.LFB20
	.4byte	.LFE20-.LFB20
	.byte	0x4
	.4byte	.LCFI73-.LFB20
	.byte	0xd
	.uleb128 0xc
	.byte	0x4
	.4byte	.LCFI74-.LCFI73
	.byte	0x8e
	.uleb128 0x2
	.byte	0x8d
	.uleb128 0x3
	.byte	0x8b
	.uleb128 0x4
	.byte	0x8a
	.uleb128 0x5
	.byte	0x4
	.4byte	.LCFI75-.LCFI74
	.byte	0xc
	.uleb128 0xb
	.uleb128 0x4
	.align	2
.LEFDE36:
.LSFDE38:
	.4byte	.LEFDE38-.LASFDE38
.LASFDE38:
	.4byte	.Lframe0
	.4byte	.LFB21
	.4byte	.LFE21-.LFB21
	.byte	0x4
	.4byte	.LCFI77-.LFB21
	.byte	0xd
	.uleb128 0xc
	.byte	0x4
	.4byte	.LCFI78-.LCFI77
	.byte	0x8e
	.uleb128 0x2
	.byte	0x8d
	.uleb128 0x3
	.byte	0x8b
	.uleb128 0x4
	.byte	0x4
	.4byte	.LCFI79-.LCFI78
	.byte	0xc
	.uleb128 0xb
	.uleb128 0x4
	.align	2
.LEFDE38:
.LSFDE40:
	.4byte	.LEFDE40-.LASFDE40
.LASFDE40:
	.4byte	.Lframe0
	.4byte	.LFB22
	.4byte	.LFE22-.LFB22
	.byte	0x4
	.4byte	.LCFI81-.LFB22
	.byte	0xd
	.uleb128 0xc
	.byte	0x4
	.4byte	.LCFI82-.LCFI81
	.byte	0x8e
	.uleb128 0x2
	.byte	0x8d
	.uleb128 0x3
	.byte	0x8b
	.uleb128 0x4
	.byte	0x4
	.4byte	.LCFI83-.LCFI82
	.byte	0xc
	.uleb128 0xb
	.uleb128 0x4
	.align	2
.LEFDE40:
.LSFDE42:
	.4byte	.LEFDE42-.LASFDE42
.LASFDE42:
	.4byte	.Lframe0
	.4byte	.LFB23
	.4byte	.LFE23-.LFB23
	.byte	0x4
	.4byte	.LCFI85-.LFB23
	.byte	0xd
	.uleb128 0xc
	.byte	0x4
	.4byte	.LCFI86-.LCFI85
	.byte	0x8e
	.uleb128 0x2
	.byte	0x8d
	.uleb128 0x3
	.byte	0x8b
	.uleb128 0x4
	.byte	0x4
	.4byte	.LCFI87-.LCFI86
	.byte	0xc
	.uleb128 0xb
	.uleb128 0x4
	.align	2
.LEFDE42:
.LSFDE44:
	.4byte	.LEFDE44-.LASFDE44
.LASFDE44:
	.4byte	.Lframe0
	.4byte	.LFB24
	.4byte	.LFE24-.LFB24
	.byte	0x4
	.4byte	.LCFI89-.LFB24
	.byte	0xd
	.uleb128 0xc
	.byte	0x4
	.4byte	.LCFI90-.LCFI89
	.byte	0x8e
	.uleb128 0x2
	.byte	0x8d
	.uleb128 0x3
	.byte	0x8b
	.uleb128 0x4
	.byte	0x4
	.4byte	.LCFI91-.LCFI90
	.byte	0xc
	.uleb128 0xb
	.uleb128 0x4
	.align	2
.LEFDE44:
.LSFDE46:
	.4byte	.LEFDE46-.LASFDE46
.LASFDE46:
	.4byte	.Lframe0
	.4byte	.LFB25
	.4byte	.LFE25-.LFB25
	.byte	0x4
	.4byte	.LCFI93-.LFB25
	.byte	0xd
	.uleb128 0xc
	.byte	0x4
	.4byte	.LCFI94-.LCFI93
	.byte	0x8e
	.uleb128 0x2
	.byte	0x8d
	.uleb128 0x3
	.byte	0x8b
	.uleb128 0x4
	.byte	0x4
	.4byte	.LCFI95-.LCFI94
	.byte	0xc
	.uleb128 0xb
	.uleb128 0x4
	.align	2
.LEFDE46:
.LSFDE48:
	.4byte	.LEFDE48-.LASFDE48
.LASFDE48:
	.4byte	.Lframe0
	.4byte	.LFB26
	.4byte	.LFE26-.LFB26
	.byte	0x4
	.4byte	.LCFI97-.LFB26
	.byte	0xd
	.uleb128 0xc
	.byte	0x4
	.4byte	.LCFI98-.LCFI97
	.byte	0x8e
	.uleb128 0x2
	.byte	0x8d
	.uleb128 0x3
	.byte	0x8b
	.uleb128 0x4
	.byte	0x4
	.4byte	.LCFI99-.LCFI98
	.byte	0xc
	.uleb128 0xb
	.uleb128 0x4
	.align	2
.LEFDE48:
.LSFDE50:
	.4byte	.LEFDE50-.LASFDE50
.LASFDE50:
	.4byte	.Lframe0
	.4byte	.LFB27
	.4byte	.LFE27-.LFB27
	.byte	0x4
	.4byte	.LCFI101-.LFB27
	.byte	0xd
	.uleb128 0xc
	.byte	0x4
	.4byte	.LCFI103-.LCFI101
	.byte	0x8e
	.uleb128 0x5
	.byte	0x8d
	.uleb128 0x6
	.byte	0x8b
	.uleb128 0x7
	.byte	0x83
	.uleb128 0x1
	.byte	0x82
	.uleb128 0x2
	.byte	0x81
	.uleb128 0x3
	.byte	0x4
	.4byte	.LCFI104-.LCFI103
	.byte	0xc
	.uleb128 0xb
	.uleb128 0x10
	.align	2
.LEFDE50:
.LSFDE52:
	.4byte	.LEFDE52-.LASFDE52
.LASFDE52:
	.4byte	.Lframe0
	.4byte	.LFB28
	.4byte	.LFE28-.LFB28
	.byte	0x4
	.4byte	.LCFI106-.LFB28
	.byte	0xd
	.uleb128 0xc
	.byte	0x4
	.4byte	.LCFI108-.LCFI106
	.byte	0x8e
	.uleb128 0x6
	.byte	0x8d
	.uleb128 0x7
	.byte	0x8b
	.uleb128 0x8
	.byte	0x83
	.uleb128 0x1
	.byte	0x82
	.uleb128 0x2
	.byte	0x81
	.uleb128 0x3
	.byte	0x80
	.uleb128 0x4
	.byte	0x4
	.4byte	.LCFI109-.LCFI108
	.byte	0xc
	.uleb128 0xb
	.uleb128 0x14
	.align	2
.LEFDE52:
.LSFDE54:
	.4byte	.LEFDE54-.LASFDE54
.LASFDE54:
	.4byte	.Lframe0
	.4byte	.LFB29
	.4byte	.LFE29-.LFB29
	.byte	0x4
	.4byte	.LCFI111-.LFB29
	.byte	0xd
	.uleb128 0xc
	.byte	0x4
	.4byte	.LCFI112-.LCFI111
	.byte	0x8e
	.uleb128 0x2
	.byte	0x8d
	.uleb128 0x3
	.byte	0x8b
	.uleb128 0x4
	.byte	0x4
	.4byte	.LCFI113-.LCFI112
	.byte	0xc
	.uleb128 0xb
	.uleb128 0x4
	.align	2
.LEFDE54:
.LSFDE56:
	.4byte	.LEFDE56-.LASFDE56
.LASFDE56:
	.4byte	.Lframe0
	.4byte	.LFB30
	.4byte	.LFE30-.LFB30
	.byte	0x4
	.4byte	.LCFI115-.LFB30
	.byte	0xd
	.uleb128 0xc
	.byte	0x4
	.4byte	.LCFI116-.LCFI115
	.byte	0x8e
	.uleb128 0x2
	.byte	0x8d
	.uleb128 0x3
	.byte	0x8b
	.uleb128 0x4
	.byte	0x4
	.4byte	.LCFI117-.LCFI116
	.byte	0xc
	.uleb128 0xb
	.uleb128 0x4
	.align	2
.LEFDE56:
.LSFDE58:
	.4byte	.LEFDE58-.LASFDE58
.LASFDE58:
	.4byte	.Lframe0
	.4byte	.LFB31
	.4byte	.LFE31-.LFB31
	.byte	0x4
	.4byte	.LCFI119-.LFB31
	.byte	0xd
	.uleb128 0xc
	.byte	0x4
	.4byte	.LCFI120-.LCFI119
	.byte	0x8e
	.uleb128 0x2
	.byte	0x8d
	.uleb128 0x3
	.byte	0x8b
	.uleb128 0x4
	.byte	0x8a
	.uleb128 0x5
	.byte	0x4
	.4byte	.LCFI121-.LCFI120
	.byte	0xc
	.uleb128 0xb
	.uleb128 0x4
	.align	2
.LEFDE58:
.LSFDE60:
	.4byte	.LEFDE60-.LASFDE60
.LASFDE60:
	.4byte	.Lframe0
	.4byte	.LFB32
	.4byte	.LFE32-.LFB32
	.byte	0x4
	.4byte	.LCFI123-.LFB32
	.byte	0xd
	.uleb128 0xc
	.byte	0x4
	.4byte	.LCFI124-.LCFI123
	.byte	0x8e
	.uleb128 0x2
	.byte	0x8d
	.uleb128 0x3
	.byte	0x8b
	.uleb128 0x4
	.byte	0x8a
	.uleb128 0x5
	.byte	0x4
	.4byte	.LCFI125-.LCFI124
	.byte	0xc
	.uleb128 0xb
	.uleb128 0x4
	.align	2
.LEFDE60:
.LSFDE62:
	.4byte	.LEFDE62-.LASFDE62
.LASFDE62:
	.4byte	.Lframe0
	.4byte	.LFB33
	.4byte	.LFE33-.LFB33
	.byte	0x4
	.4byte	.LCFI127-.LFB33
	.byte	0xd
	.uleb128 0xc
	.byte	0x4
	.4byte	.LCFI128-.LCFI127
	.byte	0x8e
	.uleb128 0x2
	.byte	0x8d
	.uleb128 0x3
	.byte	0x8b
	.uleb128 0x4
	.byte	0x4
	.4byte	.LCFI129-.LCFI128
	.byte	0xc
	.uleb128 0xb
	.uleb128 0x4
	.align	2
.LEFDE62:
	.file 2 "va_list_def.h"
	.file 3 "robio.h"
	.text
.Letext0: