	.file	"route.c"
	.text
.Ltext0:
	.section	.rodata.str1.4,"aMS",%progbits,1
	.align	2
.LC0:
	.ascii	"SensorToTrackNode: Unknown node for Module=%d, Sens"
	.ascii	"or=%d\000"
	.text
	.align	2
	.global	SensorToTrackNode
	.type	SensorToTrackNode, %function
SensorToTrackNode:
.LFB2:
	.file 1 "route.c"
	.loc 1 5 0
	@ args = 0, pretend = 0, frame = 0
	@ frame_needed = 0, uses_anonymous_args = 0
.LVL0:
	stmfd	sp!, {r4, sl, lr}
.LCFI0:
	ldr	sl, .L13
	mov	r4, r2
.L10:
	add	sl, pc, sl
	.loc 1 6 0
	add	lr, r2, r1, asl #4
.LVL1:
	mov	ip, r0
	mov	r2, #0
.LVL2:
	b	.L2
.LVL3:
.L3:
	.loc 1 8 0
	cmp	r2, #144
	beq	.L12
.LVL4:
.L2:
	.loc 1 6 0
	mov	r0, ip
.LVL5:
.LBB2:
	.loc 1 11 0
	ldr	r3, [r0, #4]
.LBE2:
	.loc 1 8 0
	add	r2, r2, #1
.LBB3:
	.loc 1 11 0
	cmp	r3, #1
.LBE3:
	.loc 1 8 0
	add	ip, ip, #48
.LBB4:
	.loc 1 11 0
	bne	.L3
	ldr	r3, [r0, #8]
	cmp	lr, r3
	ldmeqfd	sp!, {r4, sl, pc}
.LBE4:
	.loc 1 8 0
	cmp	r2, #144
	bne	.L2
.L12:
	.loc 1 16 0
	mov	r2, r1
.LVL6:
	ldr	r1, .L13+4
.LVL7:
	mov	r3, r4
	add	r1, sl, r1
	mov	r0, #0
.LVL8:
	bl	assertf(PLT)
.LVL9:
	mov	r0, #0
.LVL10:
.LVL11:
	.loc 1 18 0
	ldmfd	sp!, {r4, sl, pc}
.L14:
	.align	2
.L13:
	.word	_GLOBAL_OFFSET_TABLE_-(.L10+8)
	.word	.LC0(GOTOFF)
.LFE2:
	.size	SensorToTrackNode, .-SensorToTrackNode
	.align	2
	.global	NodeNameToTrackNode
	.type	NodeNameToTrackNode, %function
NodeNameToTrackNode:
.LFB3:
	.loc 1 20 0
	@ args = 0, pretend = 0, frame = 0
	@ frame_needed = 0, uses_anonymous_args = 0
.LVL12:
	stmfd	sp!, {r4, r5, r6, lr}
.LCFI1:
	.loc 1 20 0
	mov	r3, r0
	mov	r6, r1
	mov	r5, #0
.LVL13:
	b	.L16
.LVL14:
.L24:
	.loc 1 22 0
	cmp	r5, #144
	beq	.L23
.LVL15:
.L16:
.LBB5:
	.loc 1 25 0
	ldr	r1, [r3, #0]
	mov	r0, r6
.LVL16:
.LBE5:
	.loc 1 20 0
	mov	r4, r3
.LBB6:
	.loc 1 25 0
	bl	m_strcmp(PLT)
	cmp	r0, #0
.LBE6:
	.loc 1 22 0
	add	r5, r5, #1
	add	r3, r4, #48
.LBB7:
	.loc 1 25 0
	bne	.L24
.LBE7:
	.loc 1 31 0
	mov	r0, r4
	ldmfd	sp!, {r4, r5, r6, pc}
.L23:
	.loc 1 22 0
	mov	r4, #0
	.loc 1 31 0
	mov	r0, r4
	ldmfd	sp!, {r4, r5, r6, pc}
.LFE3:
	.size	NodeNameToTrackNode, .-NodeNameToTrackNode
	.align	2
	.global	GetRandomSensor
	.type	GetRandomSensor, %function
GetRandomSensor:
.LFB4:
	.loc 1 33 0
	@ args = 0, pretend = 0, frame = 0
	@ frame_needed = 0, uses_anonymous_args = 0
.LVL17:
	stmfd	sp!, {r4, r5, lr}
.LCFI2:
	mov	r5, r0
	mov	r4, r1
.LVL18:
.L36:
.LBB8:
	.loc 1 35 0
	mov	r0, r5
	bl	RNG_Get(PLT)
	.loc 1 36 0
	ldr	r2, .L37
	umull	r1, r3, r2, r0
	mov	r3, r3, lsr #5
	add	r3, r3, r3, asl #3
	sub	r0, r0, r3, asl #4
	add	r0, r0, r0, asl #1
	add	r0, r4, r0, asl #4
	ldr	r3, [r0, #12]
	cmp	r3, #0
	beq	.L36
	ldr	r3, [r0, #4]
	cmp	r3, #1
	bne	.L36
.LBE8:
	.loc 1 41 0
	ldmfd	sp!, {r4, r5, pc}
.L38:
	.align	2
.L37:
	.word	954437177
.LFE4:
	.size	GetRandomSensor, .-GetRandomSensor
	.section	.rodata.str1.4
	.align	2
.LC1:
	.ascii	"Case should not happen\000"
	.text
	.align	2
	.global	IsNodeReachableViaDirectedGraph
	.type	IsNodeReachableViaDirectedGraph, %function
IsNodeReachableViaDirectedGraph:
.LFB6:
	.loc 1 55 0
	@ args = 0, pretend = 0, frame = 0
	@ frame_needed = 0, uses_anonymous_args = 0
.LVL19:
	stmfd	sp!, {r4, r5, r6, r7, r8, sl, lr}
.LCFI3:
	ldr	sl, .L65
	.loc 1 57 0
	cmp	r3, #20
	.loc 1 55 0
.L59:
	add	sl, pc, sl
	mov	r8, r0
	.loc 1 55 0
	mov	r6, r1
	mov	r7, r2
	.loc 1 57 0
	ble	.L61
.LVL20:
	b	.L41
.L63:
	.loc 1 63 0
	ldr	r2, [r6, #4]
	cmp	r2, #3
	beq	.L60
	.loc 1 65 0
	cmp	r2, #1
	bne	.L62
.L60:
	.loc 1 66 0
	add	r3, r3, #1
	.loc 1 57 0
	cmp	r3, #20
	.loc 1 66 0
	ldr	r6, [r6, #24]
	.loc 1 57 0
	bgt	.L41
.LVL21:
.L61:
	.loc 1 61 0
	cmp	r7, r6
	bne	.L63
	.loc 1 77 0
	mov	r0, #1
	ldmfd	sp!, {r4, r5, r6, r7, r8, sl, pc}
.LVL22:
.L41:
	mov	r0, #0
	ldmfd	sp!, {r4, r5, r6, r7, r8, sl, pc}
.LVL23:
.L62:
	.loc 1 67 0
	cmp	r2, #5
	beq	.L41
	.loc 1 69 0
	cmp	r2, #4
	beq	.L41
	.loc 1 71 0
	cmp	r2, #2
	beq	.L64
	.loc 1 76 0
	ldr	r1, .L65+4
	mov	r0, #0
	add	r1, sl, r1
	bl	assert(PLT)
.LVL24:
	mov	r0, #0
	ldmfd	sp!, {r4, r5, r6, r7, r8, sl, pc}
.LVL25:
.L64:
.LBB9:
	.loc 1 72 0
	add	r4, r3, #1
	ldr	r1, [r6, #24]
	mov	r2, r7
	mov	r3, r4
.LVL26:
	mov	r0, r8
	bl	IsNodeReachableViaDirectedGraph(PLT)
	.loc 1 73 0
	ldr	r1, [r6, #40]
	.loc 1 72 0
	mov	r5, r0
.LVL27:
	.loc 1 73 0
	mov	r2, r7
	mov	r0, r8
	mov	r3, r4
	bl	IsNodeReachableViaDirectedGraph(PLT)
	.loc 1 74 0
	orrs	r5, r5, r0
.LVL28:
	moveq	r0, #0
	movne	r0, #1
	ldmfd	sp!, {r4, r5, r6, r7, r8, sl, pc}
.L66:
	.align	2
.L65:
	.word	_GLOBAL_OFFSET_TABLE_-(.L59+8)
	.word	.LC1(GOTOFF)
.LBE9:
.LFE6:
	.size	IsNodeReachableViaDirectedGraph, .-IsNodeReachableViaDirectedGraph
	.section	.rodata.str1.4
	.align	2
.LC2:
	.ascii	"Unable to find a sensor that was reachable via the "
	.ascii	"directed graph in current direction.\000"
	.text
	.align	2
	.global	GetRandomSensorReachableViaDirectedGraph
	.type	GetRandomSensorReachableViaDirectedGraph, %function
GetRandomSensorReachableViaDirectedGraph:
.LFB5:
	.loc 1 43 0
	@ args = 0, pretend = 0, frame = 0
	@ frame_needed = 0, uses_anonymous_args = 0
.LVL29:
	stmfd	sp!, {r4, r5, r6, r7, r8, r9, sl, lr}
.LCFI4:
	ldr	sl, .L75
	ldr	r9, .L75+4
.L74:
	add	sl, pc, sl
	mov	r8, r0
	mov	r7, r1
	mov	r6, r2
	mov	r5, #0
.LVL30:
	b	.L68
.LVL31:
.L69:
.LBB10:
	.loc 1 51 0
	cmp	r5, #99
	movgt	r0, #0
	movle	r0, #1
	add	r1, sl, r9
	bl	assert(PLT)
.LVL32:
.L68:
	.loc 1 46 0
	mov	r1, r7
	mov	r0, r8
	bl	GetRandomSensor(PLT)
	mov	r4, r0
	.loc 1 47 0
	cmp	r6, r4
	mov	r2, r0
	.loc 1 50 0
	add	r5, r5, #1
	.loc 1 47 0
	mov	r1, r6
	mov	r3, #0
	mov	r0, r7
	beq	.L69
.LVL33:
	bl	IsNodeReachableViaDirectedGraph(PLT)
.LVL34:
	cmp	r0, #0
	beq	.L69
.LBE10:
	.loc 1 53 0
	mov	r0, r4
	ldmfd	sp!, {r4, r5, r6, r7, r8, r9, sl, pc}
.L76:
	.align	2
.L75:
	.word	_GLOBAL_OFFSET_TABLE_-(.L74+8)
	.word	.LC2(GOTOFF)
.LFE5:
	.size	GetRandomSensorReachableViaDirectedGraph, .-GetRandomSensorReachableViaDirectedGraph
	.section	.rodata.str1.4
	.align	2
.LC3:
	.ascii	"This path requires that switch %d be set twice.\000"
	.text
	.align	2
	.global	QueueSwitchStatesForDirectedPath
	.type	QueueSwitchStatesForDirectedPath, %function
QueueSwitchStatesForDirectedPath:
.LFB7:
	.loc 1 81 0
	@ args = 4, pretend = 0, frame = 0
	@ frame_needed = 0, uses_anonymous_args = 0
.LVL35:
	stmfd	sp!, {r4, r5, r6, r7, r8, r9, sl, lr}
.LCFI5:
	sub	sp, sp, #4
.LCFI6:
.LVL36:
	ldr	r4, [sp, #36]
	ldr	sl, .L108
	.loc 1 84 0
	cmp	r4, #20
	.loc 1 81 0
.L101:
	add	sl, pc, sl
	mov	r7, r0
	.loc 1 81 0
	mov	r8, r1
	mov	r5, r2
	mov	r6, r3
	.loc 1 84 0
	ble	.L103
.LVL37:
	b	.L79
.L105:
	.loc 1 90 0
	ldr	r3, [r5, #4]
	cmp	r3, #3
	beq	.L102
	.loc 1 95 0
	cmp	r3, #1
	bne	.L104
.L102:
.LBB11:
	.loc 1 96 0
	add	r4, r4, #1
.LBE11:
	.loc 1 84 0
	cmp	r4, #20
.LBB12:
	.loc 1 96 0
	ldr	r5, [r5, #24]
.LBE12:
	.loc 1 84 0
	bgt	.L79
.LVL38:
.L103:
	.loc 1 88 0
	cmp	r6, r5
	bne	.L105
	.loc 1 118 0
	mov	r0, #1
.LVL39:
.LVL40:
.L97:
.LVL41:
	.loc 1 121 0
	add	sp, sp, #4
	ldmfd	sp!, {r4, r5, r6, r7, r8, r9, sl, pc}
.LVL42:
.L79:
	.loc 1 118 0
	mov	r0, #0
.LVL43:
	b	.L97
.LVL44:
.L104:
	.loc 1 100 0
	cmp	r3, #5
	beq	.L79
	.loc 1 102 0
	cmp	r3, #4
	beq	.L79
	.loc 1 104 0
	cmp	r3, #2
	beq	.L106
	.loc 1 117 0
	ldr	r1, .L108+4
	mov	r0, #0
	add	r1, sl, r1
	bl	assert(PLT)
	mov	r0, #0
.LVL45:
	b	.L97
.LVL46:
.L106:
.LBB13:
	.loc 1 105 0
	ldr	r2, [r5, #24]
	add	r4, r4, #1
.LVL47:
	mov	r1, r8
	mov	r3, r6
	mov	r0, r7
	str	r4, [sp, #0]
	bl	QueueSwitchStatesForDirectedPath(PLT)
	.loc 1 106 0
	ldr	r2, [r5, #40]
	.loc 1 105 0
	mov	r9, r0
.LVL48:
	.loc 1 106 0
	mov	r1, r8
	mov	r3, r6
	mov	r0, r7
	str	r4, [sp, #0]
	bl	QueueSwitchStatesForDirectedPath(PLT)
	.loc 1 107 0
	cmp	r9, #0
	.loc 1 106 0
	mov	r4, r0
.LVL49:
	.loc 1 107 0
	bne	.L107
	.loc 1 111 0
	cmp	r0, #0
	.loc 1 113 0
	ldrne	r2, [r5, #8]
	movne	r3, #67
	strne	r3, [r7, r2, asl #2]
.L95:
	.loc 1 115 0
	orrs	r9, r9, r4
.LVL50:
	moveq	r0, #0
	movne	r0, #1
.LVL51:
	b	.L97
.LVL52:
.L107:
	.loc 1 109 0
	ldr	r2, [r5, #8]
	ldr	r1, .L108+8
	ldr	r0, [r7, r2, asl #2]
	add	r1, sl, r1
	cmp	r0, #85
	movne	r0, #0
	moveq	r0, #1
	bl	assertf(PLT)
	.loc 1 110 0
	ldr	r2, [r5, #8]
	mov	r3, #83
	str	r3, [r7, r2, asl #2]
	b	.L95
.L109:
	.align	2
.L108:
	.word	_GLOBAL_OFFSET_TABLE_-(.L101+8)
	.word	.LC1(GOTOFF)
	.word	.LC3(GOTOFF)
.LBE13:
.LFE7:
	.size	QueueSwitchStatesForDirectedPath, .-QueueSwitchStatesForDirectedPath
	.section	.rodata.str1.4
	.align	2
.LC4:
	.ascii	"Too many route nodes.\012\000"
	.text
	.align	2
	.global	PopulateRouteNodeInfo
	.type	PopulateRouteNodeInfo, %function
PopulateRouteNodeInfo:
.LFB8:
	.loc 1 123 0
	@ args = 12, pretend = 0, frame = 8
	@ frame_needed = 0, uses_anonymous_args = 0
.LVL53:
	stmfd	sp!, {r4, r5, r6, r7, r8, r9, sl, fp, lr}
.LCFI7:
	sub	sp, sp, #20
.LCFI8:
.LVL54:
	ldr	r6, [sp, #56]
	ldr	sl, .L139
	.loc 1 125 0
	cmp	r6, #20
	.loc 1 123 0
.L132:
	add	sl, pc, sl
	mov	r7, r2
	.loc 1 123 0
	str	r0, [sp, #12]
	mov	fp, r1
	mov	r8, r3
	ldr	r9, [sp, #64]
	.loc 1 125 0
	bgt	.L111
.LVL55:
	.loc 1 129 0
	cmp	r2, r3
	beq	.L135
.LVL56:
	.loc 1 136 0
	ldr	r2, [r2, #4]
.LVL57:
	cmp	r2, #3
	beq	.L134
	.loc 1 148 0
	cmp	r2, #1
	beq	.L134
	.loc 1 158 0
	cmp	r2, #5
	beq	.L111
	.loc 1 160 0
	cmp	r2, #4
	beq	.L111
	.loc 1 162 0
	cmp	r2, #2
	beq	.L136
	.loc 1 185 0
	ldr	r1, .L139+4
	mov	r0, #0
	add	r1, sl, r1
	bl	assert(PLT)
.LVL58:
	mov	r4, #0
.LVL59:
.L115:
.LVL60:
	.loc 1 188 0
	mov	r0, r4
	add	sp, sp, #20
	ldmfd	sp!, {r4, r5, r6, r7, r8, r9, sl, fp, pc}
.LVL61:
.L111:
	.loc 1 186 0
	mov	r4, #0
.LVL62:
	b	.L115
.LVL63:
.L134:
.LBB14:
	.loc 1 149 0
	ldr	r4, [sp, #60]
	ldr	r2, [r7, #24]
	add	ip, r4, #1
	add	lr, r6, #1
	str	lr, [sp, #0]
	str	ip, [sp, #4]
	str	r9, [sp, #8]
	bl	PopulateRouteNodeInfo(PLT)
.LVL64:
	.loc 1 150 0
	subs	r4, r0, #0
.LVL65:
	beq	.L115
	.loc 1 151 0
	ldr	r3, [r9, #0]
	.loc 1 152 0
	ldr	r1, .L139+8
	.loc 1 151 0
	add	r3, r3, #1
	.loc 1 152 0
	cmp	r3, #100
	movgt	r0, #0
	movle	r0, #1
	.loc 1 151 0
	str	r3, [r9, #0]
	.loc 1 152 0
	add	r1, sl, r1
	bl	assert(PLT)
	.loc 1 153 0
	ldr	ip, [sp, #60]
	ldr	r0, [sp, #12]
	add	r3, ip, ip, asl #1
	mov	r3, r3, asl #2
	add	r2, r0, r3
	.loc 1 155 0
	add	r1, r7, #16
	.loc 1 153 0
	str	r7, [r0, r3]
	.loc 1 154 0
	mov	r3, #85
	.loc 1 155 0
	stmib	r2, {r1, r3}	@ phole stm
	b	.L115
.LVL66:
.L136:
.LBE14:
.LBB15:
	.loc 1 165 0
	ldr	r4, [sp, #60]
	add	r6, r6, #1
.LVL67:
	add	r5, r4, #1
	ldr	r2, [r7, #24]
	str	r6, [sp, #0]
	stmib	sp, {r5, r9}	@ phole stm
	.loc 1 164 0
	ldr	r4, [r9, #0]
.LVL68:
	.loc 1 165 0
	bl	PopulateRouteNodeInfo(PLT)
.LVL69:
	.loc 1 168 0
	ldr	r2, [r7, #40]
	mov	r3, r8
	.loc 1 165 0
	str	r0, [sp, #16]
.LVL70:
	.loc 1 166 0
	ldr	r8, [r9, #0]
.LVL71:
	.loc 1 168 0
	mov	r1, fp
	.loc 1 167 0
	str	r4, [r9, #0]
	.loc 1 168 0
	ldr	r0, [sp, #12]
	str	r6, [sp, #0]
	stmib	sp, {r5, r9}	@ phole stm
	bl	PopulateRouteNodeInfo(PLT)
.LVL72:
	.loc 1 170 0
	ldr	ip, [sp, #16]
	.loc 1 168 0
	mov	r4, r0
.LVL73:
	.loc 1 170 0
	cmp	ip, #0
	.loc 1 169 0
	ldr	r3, [r9, #0]
.LVL74:
	.loc 1 170 0
	bne	.L137
	.loc 1 176 0
	cmp	r0, #0
	bne	.L138
.L129:
	.loc 1 183 0
	ldr	r0, [sp, #16]
	orrs	r0, r0, r4
	moveq	r4, #0
	movne	r4, #1
.LVL75:
	b	.L115
.LVL76:
.L135:
.LBE15:
	.loc 1 130 0
	ldr	r3, [r9, #0]
.LVL77:
	.loc 1 131 0
	ldr	r1, .L139+8
	.loc 1 130 0
	add	r3, r3, #1
	.loc 1 131 0
	cmp	r3, #100
	movgt	r0, #0
	movle	r0, #1
	.loc 1 130 0
	str	r3, [r9, #0]
	.loc 1 131 0
	add	r1, sl, r1
	bl	assert(PLT)
.LVL78:
	.loc 1 132 0
	ldr	r0, [sp, #60]
	ldr	r2, [sp, #12]
	add	r3, r0, r0, asl #1
	mov	r3, r3, asl #2
	add	r1, r2, r3
	str	r7, [r2, r3]
	.loc 1 134 0
	mov	r4, #1
.LVL79:
	mov	r2, #0
	.loc 1 133 0
	mov	r3, #85
	.loc 1 134 0
	stmib	r1, {r2, r3}	@ phole stm
	b	.L115
.LVL80:
.L138:
.LBB16:
	.loc 1 178 0
	ldr	r1, .L139+8
	.loc 1 177 0
	add	r3, r3, #1
.LVL81:
	.loc 1 178 0
	cmp	r3, #100
	movgt	r0, #0
	movle	r0, #1
.LVL82:
	.loc 1 177 0
	str	r3, [r9, #0]
	.loc 1 178 0
	add	r1, sl, r1
	bl	assert(PLT)
	.loc 1 179 0
	ldr	r0, [sp, #60]
	ldr	ip, [sp, #12]
	add	r3, r0, r0, asl #1
	mov	r3, r3, asl #2
	add	r2, ip, r3
	.loc 1 181 0
	add	r1, r7, #32
	.loc 1 179 0
	str	r7, [ip, r3]
	.loc 1 180 0
	mov	r3, #67
	.loc 1 181 0
	stmib	r2, {r1, r3}	@ phole stm
	b	.L129
.LVL83:
.L137:
	.loc 1 172 0
	ldr	r1, .L139+8
	.loc 1 171 0
	add	r3, r8, #1
.LVL84:
	.loc 1 172 0
	cmp	r3, #100
	movgt	r0, #0
	movle	r0, #1
	.loc 1 171 0
	str	r3, [r9, #0]
	.loc 1 172 0
	add	r1, sl, r1
	bl	assert(PLT)
	.loc 1 173 0
	ldr	r0, [sp, #60]
	ldr	ip, [sp, #12]
	add	r3, r0, r0, asl #1
	mov	r3, r3, asl #2
	add	r2, ip, r3
	.loc 1 175 0
	add	r1, r7, #16
	.loc 1 173 0
	str	r7, [ip, r3]
	.loc 1 174 0
	mov	r3, #83
	.loc 1 175 0
	stmib	r2, {r1, r3}	@ phole stm
	b	.L129
.L140:
	.align	2
.L139:
	.word	_GLOBAL_OFFSET_TABLE_-(.L132+8)
	.word	.LC1(GOTOFF)
	.word	.LC4(GOTOFF)
.LBE16:
.LFE8:
	.size	PopulateRouteNodeInfo, .-PopulateRouteNodeInfo
	.align	2
	.global	DistanceToNextSensor
	.type	DistanceToNextSensor, %function
DistanceToNextSensor:
.LFB9:
	.loc 1 190 0
	@ args = 0, pretend = 0, frame = 12
	@ frame_needed = 0, uses_anonymous_args = 0
.LVL85:
	stmfd	sp!, {r4, r5, r6, r7, lr}
.LCFI9:
	.loc 1 194 0
	cmp	r1, #99
	.loc 1 190 0
	sub	sp, sp, #12
.LCFI10:
.LVL86:
	.loc 1 190 0
	mov	r5, r1
	.loc 1 194 0
	movgt	r7, #0
.LVL87:
	bgt	.L144
.LVL88:
.LBB17:
	.loc 1 195 0
	add	r3, r1, r1, asl #1
	add	r3, r0, r3, asl #2
	ldmia	r3, {r0, r1, r2}
.LVL89:
	stmia	sp, {r0, r1, r2}
	mov	r4, sp
	mov	lr, r1
	.loc 1 190 0
	mov	r6, r3
	mov	ip, r5
.LVL90:
	mov	r7, #0
.L146:
	.loc 1 201 0
	ldr	r3, [lr, #12]
.LBE17:
	.loc 1 194 0
	add	ip, ip, #1
.LBB18:
	.loc 1 195 0
	add	r0, r6, #12
.LBE18:
	.loc 1 194 0
	cmp	ip, #100
.LBB19:
	.loc 1 195 0
	mov	r6, r0
	.loc 1 201 0
	add	r7, r7, r3
.LBE19:
	.loc 1 194 0
	beq	.L144
.LBB20:
	.loc 1 195 0
	ldmia	r0, {r0, r1, r2}
	stmia	r4, {r0, r1, r2}
	.loc 1 197 0
	ldmia	sp, {r3, lr}	@ phole ldm
	ldr	r2, [r3, #4]
	cmp	r2, #1
	movne	r1, #0
	moveq	r1, #1
	cmp	r5, ip
	moveq	r1, #0
	cmp	r1, #0
	beq	.L146
.LVL91:
.L144:
.LBE20:
	.loc 1 205 0
	mov	r0, r7
.LVL92:
	add	sp, sp, #12
	ldmfd	sp!, {r4, r5, r6, r7, pc}
.LFE9:
	.size	DistanceToNextSensor, .-DistanceToNextSensor
	.align	2
	.global	GetNextSensor
	.type	GetNextSensor, %function
GetNextSensor:
.LFB10:
	.loc 1 207 0
	@ args = 0, pretend = 0, frame = 12
	@ frame_needed = 0, uses_anonymous_args = 0
.LVL93:
	stmfd	sp!, {r4, r5, lr}
.LCFI11:
	.loc 1 210 0
	cmp	r1, #99
	.loc 1 207 0
	sub	sp, sp, #12
.LCFI12:
.LVL94:
	.loc 1 207 0
	addle	r3, r1, r1, asl #1
	mov	r4, r1
	addle	r5, r0, r3, asl #2
	movle	ip, r1
.LVL95:
	movle	lr, sp
	.loc 1 210 0
	bgt	.L149
.LVL96:
.L151:
	add	ip, ip, #1
.LBB21:
	.loc 1 211 0
	add	r0, r5, #12
.LVL97:
.LBE21:
	.loc 1 210 0
	cmp	ip, #100
.LBB22:
	.loc 1 211 0
	mov	r5, r0
.LBE22:
	.loc 1 210 0
	beq	.L149
.LVL98:
.LBB23:
	.loc 1 211 0
	ldmia	r0, {r0, r1, r2}
.LVL99:
	stmia	lr, {r0, r1, r2}
	ldr	r0, [sp, #0]
	.loc 1 213 0
	ldr	r3, [r0, #4]
	cmp	r3, #1
	movne	r2, #0
	moveq	r2, #1
	cmp	r4, ip
	moveq	r2, #0
	cmp	r2, #0
	beq	.L151
.LVL100:
.L153:
.LBE23:
	.loc 1 220 0
	add	sp, sp, #12
	ldmfd	sp!, {r4, r5, pc}
.LVL101:
.L149:
	.loc 1 210 0
	mov	r0, #0
.LVL102:
	b	.L153
.LFE10:
	.size	GetNextSensor, .-GetNextSensor
	.section	.debug_frame,"",%progbits
.Lframe0:
	.4byte	.LECIE0-.LSCIE0
.LSCIE0:
	.4byte	0xffffffff
	.byte	0x1
	.ascii	"\000"
	.uleb128 0x1
	.sleb128 -4
	.byte	0xe
	.byte	0xc
	.uleb128 0xd
	.uleb128 0x0
	.align	2
.LECIE0:
.LSFDE0:
	.4byte	.LEFDE0-.LASFDE0
.LASFDE0:
	.4byte	.Lframe0
	.4byte	.LFB2
	.4byte	.LFE2-.LFB2
	.byte	0x4
	.4byte	.LCFI0-.LFB2
	.byte	0xe
	.uleb128 0xc
	.byte	0x8e
	.uleb128 0x1
	.byte	0x8a
	.uleb128 0x2
	.byte	0x84
	.uleb128 0x3
	.align	2
.LEFDE0:
.LSFDE2:
	.4byte	.LEFDE2-.LASFDE2
.LASFDE2:
	.4byte	.Lframe0
	.4byte	.LFB3
	.4byte	.LFE3-.LFB3
	.byte	0x4
	.4byte	.LCFI1-.LFB3
	.byte	0xe
	.uleb128 0x10
	.byte	0x8e
	.uleb128 0x1
	.byte	0x86
	.uleb128 0x2
	.byte	0x85
	.uleb128 0x3
	.byte	0x84
	.uleb128 0x4
	.align	2
.LEFDE2:
.LSFDE4:
	.4byte	.LEFDE4-.LASFDE4
.LASFDE4:
	.4byte	.Lframe0
	.4byte	.LFB4
	.4byte	.LFE4-.LFB4
	.byte	0x4
	.4byte	.LCFI2-.LFB4
	.byte	0xe
	.uleb128 0xc
	.byte	0x8e
	.uleb128 0x1
	.byte	0x85
	.uleb128 0x2
	.byte	0x84
	.uleb128 0x3
	.align	2
.LEFDE4:
.LSFDE6:
	.4byte	.LEFDE6-.LASFDE6
.LASFDE6:
	.4byte	.Lframe0
	.4byte	.LFB6
	.4byte	.LFE6-.LFB6
	.byte	0x4
	.4byte	.LCFI3-.LFB6
	.byte	0xe
	.uleb128 0x1c
	.byte	0x8e
	.uleb128 0x1
	.byte	0x8a
	.uleb128 0x2
	.byte	0x88
	.uleb128 0x3
	.byte	0x87
	.uleb128 0x4
	.byte	0x86
	.uleb128 0x5
	.byte	0x85
	.uleb128 0x6
	.byte	0x84
	.uleb128 0x7
	.align	2
.LEFDE6:
.LSFDE8:
	.4byte	.LEFDE8-.LASFDE8
.LASFDE8:
	.4byte	.Lframe0
	.4byte	.LFB5
	.4byte	.LFE5-.LFB5
	.byte	0x4
	.4byte	.LCFI4-.LFB5
	.byte	0xe
	.uleb128 0x20
	.byte	0x8e
	.uleb128 0x1
	.byte	0x8a
	.uleb128 0x2
	.byte	0x89
	.uleb128 0x3
	.byte	0x88
	.uleb128 0x4
	.byte	0x87
	.uleb128 0x5
	.byte	0x86
	.uleb128 0x6
	.byte	0x85
	.uleb128 0x7
	.byte	0x84
	.uleb128 0x8
	.align	2
.LEFDE8:
.LSFDE10:
	.4byte	.LEFDE10-.LASFDE10
.LASFDE10:
	.4byte	.Lframe0
	.4byte	.LFB7
	.4byte	.LFE7-.LFB7
	.byte	0x4
	.4byte	.LCFI5-.LFB7
	.byte	0xe
	.uleb128 0x20
	.byte	0x4
	.4byte	.LCFI6-.LCFI5
	.byte	0xe
	.uleb128 0x24
	.byte	0x8e
	.uleb128 0x1
	.byte	0x8a
	.uleb128 0x2
	.byte	0x89
	.uleb128 0x3
	.byte	0x88
	.uleb128 0x4
	.byte	0x87
	.uleb128 0x5
	.byte	0x86
	.uleb128 0x6
	.byte	0x85
	.uleb128 0x7
	.byte	0x84
	.uleb128 0x8
	.align	2
.LEFDE10:
.LSFDE12:
	.4byte	.LEFDE12-.LASFDE12
.LASFDE12:
	.4byte	.Lframe0
	.4byte	.LFB8
	.4byte	.LFE8-.LFB8
	.byte	0x4
	.4byte	.LCFI7-.LFB8
	.byte	0xe
	.uleb128 0x24
	.byte	0x4
	.4byte	.LCFI8-.LCFI7
	.byte	0xe
	.uleb128 0x38
	.byte	0x8e
	.uleb128 0x1
	.byte	0x8b
	.uleb128 0x2
	.byte	0x8a
	.uleb128 0x3
	.byte	0x89
	.uleb128 0x4
	.byte	0x88
	.uleb128 0x5
	.byte	0x87
	.uleb128 0x6
	.byte	0x86
	.uleb128 0x7
	.byte	0x85
	.uleb128 0x8
	.byte	0x84
	.uleb128 0x9
	.align	2
.LEFDE12:
.LSFDE14:
	.4byte	.LEFDE14-.LASFDE14
.LASFDE14:
	.4byte	.Lframe0
	.4byte	.LFB9
	.4byte	.LFE9-.LFB9
	.byte	0x4
	.4byte	.LCFI9-.LFB9
	.byte	0xe
	.uleb128 0x14
	.byte	0x4
	.4byte	.LCFI10-.LCFI9
	.byte	0xe
	.uleb128 0x20
	.byte	0x8e
	.uleb128 0x1
	.byte	0x87
	.uleb128 0x2
	.byte	0x86
	.uleb128 0x3
	.byte	0x85
	.uleb128 0x4
	.byte	0x84
	.uleb128 0x5
	.align	2
.LEFDE14:
.LSFDE16:
	.4byte	.LEFDE16-.LASFDE16
.LASFDE16:
	.4byte	.Lframe0
	.4byte	.LFB10
	.4byte	.LFE10-.LFB10
	.byte	0x4
	.4byte	.LCFI11-.LFB10
	.byte	0xe
	.uleb128 0xc
	.byte	0x4
	.4byte	.LCFI12-.LCFI11
	.byte	0xe
	.uleb128 0x18
	.byte	0x8e
	.uleb128 0x1
	.byte	0x85
	.uleb128 0x2
	.byte	0x84
	.uleb128 0x3
	.align	2
.LEFDE16:
	.file 2 "tracks/track_node.h"
	.file 3 "random.h"
	.file 4 "train.h"
	.file 5 "route.h"
	.file 6 "queue.h"
	.text
.Letext0: