	.file	"tasks.c"
	.text
.Ltext0:
	.section	.rodata
	.align	2
	.type	CLOCK_SERVER_NAME, %object
	.size	CLOCK_SERVER_NAME, 8
CLOCK_SERVER_NAME:
	.ascii	"ClckSvr\000"
	.align	2
	.type	TRAIN_OUTPUT_SERVER_NAME, %object
	.size	TRAIN_OUTPUT_SERVER_NAME, 7
TRAIN_OUTPUT_SERVER_NAME:
	.ascii	"TrOSvr\000"
	.align	2
	.type	TRAIN_INPUT_SERVER_NAME, %object
	.size	TRAIN_INPUT_SERVER_NAME, 7
TRAIN_INPUT_SERVER_NAME:
	.ascii	"TrISvr\000"
	.align	2
	.type	SCREEN_OUTPUT_SERVER_NAME, %object
	.size	SCREEN_OUTPUT_SERVER_NAME, 7
SCREEN_OUTPUT_SERVER_NAME:
	.ascii	"KbOSvr\000"
	.align	2
	.type	KEYBOARD_INPUT_SERVER_NAME, %object
	.size	KEYBOARD_INPUT_SERVER_NAME, 7
KEYBOARD_INPUT_SERVER_NAME:
	.ascii	"KbISvr\000"
	.align	2
	.type	TRAIN_SERVER_NAME, %object
	.size	TRAIN_SERVER_NAME, 7
TRAIN_SERVER_NAME:
	.ascii	"TrnSvr\000"
	.align	2
	.type	UI_SERVER_NAME, %object
	.size	UI_SERVER_NAME, 6
UI_SERVER_NAME:
	.ascii	"UISvr\000"
	.align	2
	.type	ADMINISTRATOR_TASK_NAME, %object
	.size	ADMINISTRATOR_TASK_NAME, 6
ADMINISTRATOR_TASK_NAME:
	.ascii	"Admin\000"
	.align	2
	.type	IDLE_TASK_NAME, %object
	.size	IDLE_TASK_NAME, 5
IDLE_TASK_NAME:
	.ascii	"Idle\000"
	.align	2
	.type	__func__.2396, %object
	.size	__func__.2396, 17
__func__.2396:
	.ascii	"KernelTask_Start\000"
	.section	.rodata.str1.4,"aMS",%progbits,1
	.align	2
.LC0:
	.ascii	"FirstTask tid not 1, got %d\000"
	.align	2
.LC1:
	.ascii	"Shouldn't see me\012\000"
	.text
	.align	2
	.global	KernelTask_Start
	.type	KernelTask_Start, %function
KernelTask_Start:
.LFB2:
	.file 1 "tasks.c"
	.loc 1 21 0
	@ args = 0, pretend = 0, frame = 0
	@ frame_needed = 0, uses_anonymous_args = 0
.LVL0:
	stmfd	sp!, {sl, lr}
.LCFI0:
	ldr	sl, .L4
	.loc 1 22 0
	ldr	r2, .L4+4
	ldr	r3, .L4+8
	.loc 1 21 0
.L3:
	add	sl, pc, sl
	.loc 1 22 0
	ldr	r1, [sl, r2]
	ldr	r0, [sl, r3]
	bl	DebugRegisterFunction(PLT)
	.loc 1 23 0
	ldr	r3, .L4+12
	mov	r0, #0
	ldr	r1, [sl, r3]
	bl	Create(PLT)
	.loc 1 25 0
	ldr	r1, .L4+16
	.loc 1 23 0
	mov	r2, r0
.LVL1:
	.loc 1 25 0
	add	r1, sl, r1
	cmp	r0, #1
	movne	r0, #0
	moveq	r0, #1
	bl	assertf(PLT)
.LVL2:
	.loc 1 27 0
	bl	Exit(PLT)
	.loc 1 28 0
	ldr	r1, .L4+20
	mov	r0, #0
	add	r1, sl, r1
	.loc 1 29 0
	ldmfd	sp!, {sl, lr}
	.loc 1 28 0
	b	assert(PLT)
.L5:
	.align	2
.L4:
	.word	_GLOBAL_OFFSET_TABLE_-(.L3+8)
	.word	__func__.2396(GOT)
	.word	KernelTask_Start(GOT)
	.word	FirstTask_Start(GOT)
	.word	.LC0(GOTOFF)
	.word	.LC1(GOTOFF)
.LFE2:
	.size	KernelTask_Start, .-KernelTask_Start
	.section	.rodata
	.align	2
	.type	__func__.2402, %object
	.size	__func__.2402, 16
__func__.2402:
	.ascii	"FirstTask_Start\000"
	.section	.rodata.str1.4
	.align	2
.LC2:
	.ascii	"NameServer tid not 2\000"
	.align	2
.LC3:
	.ascii	"ClockServer tid not positive\000"
	.align	2
.LC4:
	.ascii	"AdministratorTask tid not positive\000"
	.align	2
.LC5:
	.ascii	"SchedulerWatchdogTask tid not positive\000"
	.align	2
.LC6:
	.ascii	"UARTBootstrapTask tid not positive\000"
	.align	2
.LC7:
	.ascii	"TrainServer tid not positive\000"
	.align	2
.LC8:
	.ascii	"UIServer_Start tid not positive\000"
	.align	2
.LC9:
	.ascii	"IdleTask tid not postive\000"
	.text
	.align	2
	.global	FirstTask_Start
	.type	FirstTask_Start, %function
FirstTask_Start:
.LFB3:
	.loc 1 31 0
	@ args = 0, pretend = 0, frame = 0
	@ frame_needed = 0, uses_anonymous_args = 0
.LVL3:
	stmfd	sp!, {sl, lr}
.LCFI1:
	ldr	sl, .L9
	.loc 1 32 0
	ldr	r2, .L9+4
	ldr	r3, .L9+8
	.loc 1 31 0
.L8:
	add	sl, pc, sl
	.loc 1 32 0
	ldr	r1, [sl, r2]
	ldr	r0, [sl, r3]
	bl	DebugRegisterFunction(PLT)
	.loc 1 36 0
	ldr	r3, .L9+12
	mov	r0, #1
	ldr	r1, [sl, r3]
	bl	Create(PLT)
	.loc 1 37 0
	ldr	r1, .L9+16
	cmp	r0, #2
	movne	r0, #0
	moveq	r0, #1
	add	r1, sl, r1
	bl	assert(PLT)
	.loc 1 38 0
	bl	Pass(PLT)
	.loc 1 40 0
	ldr	r3, .L9+20
	mov	r0, #0
	ldr	r1, [sl, r3]
	bl	Create(PLT)
	.loc 1 41 0
	ldr	r1, .L9+24
	cmp	r0, #0
	movle	r0, #0
	movgt	r0, #1
	add	r1, sl, r1
	bl	assert(PLT)
	.loc 1 42 0
	bl	Pass(PLT)
	.loc 1 44 0
	ldr	r3, .L9+28
	mov	r0, #2
	ldr	r1, [sl, r3]
	bl	Create(PLT)
	.loc 1 45 0
	ldr	r1, .L9+32
	cmp	r0, #0
	movle	r0, #0
	movgt	r0, #1
	add	r1, sl, r1
	bl	assert(PLT)
	.loc 1 46 0
	bl	Pass(PLT)
	.loc 1 48 0
	ldr	r3, .L9+36
	mov	r0, #31
	ldr	r1, [sl, r3]
	bl	Create(PLT)
	.loc 1 49 0
	ldr	r1, .L9+40
	cmp	r0, #0
	movle	r0, #0
	movgt	r0, #1
	add	r1, sl, r1
	bl	assert(PLT)
	.loc 1 50 0
	bl	Pass(PLT)
	.loc 1 53 0
	ldr	r3, .L9+44
	mov	r0, #3
	ldr	r1, [sl, r3]
	bl	Create(PLT)
	.loc 1 54 0
	ldr	r1, .L9+48
	cmp	r0, #0
	movle	r0, #0
	movgt	r0, #1
	add	r1, sl, r1
	bl	assert(PLT)
	.loc 1 55 0
	bl	Pass(PLT)
	.loc 1 57 0
	ldr	r3, .L9+52
	mov	r0, #8
	ldr	r1, [sl, r3]
	bl	Create(PLT)
	.loc 1 58 0
	ldr	r1, .L9+56
	cmp	r0, #0
	movle	r0, #0
	movgt	r0, #1
	add	r1, sl, r1
	bl	assert(PLT)
	.loc 1 59 0
	bl	Pass(PLT)
	.loc 1 61 0
	ldr	r3, .L9+60
	mov	r0, #7
	ldr	r1, [sl, r3]
	bl	Create(PLT)
	.loc 1 62 0
	ldr	r1, .L9+64
	cmp	r0, #0
	movle	r0, #0
	movgt	r0, #1
	add	r1, sl, r1
	bl	assert(PLT)
	.loc 1 63 0
	bl	Pass(PLT)
	.loc 1 155 0
	ldr	r3, .L9+68
	mov	r0, #31
	ldr	r1, [sl, r3]
	bl	Create(PLT)
	.loc 1 156 0
	ldr	r1, .L9+72
	add	r1, sl, r1
	bl	assertf(PLT)
	.loc 1 159 0
	bl	Exit(PLT)
	.loc 1 161 0
	ldr	r1, .L9+76
	mov	r0, #0
	add	r1, sl, r1
	.loc 1 162 0
	ldmfd	sp!, {sl, lr}
	.loc 1 161 0
	b	assert(PLT)
.L10:
	.align	2
.L9:
	.word	_GLOBAL_OFFSET_TABLE_-(.L8+8)
	.word	__func__.2402(GOT)
	.word	FirstTask_Start(GOT)
	.word	NameServer_Start(GOT)
	.word	.LC2(GOTOFF)
	.word	ClockServer_Start(GOT)
	.word	.LC3(GOTOFF)
	.word	AdministratorTask_Start(GOT)
	.word	.LC4(GOTOFF)
	.word	SchedulerWatchdogTask_Start(GOT)
	.word	.LC5(GOTOFF)
	.word	UARTBootstrapTask_Start(GOT)
	.word	.LC6(GOTOFF)
	.word	TrainServer_Start(GOT)
	.word	.LC7(GOTOFF)
	.word	UIServer_Start(GOT)
	.word	.LC8(GOTOFF)
	.word	IdleTask_Start(GOT)
	.word	.LC9(GOTOFF)
	.word	.LC1(GOTOFF)
.LFE3:
	.size	FirstTask_Start, .-FirstTask_Start
	.section	.rodata
	.align	2
	.type	__func__.2416, %object
	.size	__func__.2416, 21
__func__.2416:
	.ascii	"ClockPrintTask_Start\000"
	.global	__ltsf2
	.text
	.align	2
	.global	ClockPrintTask_Start
	.type	ClockPrintTask_Start, %function
ClockPrintTask_Start:
.LFB4:
	.loc 1 164 0
	@ args = 0, pretend = 0, frame = 0
	@ frame_needed = 0, uses_anonymous_args = 0
.LVL4:
	stmfd	sp!, {sl, lr}
.LCFI2:
	ldr	sl, .L18
	.loc 1 165 0
	ldr	r3, .L18+4
	ldr	r2, .L18+8
	.loc 1 164 0
.L16:
	add	sl, pc, sl
	.loc 1 165 0
	ldr	r0, [sl, r3]
	ldr	r1, [sl, r2]
	.loc 1 165 0
	bl	DebugRegisterFunction(PLT)
	b	.L12
.L13:
	.loc 1 167 0
	bl	print_current_time(PLT)
	.loc 1 168 0
	mov	r0, #1065353216
	bl	DelaySeconds(PLT)
.L12:
	.loc 1 166 0
	bl	TimeSeconds(PLT)
	ldr	r1, .L18+12
	bl	__ltsf2(PLT)
	cmp	r0, #0
	blt	.L13
	.loc 1 172 0
	ldmfd	sp!, {sl, lr}
	.loc 1 171 0
	b	Exit(PLT)
.L19:
	.align	2
.L18:
	.word	_GLOBAL_OFFSET_TABLE_-(.L16+8)
	.word	ClockPrintTask_Start(GOT)
	.word	__func__.2416(GOT)
	.word	1082130432
.LFE4:
	.size	ClockPrintTask_Start, .-ClockPrintTask_Start
	.section	.rodata
	.align	2
	.type	__func__.2423, %object
	.size	__func__.2423, 15
__func__.2423:
	.ascii	"IdleTask_Start\000"
	.section	.rodata.str1.4
	.align	2
.LC10:
	.ascii	"fail\012\000"
	.align	2
.LC11:
	.ascii	"Nope.\000"
	.text
	.align	2
	.global	IdleTask_Start
	.type	IdleTask_Start, %function
IdleTask_Start:
.LFB5:
	.loc 1 174 0
	@ args = 0, pretend = 0, frame = 32
	@ frame_needed = 0, uses_anonymous_args = 0
.LVL5:
	stmfd	sp!, {r4, r5, r6, r7, r8, sl, lr}
.LCFI3:
	ldr	sl, .L31
	.loc 1 175 0
	ldr	r3, .L31+4
	ldr	r2, .L31+8
	.loc 1 174 0
.L29:
	add	sl, pc, sl
	sub	sp, sp, #36
.LCFI4:
.LVL6:
	.loc 1 175 0
	ldr	r0, [sl, r3]
	ldr	r1, [sl, r2]
	bl	DebugRegisterFunction(PLT)
	.loc 1 176 0
	ldr	r3, .L31+12
	ldr	r5, .L31+16
	ldr	r0, [sl, r3]
	bl	RegisterAs(PLT)
	.loc 1 182 0
	add	r8, sp, #4
	.loc 1 183 0
	mov	r3, #22
	str	r3, [sp, #20]
	b	.L21
.LVL7:
.L30:
	.loc 1 193 0
	bl	DelaySeconds(PLT)
.L21:
	.loc 1 187 0
	ldr	r0, [sl, r5]
	bl	WhoIs(PLT)
	.loc 1 189 0
	subs	r4, r0, #0
	.loc 1 193 0
	ldr	r0, .L31+20
	.loc 1 189 0
	beq	.L30
	ldr	r7, .L31+24
	add	r6, sp, #20
	mov	r5, #16
.L22:
	.loc 1 197 0
	mov	r3, r8
	mov	r1, r6
	mov	r2, r5
	mov	r0, r4
	str	r5, [sp, #0]
	bl	Send(PLT)
	.loc 1 198 0
	ldr	r0, [sp, #4]
	add	r1, sl, r7
	cmp	r0, #12
	cmpne	r0, #10
	movne	r0, #0
	moveq	r0, #1
	bl	assertf(PLT)
	.loc 1 200 0
	ldr	r3, [sp, #4]
	cmp	r3, #12
	bne	.L22
	.loc 1 205 0
	bl	Exit(PLT)
	.loc 1 206 0
	ldr	r1, .L31+28
	mov	r0, #0
	add	r1, sl, r1
	bl	assert(PLT)
	.loc 1 207 0
	add	sp, sp, #36
	ldmfd	sp!, {r4, r5, r6, r7, r8, sl, pc}
.L32:
	.align	2
.L31:
	.word	_GLOBAL_OFFSET_TABLE_-(.L29+8)
	.word	IdleTask_Start(GOT)
	.word	__func__.2423(GOT)
	.word	IDLE_TASK_NAME(GOT)
	.word	ADMINISTRATOR_TASK_NAME(GOT)
	.word	1045220557
	.word	.LC10(GOTOFF)
	.word	.LC11(GOTOFF)
.LFE5:
	.size	IdleTask_Start, .-IdleTask_Start
	.section	.rodata
	.align	2
	.type	__func__.2441, %object
	.size	__func__.2441, 24
__func__.2441:
	.ascii	"AdministratorTask_Start\000"
	.section	.rodata.str1.4
	.align	2
.LC12:
	.ascii	"AdministratorTask_Start failed to register name\000"
	.align	2
.LC13:
	.ascii	"AdministratorTask_Start: unknown message type %d\000"
	.align	2
.LC14:
	.ascii	"AdministratorTask_Start: did not get a ack from ui "
	.ascii	"server\000"
	.align	2
.LC15:
	.ascii	"AdministratorTask_Start: did not get a ack from tra"
	.ascii	"in server\000"
	.align	2
.LC16:
	.ascii	"AdministratorTask_Start: did not get a ack from key"
	.ascii	"board input server\000"
	.align	2
.LC17:
	.ascii	"AdministratorTask_Start: did not get a ack from scr"
	.ascii	"een output server\000"
	.align	2
.LC18:
	.ascii	"AdministratorTask_Start: did not get a ack from tra"
	.ascii	"in input server\000"
	.align	2
.LC19:
	.ascii	"AdministratorTask_Start: did not get a ack from tra"
	.ascii	"in output server\000"
	.align	2
.LC20:
	.ascii	"AdministratorTask_Start: did not get a ack from clo"
	.ascii	"ck server\000"
	.align	2
.LC21:
	.ascii	"AdministratorTask_Start didn't get ACK from name se"
	.ascii	"rver\000"
	.text
	.align	2
	.global	AdministratorTask_Start
	.type	AdministratorTask_Start, %function
AdministratorTask_Start:
.LFB6:
	.loc 1 209 0
	@ args = 0, pretend = 0, frame = 52
	@ frame_needed = 0, uses_anonymous_args = 0
.LVL8:
	stmfd	sp!, {r4, r5, r6, r7, r8, r9, sl, lr}
.LCFI5:
	ldr	sl, .L51
	.loc 1 210 0
	ldr	r2, .L51+4
	ldr	r3, .L51+8
	.loc 1 209 0
.L47:
	add	sl, pc, sl
	sub	sp, sp, #56
.LCFI6:
.LVL9:
	.loc 1 210 0
	ldr	r1, [sl, r2]
	ldr	r0, [sl, r3]
	bl	DebugRegisterFunction(PLT)
	.loc 1 212 0
	ldr	r3, .L51+12
	.loc 1 229 0
	mov	r4, #0
.LVL10:
	.loc 1 212 0
	ldr	r0, [sl, r3]
	bl	RegisterAs(PLT)
	.loc 1 214 0
	ldr	r1, .L51+16
.LVL11:
	cmp	r0, r4
	movne	r0, #0
	moveq	r0, #1
	add	r1, sl, r1
	bl	assert(PLT)
	.loc 1 228 0
	add	r8, sp, #20
	.loc 1 229 0
	add	r6, sp, #4
.LVL12:
	mov	r5, r4
.LVL13:
	add	r7, sp, #52
	mov	r9, #10
	b	.L34
.LVL14:
.L50:
	.loc 1 252 0
	ldr	r1, .L51+20
	.loc 1 236 0
	cmp	r3, #22
	.loc 1 252 0
	add	r1, sl, r1
	mov	r2, r3
	mov	r0, #0
	.loc 1 236 0
	beq	.L48
	.loc 1 252 0
	bl	assertf(PLT)
.L38:
	.loc 1 257 0
	bl	Pass(PLT)
	.loc 1 234 0
	cmp	r4, #0
	cmpne	r5, #0
	bne	.L49
.L34:
	.loc 1 235 0
	mov	r1, r8
	mov	r2, #16
	mov	r0, r7
	bl	Receive(PLT)
	.loc 1 236 0
	ldr	r3, [sp, #20]
	.loc 1 240 0
	mov	r1, r6
	.loc 1 236 0
	cmp	r3, #12
	.loc 1 240 0
	mov	r2, #16
	.loc 1 236 0
	bne	.L50
	.loc 1 240 0
	ldr	r0, [sp, #52]
	.loc 1 238 0
	add	r4, r4, #1
	.loc 1 239 0
	str	r9, [r6, #0]
	.loc 1 240 0
	bl	Reply(PLT)
	.loc 1 257 0
	bl	Pass(PLT)
	.loc 1 234 0
	cmp	r4, #0
	cmpne	r5, #0
	beq	.L34
.L49:
	.loc 1 268 0
	ldr	r3, .L51+24
	mov	r4, #16
.LVL15:
	.loc 1 261 0
	add	r5, sp, #36
.LVL16:
	.loc 1 268 0
	ldr	r0, [sl, r3]
	.loc 1 263 0
	mov	r3, #12
	str	r3, [sp, #36]
	.loc 1 268 0
	bl	WhoIs(PLT)
	mov	r2, r4
	mov	r3, r6
	mov	r1, r5
	str	r4, [sp, #0]
	bl	Send(PLT)
	.loc 1 269 0
	ldr	r0, [sp, #4]
	ldr	r1, .L51+28
	cmp	r0, #10
	movne	r0, #0
	moveq	r0, #1
	add	r1, sl, r1
	bl	assertf(PLT)
	.loc 1 274 0
	ldr	r3, .L51+32
	ldr	r0, [sl, r3]
	bl	WhoIs(PLT)
	mov	r2, r4
	mov	r3, r6
	mov	r1, r5
	str	r4, [sp, #0]
	bl	Send(PLT)
	.loc 1 275 0
	ldr	r0, [sp, #4]
	ldr	r1, .L51+36
	cmp	r0, #10
	movne	r0, #0
	moveq	r0, #1
	add	r1, sl, r1
	bl	assertf(PLT)
	.loc 1 280 0
	ldr	r3, .L51+40
	ldr	r0, [sl, r3]
	bl	WhoIs(PLT)
	mov	r2, r4
	mov	r3, r6
	mov	r1, r5
	str	r4, [sp, #0]
	bl	Send(PLT)
	.loc 1 281 0
	ldr	r0, [sp, #4]
	ldr	r1, .L51+44
	cmp	r0, #10
	movne	r0, #0
	moveq	r0, #1
	add	r1, sl, r1
	bl	assertf(PLT)
	.loc 1 282 0
	ldr	r3, .L51+48
	ldr	r0, [sl, r3]
	bl	WhoIs(PLT)
	mov	r2, r4
	mov	r3, r6
	mov	r1, r5
	str	r4, [sp, #0]
	bl	Send(PLT)
	.loc 1 283 0
	ldr	r0, [sp, #4]
	ldr	r1, .L51+52
	cmp	r0, #10
	movne	r0, #0
	moveq	r0, #1
	add	r1, sl, r1
	bl	assertf(PLT)
	.loc 1 284 0
	ldr	r3, .L51+56
	ldr	r0, [sl, r3]
	bl	WhoIs(PLT)
	mov	r2, r4
	mov	r3, r6
	mov	r1, r5
	str	r4, [sp, #0]
	bl	Send(PLT)
	.loc 1 285 0
	ldr	r0, [sp, #4]
	ldr	r1, .L51+60
	cmp	r0, #10
	movne	r0, #0
	moveq	r0, #1
	add	r1, sl, r1
	bl	assertf(PLT)
	.loc 1 286 0
	ldr	r3, .L51+64
	ldr	r0, [sl, r3]
	bl	WhoIs(PLT)
	mov	r2, r4
	mov	r3, r6
	mov	r1, r5
	str	r4, [sp, #0]
	bl	Send(PLT)
	.loc 1 287 0
	ldr	r0, [sp, #4]
	ldr	r1, .L51+68
	cmp	r0, #10
	movne	r0, #0
	moveq	r0, #1
	add	r1, sl, r1
	bl	assertf(PLT)
	.loc 1 293 0
	ldr	r3, .L51+72
	ldr	r0, [sl, r3]
	bl	WhoIs(PLT)
	mov	r2, r4
	mov	r3, r6
	mov	r1, r5
	str	r4, [sp, #0]
	bl	Send(PLT)
	.loc 1 294 0
	ldr	r0, [sp, #4]
	ldr	r1, .L51+76
	cmp	r0, #10
	movne	r0, #0
	moveq	r0, #1
	add	r1, sl, r1
	bl	assertf(PLT)
	.loc 1 298 0
	mov	ip, #14
	.loc 1 300 0
	mov	r1, r5
	mov	r2, r4
	mov	r3, r6
	mov	r0, #2
	.loc 1 298 0
	str	ip, [sp, #36]
	.loc 1 300 0
	str	r4, [sp, #0]
	bl	Send(PLT)
	.loc 1 301 0
	ldr	r0, [sp, #4]
	ldr	r1, .L51+80
	cmp	r0, #10
	movne	r0, #0
	moveq	r0, #1
	add	r1, sl, r1
	bl	assert(PLT)
	.loc 1 303 0
	bl	Exit(PLT)
	.loc 1 304 0
	add	sp, sp, #56
	ldmfd	sp!, {r4, r5, r6, r7, r8, r9, sl, pc}
.LVL17:
.L48:
	.loc 1 243 0
	cmp	r4, #1
	.loc 1 244 0
	moveq	r3, #12
	.loc 1 249 0
	ldr	r0, [sp, #52]
	mov	r1, r6
	mov	r2, #16
	.loc 1 244 0
	moveq	r5, r4
	streq	r3, [r6, #0]
	.loc 1 247 0
	strne	r9, [r6, #0]
	.loc 1 249 0
	bl	Reply(PLT)
	b	.L38
.L52:
	.align	2
.L51:
	.word	_GLOBAL_OFFSET_TABLE_-(.L47+8)
	.word	__func__.2441(GOT)
	.word	AdministratorTask_Start(GOT)
	.word	ADMINISTRATOR_TASK_NAME(GOT)
	.word	.LC12(GOTOFF)
	.word	.LC13(GOTOFF)
	.word	UI_SERVER_NAME(GOT)
	.word	.LC14(GOTOFF)
	.word	TRAIN_SERVER_NAME(GOT)
	.word	.LC15(GOTOFF)
	.word	KEYBOARD_INPUT_SERVER_NAME(GOT)
	.word	.LC16(GOTOFF)
	.word	SCREEN_OUTPUT_SERVER_NAME(GOT)
	.word	.LC17(GOTOFF)
	.word	TRAIN_INPUT_SERVER_NAME(GOT)
	.word	.LC18(GOTOFF)
	.word	TRAIN_OUTPUT_SERVER_NAME(GOT)
	.word	.LC19(GOTOFF)
	.word	CLOCK_SERVER_NAME(GOT)
	.word	.LC20(GOTOFF)
	.word	.LC21(GOTOFF)
.LFE6:
	.size	AdministratorTask_Start, .-AdministratorTask_Start
	.align	2
	.global	overflow
	.type	overflow, %function
overflow:
.LFB7:
	.loc 1 306 0
	@ args = 0, pretend = 0, frame = 0
	@ frame_needed = 0, uses_anonymous_args = 0
.LVL18:
	stmfd	sp!, {r4, r5, lr}
.LCFI7:
	.loc 1 306 0
	mov	r5, r0
	mov	r4, #0
	b	.L55
.LVL19:
.L59:
	.loc 1 309 0
	add	r4, r4, #1
.LVL20:
.L55:
	.loc 1 308 0
	bl	Pass(PLT)
	.loc 1 309 0
	cmp	r4, r5
	bne	.L59
	.loc 1 314 0
	sub	r0, r4, #1
	ldmfd	sp!, {r4, r5, pc}
.LFE7:
	.size	overflow, .-overflow
	.section	.debug_frame,"",%progbits
.Lframe0:
	.4byte	.LECIE0-.LSCIE0
.LSCIE0:
	.4byte	0xffffffff
	.byte	0x1
	.ascii	"\000"
	.uleb128 0x1
	.sleb128 -4
	.byte	0xe
	.byte	0xc
	.uleb128 0xd
	.uleb128 0x0
	.align	2
.LECIE0:
.LSFDE0:
	.4byte	.LEFDE0-.LASFDE0
.LASFDE0:
	.4byte	.Lframe0
	.4byte	.LFB2
	.4byte	.LFE2-.LFB2
	.byte	0x4
	.4byte	.LCFI0-.LFB2
	.byte	0xe
	.uleb128 0x8
	.byte	0x8e
	.uleb128 0x1
	.byte	0x8a
	.uleb128 0x2
	.align	2
.LEFDE0:
.LSFDE2:
	.4byte	.LEFDE2-.LASFDE2
.LASFDE2:
	.4byte	.Lframe0
	.4byte	.LFB3
	.4byte	.LFE3-.LFB3
	.byte	0x4
	.4byte	.LCFI1-.LFB3
	.byte	0xe
	.uleb128 0x8
	.byte	0x8e
	.uleb128 0x1
	.byte	0x8a
	.uleb128 0x2
	.align	2
.LEFDE2:
.LSFDE4:
	.4byte	.LEFDE4-.LASFDE4
.LASFDE4:
	.4byte	.Lframe0
	.4byte	.LFB4
	.4byte	.LFE4-.LFB4
	.byte	0x4
	.4byte	.LCFI2-.LFB4
	.byte	0xe
	.uleb128 0x8
	.byte	0x8e
	.uleb128 0x1
	.byte	0x8a
	.uleb128 0x2
	.align	2
.LEFDE4:
.LSFDE6:
	.4byte	.LEFDE6-.LASFDE6
.LASFDE6:
	.4byte	.Lframe0
	.4byte	.LFB5
	.4byte	.LFE5-.LFB5
	.byte	0x4
	.4byte	.LCFI3-.LFB5
	.byte	0xe
	.uleb128 0x1c
	.byte	0x8e
	.uleb128 0x1
	.byte	0x8a
	.uleb128 0x2
	.byte	0x88
	.uleb128 0x3
	.byte	0x87
	.uleb128 0x4
	.byte	0x86
	.uleb128 0x5
	.byte	0x85
	.uleb128 0x6
	.byte	0x84
	.uleb128 0x7
	.byte	0x4
	.4byte	.LCFI4-.LCFI3
	.byte	0xe
	.uleb128 0x40
	.align	2
.LEFDE6:
.LSFDE8:
	.4byte	.LEFDE8-.LASFDE8
.LASFDE8:
	.4byte	.Lframe0
	.4byte	.LFB6
	.4byte	.LFE6-.LFB6
	.byte	0x4
	.4byte	.LCFI5-.LFB6
	.byte	0xe
	.uleb128 0x20
	.byte	0x8e
	.uleb128 0x1
	.byte	0x8a
	.uleb128 0x2
	.byte	0x89
	.uleb128 0x3
	.byte	0x88
	.uleb128 0x4
	.byte	0x87
	.uleb128 0x5
	.byte	0x86
	.uleb128 0x6
	.byte	0x85
	.uleb128 0x7
	.byte	0x84
	.uleb128 0x8
	.byte	0x4
	.4byte	.LCFI6-.LCFI5
	.byte	0xe
	.uleb128 0x58
	.align	2
.LEFDE8:
.LSFDE10:
	.4byte	.LEFDE10-.LASFDE10
.LASFDE10:
	.4byte	.Lframe0
	.4byte	.LFB7
	.4byte	.LFE7-.LFB7
	.byte	0x4
	.4byte	.LCFI7-.LFB7
	.byte	0xe
	.uleb128 0xc
	.byte	0x8e
	.uleb128 0x1
	.byte	0x85
	.uleb128 0x2
	.byte	0x84
	.uleb128 0x3
	.align	2
.LEFDE10:
	.file 2 "message.h"
	.file 3 "nameserver.h"
	.file 4 "queue.h"
	.file 5 "tasks.h"
	.file 6 "train.h"
	.file 7 "public_kernel_interface.h"
	.file 8 "task_descriptor.h"
	.file 9 "buffer.h"
	.file 10 "rps.h"
	.file 11 "clock.h"
	.file 12 "uart.h"
	.file 13 "ui.h"
	.text
.Letext0: