	.file	"train.c"
	.text
.Ltext0:
	.section	.rodata
	.align	2
	.type	TRAIN_SERVER_NAME, %object
	.size	TRAIN_SERVER_NAME, 7
TRAIN_SERVER_NAME:
	.ascii	"TrnSvr\000"
	.align	2
	.type	TRAIN_SWITCH_MASTER_NAME, %object
	.size	TRAIN_SWITCH_MASTER_NAME, 7
TRAIN_SWITCH_MASTER_NAME:
	.ascii	"TrSwMr\000"
	.align	2
	.type	TRAIN_COMMAND_SERVER_NAME, %object
	.size	TRAIN_COMMAND_SERVER_NAME, 7
TRAIN_COMMAND_SERVER_NAME:
	.ascii	"TCmSvr\000"
	.align	2
	.type	TRAIN_SERVER_TIMER_NAME, %object
	.size	TRAIN_SERVER_TIMER_NAME, 7
TRAIN_SERVER_TIMER_NAME:
	.ascii	"TrSTmr\000"
	.text
	.align	2
	.global	TrainServer_HandleSwitchData
	.type	TrainServer_HandleSwitchData, %function
TrainServer_HandleSwitchData:
.LFB6:
	.file 1 "train.c"
	.loc 1 212 0
	@ args = 0, pretend = 0, frame = 0
	@ frame_needed = 0, uses_anonymous_args = 0
	@ link register save eliminated.
.LVL0:
	.loc 1 216 0
	ldrb	r3, [r0, #8]	@ zero_extendqisi2
	.loc 1 214 0
	add	ip, r0, #16
	.loc 1 216 0
	cmp	r3, #34
	.loc 1 217 0
	ldreqb	r1, [r0, #9]	@ zero_extendqisi2
	.loc 1 219 0
	ldrneb	r3, [r0, #9]	@ zero_extendqisi2
	.loc 1 217 0
	ldreq	r3, .L6
	.loc 1 219 0
	ldrne	r2, .L6
	.loc 1 217 0
	addeq	r1, r0, r1, asl #2
	.loc 1 219 0
	addne	r3, r0, r3, asl #2
	.loc 1 217 0
	moveq	r2, #67
	.loc 1 219 0
	movne	r1, #83
	.loc 1 223 0
	ldr	r0, [r0, #420]
.LVL1:
	.loc 1 217 0
	streq	r2, [r1, r3]
	.loc 1 219 0
	strne	r1, [r3, r2]
	.loc 1 222 0
	mov	r3, #10
	.loc 1 223 0
	mov	r1, ip
	mov	r2, #16
	.loc 1 212 0
	@ lr needed for prologue
	.loc 1 222 0
	str	r3, [ip, #0]
	.loc 1 224 0
	.loc 1 223 0
	b	Reply(PLT)
.L7:
	.align	2
.L6:
	.word	14276
.LFE6:
	.size	TrainServer_HandleSwitchData, .-TrainServer_HandleSwitchData
	.align	2
	.global	TrainServer_HandleSensorQuery
	.type	TrainServer_HandleSensorQuery, %function
TrainServer_HandleSensorQuery:
.LFB5:
	.loc 1 198 0
	@ args = 0, pretend = 0, frame = 0
	@ frame_needed = 0, uses_anonymous_args = 0
	@ link register save eliminated.
.LVL2:
	.loc 1 202 0
	ldr	ip, [r0, #4]
.LVL3:
	.loc 1 200 0
	add	r1, r0, #16
.LVL4:
	.loc 1 204 0
	add	ip, r0, ip, asl #2
.LVL5:
	ldr	r3, [ip, #80]
	.loc 1 205 0
	mov	r2, #0
	.loc 1 204 0
	str	r3, [r1, #8]
	.loc 1 207 0
	mov	r3, #10
	str	r3, [r0, #16]
	.loc 1 209 0
	ldr	r0, [r0, #420]
.LVL6:
	.loc 1 205 0
	str	r2, [ip, #80]
	.loc 1 209 0
	add	r2, r2, #16
	.loc 1 198 0
	@ lr needed for prologue
	.loc 1 210 0
	.loc 1 209 0
	b	Reply(PLT)
.LVL7:
.LFE5:
	.size	TrainServer_HandleSensorQuery, .-TrainServer_HandleSensorQuery
	.align	2
	.global	TrainServer_HandleSwitchQuery
	.type	TrainServer_HandleSwitchQuery, %function
TrainServer_HandleSwitchQuery:
.LFB7:
	.loc 1 226 0
	@ args = 0, pretend = 0, frame = 0
	@ frame_needed = 0, uses_anonymous_args = 0
	@ link register save eliminated.
.LVL8:
	.loc 1 230 0
	ldr	r3, [r0, #4]
	ldr	r2, .L12
	add	r3, r0, r3, asl #2
	ldr	ip, [r3, r2]
	.loc 1 228 0
	add	r1, r0, #16
.LVL9:
	.loc 1 230 0
	str	ip, [r1, #4]
	.loc 1 232 0
	mov	r3, #10
	str	r3, [r0, #16]
	.loc 1 233 0
	ldr	r0, [r0, #420]
.LVL10:
	mov	r2, #16
	.loc 1 226 0
	@ lr needed for prologue
	.loc 1 234 0
	.loc 1 233 0
	b	Reply(PLT)
.LVL11:
.L13:
	.align	2
.L12:
	.word	14276
.LFE7:
	.size	TrainServer_HandleSwitchQuery, .-TrainServer_HandleSwitchQuery
	.align	2
	.global	TrainServer_HandleSelectTrack
	.type	TrainServer_HandleSelectTrack, %function
TrainServer_HandleSelectTrack:
.LFB8:
	.loc 1 236 0
	@ args = 0, pretend = 0, frame = 0
	@ frame_needed = 0, uses_anonymous_args = 0
	@ link register save eliminated.
.LVL12:
	.loc 1 240 0
	ldr	r3, [r0, #4]
	.loc 1 241 0
	add	ip, r0, #448
	.loc 1 240 0
	cmp	r3, #65
	.loc 1 243 0
	add	r2, r0, #7360
	.loc 1 241 0
	moveq	r3, #14272
	.loc 1 243 0
	movne	r3, #14272
	strne	r2, [r0, r3]
	.loc 1 238 0
	add	r1, r0, #16
	.loc 1 241 0
	streq	ip, [r0, r3]
	.loc 1 247 0
	ldr	r0, [r0, #420]
.LVL13:
	.loc 1 246 0
	mov	r3, #10
	.loc 1 247 0
	mov	r2, #16
	.loc 1 236 0
	@ lr needed for prologue
	.loc 1 246 0
	str	r3, [r1, #0]
	.loc 1 248 0
	.loc 1 247 0
	b	Reply(PLT)
.LFE8:
	.size	TrainServer_HandleSelectTrack, .-TrainServer_HandleSelectTrack
	.section	.rodata.str1.4,"aMS",%progbits,1
	.align	2
.LC0:
	.ascii	"TrainEngineStatusMessage too big\000"
	.text
	.align	2
	.global	TrainServer_HandleQueryTrainEngine
	.type	TrainServer_HandleQueryTrainEngine, %function
TrainServer_HandleQueryTrainEngine:
.LFB11:
	.loc 1 274 0
	@ args = 0, pretend = 0, frame = 0
	@ frame_needed = 0, uses_anonymous_args = 0
.LVL14:
	stmfd	sp!, {r4, sl, lr}
.LCFI0:
	ldr	sl, .L22
	.loc 1 277 0
	ldr	r1, .L22+4
	.loc 1 274 0
.L21:
	add	sl, pc, sl
	mov	r4, r0
	.loc 1 277 0
	add	r1, sl, r1
	mov	r0, #1
.LVL15:
	bl	assert(PLT)
	.loc 1 290 0
	add	r2, r4, #16320
	add	r2, r2, #4
	.loc 1 275 0
	add	r1, r4, #16
.LVL16:
	.loc 1 292 0
	ldr	r0, [r4, #420]
	.loc 1 279 0
	mov	r3, #10
	.loc 1 290 0
	str	r2, [r1, #4]
	.loc 1 292 0
	mov	r2, #16
	.loc 1 279 0
	str	r3, [r4, #16]
	.loc 1 293 0
	ldmfd	sp!, {r4, sl, lr}
	.loc 1 292 0
	b	Reply(PLT)
.LVL17:
.L23:
	.align	2
.L22:
	.word	_GLOBAL_OFFSET_TABLE_-(.L21+8)
	.word	.LC0(GOTOFF)
.LFE11:
	.size	TrainServer_HandleQueryTrainEngine, .-TrainServer_HandleQueryTrainEngine
	.align	2
	.global	TrainServer_HandleTrainEngineClientCommandRequest
	.type	TrainServer_HandleTrainEngineClientCommandRequest, %function
TrainServer_HandleTrainEngineClientCommandRequest:
.LFB12:
	.loc 1 295 0
	@ args = 0, pretend = 0, frame = 0
	@ frame_needed = 0, uses_anonymous_args = 0
	@ link register save eliminated.
.LVL18:
	.loc 1 299 0
	mov	r3, #10
	.loc 1 296 0
	add	r1, r0, #16
.LVL19:
	.loc 1 299 0
	str	r3, [r0, #16]
	.loc 1 300 0
	mov	r2, #0
	.loc 1 302 0
	ldr	r0, [r0, #420]
.LVL20:
	.loc 1 300 0
	str	r2, [r1, #4]
	.loc 1 302 0
	add	r2, r2, #16
	.loc 1 295 0
	@ lr needed for prologue
	.loc 1 303 0
	.loc 1 302 0
	b	Reply(PLT)
.LVL21:
.LFE12:
	.size	TrainServer_HandleTrainEngineClientCommandRequest, .-TrainServer_HandleTrainEngineClientCommandRequest
	.align	2
	.global	TrainServer_HandleGetSwitchRequest
	.type	TrainServer_HandleGetSwitchRequest, %function
TrainServer_HandleGetSwitchRequest:
.LFB13:
	.loc 1 305 0
	@ args = 0, pretend = 0, frame = 0
	@ frame_needed = 0, uses_anonymous_args = 0
.LVL22:
	stmfd	sp!, {r4, lr}
.LCFI1:
	.loc 1 308 0
	add	r1, r0, #14272
	mov	r3, #11
	ldr	r4, .L37
	.loc 1 305 0
	mov	lr, r0
	.loc 1 308 0
	str	r3, [r0, #16]
	.loc 1 306 0
	add	ip, r0, #16
	.loc 1 308 0
	add	r1, r1, #4
	mov	r0, #0
.LVL23:
	b	.L27
.L28:
	.loc 1 311 0
	add	r0, r0, #1
	cmp	r0, #256
	beq	.L33
.L27:
	.loc 1 312 0
	ldr	r2, [r1, #0]
	ldr	r3, [r1, #1024]
	.loc 1 311 0
	add	r1, r1, #4
	.loc 1 312 0
	cmp	r2, r3
	beq	.L28
.LBB2:
	.loc 1 316 0
	add	r1, lr, r0, asl #2
	ldr	r3, [r1, r4]
	.loc 1 323 0
	strb	r0, [ip, #9]
	.loc 1 316 0
	cmp	r3, #67
	movne	r3, #33
	moveq	r3, #34
	.loc 1 322 0
	strb	r3, [ip, #8]
	.loc 1 324 0
	ldr	r0, [r1, r4]
.LVL24:
	ldr	r2, .L37+4
	.loc 1 313 0
	mov	r3, #10
	str	r3, [ip, #0]
	.loc 1 324 0
	str	r0, [r1, r2]
.LVL25:
.L33:
.LBE2:
	.loc 1 329 0
	ldr	r0, [lr, #420]
.LVL26:
	mov	r1, ip
	mov	r2, #16
.LVL27:
	.loc 1 330 0
	ldmfd	sp!, {r4, lr}
	.loc 1 329 0
	b	Reply(PLT)
.L38:
	.align	2
.L37:
	.word	15300
	.word	14276
.LFE13:
	.size	TrainServer_HandleGetSwitchRequest, .-TrainServer_HandleGetSwitchRequest
	.align	2
	.global	TrainServer_HandleSetSwitch
	.type	TrainServer_HandleSetSwitch, %function
TrainServer_HandleSetSwitch:
.LFB14:
	.loc 1 332 0
	@ args = 0, pretend = 0, frame = 0
	@ frame_needed = 0, uses_anonymous_args = 0
	@ link register save eliminated.
.LVL28:
	.loc 1 341 0
	ldrb	r3, [r0, #8]	@ zero_extendqisi2
	.loc 1 336 0
	mov	r2, #10
	.loc 1 341 0
	cmp	r3, #34
	.loc 1 339 0
	ldrb	r3, [r0, #9]	@ zero_extendqisi2
.LVL29:
	.loc 1 336 0
	str	r2, [r0, #16]
	.loc 1 342 0
	addeq	r1, r0, r3, asl #2
	.loc 1 344 0
	addne	r1, r0, r3, asl #2
	.loc 1 342 0
	ldreq	r3, .L44
.LVL30:
	.loc 1 344 0
	ldrne	r3, .L44
	.loc 1 342 0
	addeq	r2, r2, #57
	.loc 1 344 0
	movne	r2, #83
	.loc 1 342 0
	streq	r2, [r1, r3]
	.loc 1 344 0
	strne	r2, [r1, r3]
	.loc 1 347 0
	add	r1, r0, #16
	ldr	r0, [r0, #420]
.LVL31:
	mov	r2, #16
	.loc 1 332 0
	@ lr needed for prologue
	.loc 1 348 0
	.loc 1 347 0
	b	Reply(PLT)
.L45:
	.align	2
.L44:
	.word	15300
.LFE14:
	.size	TrainServer_HandleSetSwitch, .-TrainServer_HandleSetSwitch
	.align	2
	.global	TrainEngine_Initialize
	.type	TrainEngine_Initialize, %function
TrainEngine_Initialize:
.LFB28:
	.loc 1 719 0
	@ args = 0, pretend = 0, frame = 0
	@ frame_needed = 0, uses_anonymous_args = 0
	@ link register save eliminated.
.LVL32:
	str	r4, [sp, #-4]!
.LCFI2:
	.loc 1 721 0
	mov	r2, #0
	.loc 1 725 0
	mov	r3, #0
	mov	r4, #0
	.loc 1 719 0
	@ lr needed for prologue
	.loc 1 728 0
	str	r3, [r0, #48]
	str	r4, [r0, #52]
	.loc 1 725 0
	str	r3, [r0, #24]
	str	r4, [r0, #28]
	.loc 1 726 0
	str	r3, [r0, #32]
	str	r4, [r0, #36]
	.loc 1 727 0
	str	r3, [r0, #40]
	str	r4, [r0, #44]
	.loc 1 730 0
	str	r2, [r0, #1264]
	.loc 1 720 0
	stmib	r0, {r1, r2}	@ phole stm
	.loc 1 722 0
	str	r2, [r0, #12]
	.loc 1 723 0
	str	r2, [r0, #16]
	.loc 1 724 0
	str	r2, [r0, #20]
	.loc 1 729 0
	str	r2, [r0, #60]
	.loc 1 731 0
	ldmfd	sp!, {r4}
	bx	lr
.LFE28:
	.size	TrainEngine_Initialize, .-TrainEngine_Initialize
	.align	2
	.global	TrainServer_HandleSetTrain
	.type	TrainServer_HandleSetTrain, %function
TrainServer_HandleSetTrain:
.LFB9:
	.loc 1 250 0
	@ args = 0, pretend = 0, frame = 0
	@ frame_needed = 0, uses_anonymous_args = 0
.LVL33:
	stmfd	sp!, {r4, lr}
.LCFI3:
	.loc 1 250 0
	mov	r4, r0
	.loc 1 254 0
	add	r0, r0, #16320
.LVL34:
	add	r0, r0, #4
	ldr	r1, [r4, #4]
	bl	TrainEngine_Initialize(PLT)
	.loc 1 256 0
	mov	r3, #10
	str	r3, [r4, #16]
	.loc 1 257 0
	mov	r2, #16
	ldr	r0, [r4, #420]
	add	r1, r4, #16
	bl	Reply(PLT)
	.loc 1 259 0
	ldr	r3, .L50
	mov	r2, #0
	str	r2, [r4, r3]
	.loc 1 260 0
	ldmfd	sp!, {r4, pc}
.L51:
	.align	2
.L50:
	.word	16332
.LFE9:
	.size	TrainServer_HandleSetTrain, .-TrainServer_HandleSetTrain
	.section	.rodata.str1.4
	.align	2
.LC1:
	.ascii	"TrainServer_Start failed to register name\000"
	.align	2
.LC2:
	.ascii	"TrainServer failed to create TrainSensorReader\000"
	.align	2
.LC3:
	.ascii	"TrainServer failed to create TrainCommandServer\000"
	.align	2
.LC4:
	.ascii	"TrainServer failed to create TrainServerTimer\000"
	.align	2
.LC5:
	.ascii	"TrainServer failed to create TrainEngineClient_Star"
	.ascii	"t\000"
	.align	2
.LC6:
	.ascii	"TrainServer failed to create TrainSwitchMaster\000"
	.text
	.align	2
	.global	TrainServer_Initialize
	.type	TrainServer_Initialize, %function
TrainServer_Initialize:
.LFB3:
	.loc 1 110 0
	@ args = 0, pretend = 0, frame = 0
	@ frame_needed = 0, uses_anonymous_args = 0
.LVL35:
	stmfd	sp!, {r4, r5, r6, sl, lr}
.LCFI4:
	ldr	sl, .L67
	.loc 1 111 0
	ldr	r3, .L67+4
	.loc 1 110 0
.L66:
	add	sl, pc, sl
	mov	r6, r0
	.loc 1 111 0
	ldr	r0, [sl, r3]
.LVL36:
	bl	RegisterAs(PLT)
	.loc 1 112 0
	ldr	r1, .L67+8
	rsbs	r0, r0, #1
	movcc	r0, #0
	add	r1, sl, r1
	bl	assert(PLT)
	.loc 1 118 0
	ldr	r2, .L67+12
	.loc 1 116 0
	add	r3, r6, #16
	.loc 1 114 0
	mov	r4, #0
	.loc 1 118 0
	ldr	r1, [sl, r2]
	.loc 1 116 0
	str	r3, [r6, #36]
	.loc 1 114 0
	str	r4, [r6, #40]
	.loc 1 115 0
	str	r6, [r6, #32]
	.loc 1 118 0
	mov	r0, #6
	bl	Create(PLT)
	.loc 1 119 0
	ldr	r1, .L67+16
	.loc 1 118 0
	str	r0, [r6, #432]
	.loc 1 119 0
	add	r1, sl, r1
	bl	assert(PLT)
	.loc 1 121 0
	ldr	r3, .L67+20
	mov	r0, #6
	ldr	r1, [sl, r3]
	bl	Create(PLT)
	.loc 1 122 0
	ldr	r1, .L67+24
	.loc 1 121 0
	str	r0, [r6, #428]
	.loc 1 122 0
	add	r1, sl, r1
	bl	assert(PLT)
	.loc 1 124 0
	ldr	r3, .L67+28
	mov	r0, #8
	ldr	r1, [sl, r3]
	bl	Create(PLT)
	.loc 1 125 0
	ldr	r1, .L67+32
	.loc 1 124 0
	str	r0, [r6, #440]
	.loc 1 125 0
	add	r1, sl, r1
	bl	assert(PLT)
	.loc 1 127 0
	ldr	r3, .L67+36
	mov	r0, #8
	ldr	r1, [sl, r3]
	bl	Create(PLT)
	ldr	r3, .L67+40
	.loc 1 128 0
	ldr	r1, .L67+44
	.loc 1 127 0
	str	r0, [r6, r3]
	.loc 1 128 0
	add	r1, sl, r1
	bl	assert(PLT)
	.loc 1 130 0
	ldr	r3, .L67+48
	mov	r0, #6
	ldr	r1, [sl, r3]
	bl	Create(PLT)
	.loc 1 131 0
	ldr	r1, .L67+52
	.loc 1 130 0
	str	r0, [r6, #444]
	.loc 1 131 0
	add	r1, sl, r1
	bl	assert(PLT)
	.loc 1 133 0
	mov	r3, #4
	.loc 1 135 0
	add	r0, r6, #44
	mov	r1, #101
	.loc 1 133 0
	str	r3, [r6, #424]
	.loc 1 135 0
	bl	RNG_Initialize(PLT)
.LVL37:
	mov	r5, r4
	mov	r1, r6
	mov	ip, r4
	mov	r0, #100
.LVL38:
.L53:
.LBB3:
	.loc 1 140 0
	str	ip, [r1, #60]
	.loc 1 141 0
	str	ip, [r1, #80]
	add	r2, r6, r0
	mov	r3, ip
.LVL39:
.L54:
	.loc 1 144 0
	add	r3, r3, #1
	cmp	r3, #16
	.loc 1 145 0
	str	r5, [r2], #4
	.loc 1 144 0
	bne	.L54
.LVL40:
.LBE3:
	.loc 1 139 0
	add	r4, r4, #1
	cmp	r4, #5
	add	r0, r0, #64
	add	r1, r1, #4
	bne	.L53
.LVL41:
	.loc 1 149 0
	add	r4, r6, #448
.LVL42:
	mov	r0, r4
	bl	init_tracka(PLT)
.LVL43:
	.loc 1 150 0
	add	r0, r6, #7360
	bl	init_trackb(PLT)
	.loc 1 151 0
	add	r2, r6, #14272
	mov	r3, #14272
	mov	r0, r5
.LVL44:
	str	r4, [r6, r3]
	add	r2, r2, #4
.LVL45:
	mov	r1, r5
.LVL46:
.L57:
	.loc 1 154 0
	add	r0, r0, #1
	cmp	r0, #256
	.loc 1 155 0
	str	r1, [r2, #0]
	.loc 1 156 0
	str	r1, [r2, #1024]
	.loc 1 154 0
	add	r2, r2, #4
	bne	.L57
	.loc 1 160 0
	add	r0, r6, #16320
	add	r0, r0, #4
	.loc 1 161 0
	ldmfd	sp!, {r4, r5, r6, sl, lr}
	.loc 1 160 0
	b	TrainEngine_Initialize(PLT)
.LVL47:
.L68:
	.align	2
.L67:
	.word	_GLOBAL_OFFSET_TABLE_-(.L66+8)
	.word	TRAIN_SERVER_NAME(GOT)
	.word	.LC1(GOTOFF)
	.word	TrainSensorReader_Start(GOT)
	.word	.LC2(GOTOFF)
	.word	TrainCommandServer_Start(GOT)
	.word	.LC3(GOTOFF)
	.word	TrainServerTimer_Start(GOT)
	.word	.LC4(GOTOFF)
	.word	TrainEngineClient_Start(GOT)
	.word	16324
	.word	.LC5(GOTOFF)
	.word	TrainSwitchMaster_Start(GOT)
	.word	.LC6(GOTOFF)
.LFE3:
	.size	TrainServer_Initialize, .-TrainServer_Initialize
	.section	.rodata.str1.4
	.align	2
.LC7:
	.ascii	"%c%d.\000"
	.text
	.align	2
	.global	TrainServer_HandleSensorReaderData
	.type	TrainServer_HandleSensorReaderData, %function
TrainServer_HandleSensorReaderData:
.LFB4:
	.loc 1 163 0
	@ args = 0, pretend = 0, frame = 0
	@ frame_needed = 0, uses_anonymous_args = 0
.LVL48:
	stmfd	sp!, {r4, r5, r6, r7, r8, r9, sl, lr}
.LCFI5:
	.loc 1 166 0
	ldr	r3, [r0, #40]
	.loc 1 163 0
	ldr	sl, .L86
	.loc 1 166 0
	cmp	r3, #1
	.loc 1 167 0
	ldreq	r2, [r0, #36]
	addeq	r3, r3, #11
	.loc 1 170 0
	add	r9, r0, #16
	.loc 1 163 0
	mov	r5, r0
	.loc 1 167 0
	streq	r3, [r2, #0]
	.loc 1 163 0
.L84:
	add	sl, pc, sl
	.loc 1 170 0
	mov	r1, r9
	mov	r2, #16
	ldr	r0, [r0, #420]
.LVL49:
	bl	Reply(PLT)
	.loc 1 172 0
	ldr	r3, [r5, #40]
	.loc 1 176 0
	ldr	r7, [r5, #4]
.LVL50:
	.loc 1 172 0
	cmp	r3, #1
	.loc 1 173 0
	ldreq	r3, [r5, #424]
	.loc 1 179 0
	add	r2, r5, r7, asl #2
	.loc 1 173 0
	subeq	r3, r3, #1
	.loc 1 177 0
	ldr	r6, [r5, #8]
.LVL51:
	.loc 1 173 0
	streq	r3, [r5, #424]
	.loc 1 181 0
	ldr	r3, [r2, #80]
	.loc 1 179 0
	str	r6, [r2, #60]
	.loc 1 181 0
	orr	r3, r6, r3
	str	r3, [r2, #80]
	.loc 1 184 0
	bl	Time(PLT)
	mov	r4, #0
.LVL52:
	mov	r8, r0
.LVL53:
	b	.L74
.L77:
	.loc 1 185 0
	cmp	r4, #15
	bgt	.L85
.L74:
	.loc 1 186 0
	mov	r3, r6, asr r4
	.loc 1 187 0
	add	r2, r4, r7, asl #4
	.loc 1 186 0
	tst	r3, #1
	.loc 1 187 0
	add	ip, r5, r2, asl #2
	.loc 1 186 0
	addeq	r4, r4, #1
	beq	.L77
	.loc 1 189 0
	ldr	r3, [r5, #40]
	.loc 1 187 0
	str	r8, [ip, #100]
	.loc 1 189 0
	cmp	r3, #2
	movne	ip, #0
	moveq	ip, #1
	cmp	r6, #0
	.loc 1 191 0
	ldr	r1, .L86+4
	.loc 1 189 0
	moveq	ip, #0
	.loc 1 191 0
	mov	r0, #1
	.loc 1 189 0
	cmp	ip, #0
	.loc 1 191 0
	add	r1, sl, r1
	add	r2, r7, #65
	.loc 1 189 0
	addeq	r4, r4, r0
	beq	.L77
	.loc 1 191 0
	add	r4, r4, #1
	.loc 1 190 0
	mov	r3, #0
	str	r3, [r5, #40]
	.loc 1 191 0
	mov	r3, r4
	bl	PutString(PLT)
	.loc 1 192 0
	ldr	r0, [r5, #436]
	mov	r1, r9
	mov	r2, #16
	bl	Reply(PLT)
	.loc 1 185 0
	cmp	r4, #15
	ble	.L74
.L85:
	.loc 1 196 0
	ldmfd	sp!, {r4, r5, r6, r7, r8, r9, sl, pc}
.L87:
	.align	2
.L86:
	.word	_GLOBAL_OFFSET_TABLE_-(.L84+8)
	.word	.LC7(GOTOFF)
.LFE4:
	.size	TrainServer_HandleSensorReaderData, .-TrainServer_HandleSensorReaderData
	.align	2
	.global	TrainServer_HandleSetDestination
	.type	TrainServer_HandleSetDestination, %function
TrainServer_HandleSetDestination:
.LFB10:
	.loc 1 262 0
	@ args = 0, pretend = 0, frame = 0
	@ frame_needed = 0, uses_anonymous_args = 0
.LVL54:
	stmfd	sp!, {r4, lr}
.LCFI6:
	.loc 1 266 0
	mov	r3, #14272
	.loc 1 262 0
	mov	r4, r0
	.loc 1 266 0
	ldr	r1, [r4, #12]
	ldr	r0, [r0, r3]
.LVL55:
	bl	NodeNameToTrackNode(PLT)
	mov	r3, #16384
	.loc 1 268 0
	mov	r2, #10
	.loc 1 266 0
	str	r0, [r4, r3]
	.loc 1 268 0
	str	r2, [r4, #16]
	.loc 1 269 0
	ldr	r0, [r4, #420]
	add	r2, r2, #6
	add	r1, r4, #16
	bl	Reply(PLT)
	.loc 1 271 0
	ldr	r3, .L90
	mov	r2, #1
	str	r2, [r4, r3]
	.loc 1 272 0
	ldmfd	sp!, {r4, pc}
.L91:
	.align	2
.L90:
	.word	16332
.LFE10:
	.size	TrainServer_HandleSetDestination, .-TrainServer_HandleSetDestination
	.global	__floatsidf
	.global	__muldf3
	.global	__divdf3
	.global	__ltdf2
	.align	2
	.global	TrainServer_ProcessEngineCalibratingSpeed
	.type	TrainServer_ProcessEngineCalibratingSpeed, %function
TrainServer_ProcessEngineCalibratingSpeed:
.LFB24:
	.loc 1 496 0
	@ args = 0, pretend = 0, frame = 0
	@ frame_needed = 0, uses_anonymous_args = 0
.LVL56:
	stmfd	sp!, {r4, r5, r6, r7, r8, lr}
.LCFI7:
	.loc 1 502 0
	ldr	r2, [r0, #332]
.LVL57:
	.loc 1 501 0
	ldr	ip, [r0, #288]
.LVL58:
	.loc 1 496 0
	mov	r3, r0
	.loc 1 506 0
	cmp	ip, #0
	cmpne	r2, #0
	.loc 1 507 0
	rsb	r0, r2, ip
.LVL59:
	.loc 1 496 0
	sub	sp, sp, #4
.LCFI8:
.LVL60:
	.loc 1 504 0
	ldr	r2, [r3, #336]
.LVL61:
	.loc 1 496 0
	mov	r8, r1
	.loc 1 503 0
	ldr	r3, [r3, #284]
.LVL62:
	.loc 1 506 0
	bne	.L102
.LVL63:
	.loc 1 508 0
	cmp	r3, #0
	cmpne	r2, #0
	.loc 1 509 0
	rsb	r0, r2, r3
	.loc 1 508 0
	beq	.L101
.L102:
	.loc 1 509 0
	bl	__floatsidf(PLT)
.LVL64:
	adr	r2, .L103
	ldmia	r2, {r2-r3}
	bl	__muldf3(PLT)
	adr	r2, .L103+8
	ldmia	r2, {r2-r3}
	bl	__divdf3(PLT)
	.loc 1 514 0
	mov	r3, #0
	mov	r2, #0
	.loc 1 509 0
	mov	r6, r1
.LVL65:
	mov	r5, r0
.LVL66:
	.loc 1 514 0
	bl	__ltdf2(PLT)
	.loc 1 519 0
	mov	r7, #0
	.loc 1 514 0
	cmp	r0, r7
	.loc 1 515 0
	addlt	r3, r5, #-2147483648
	movlt	r4, r6
	movlt	r5, r3
	movlt	r6, r4
	.loc 1 518 0
	mov	r2, r5
	mov	r3, r6
	adr	r0, .L103+16
	ldmia	r0, {r0-r1}
	bl	__divdf3(PLT)
	.loc 1 519 0
	ldrb	r2, [r8, #4]	@ zero_extendqisi2
	.loc 1 518 0
	str	r0, [r8, #24]
	str	r1, [r8, #28]
	.loc 1 519 0
	mov	r3, r7
	mov	r1, r7
	mov	r0, #2
	str	r7, [sp, #0]
	bl	SendTrainCommand(PLT)
	.loc 1 520 0
	ldrb	r2, [r8, #4]	@ zero_extendqisi2
	mov	r3, r7
	mov	r0, #2
	mov	r1, #5
	str	r7, [sp, #0]
	bl	SendTrainCommand(PLT)
	.loc 1 521 0
	mov	r3, #1
	str	r3, [r8, #8]
.LVL67:
.L101:
	.loc 1 522 0
	add	sp, sp, #4
	ldmfd	sp!, {r4, r5, r6, r7, r8, pc}
.L104:
	.align	2
.L103:
	.word	1072064102
	.word	1717986918
	.word	1083129856
	.word	0
	.word	1078362112
	.word	0
.LFE24:
	.size	TrainServer_ProcessEngineCalibratingSpeed, .-TrainServer_ProcessEngineCalibratingSpeed
	.section	.rodata.str1.4
	.align	2
.LC8:
	.ascii	"Engine %d is starting.\000"
	.text
	.align	2
	.global	TrainServer_ProcessEngineIdle
	.type	TrainServer_ProcessEngineIdle, %function
TrainServer_ProcessEngineIdle:
.LFB16:
	.loc 1 380 0
	@ args = 0, pretend = 0, frame = 0
	@ frame_needed = 0, uses_anonymous_args = 0
.LVL68:
	stmfd	sp!, {r4, sl, lr}
.LCFI9:
	ldr	sl, .L108
	.loc 1 381 0
	ldr	r0, .L108+4
.LVL69:
	.loc 1 380 0
.L107:
	add	sl, pc, sl
	sub	sp, sp, #4
.LCFI10:
.LVL70:
	mov	r4, r1
	.loc 1 381 0
	add	r0, sl, r0
	ldr	r1, [r1, #4]
.LVL71:
	bl	PrintMessage(PLT)
	.loc 1 382 0
	mov	ip, #0
	ldrb	r2, [r4, #4]	@ zero_extendqisi2
	mov	r3, ip
	mov	r0, #2
	mov	r1, #4
	str	ip, [sp, #0]
	bl	SendTrainCommand(PLT)
	.loc 1 383 0
	mov	r3, #1
	str	r3, [r4, #8]
	.loc 1 384 0
	add	sp, sp, #4
	ldmfd	sp!, {r4, sl, pc}
.L109:
	.align	2
.L108:
	.word	_GLOBAL_OFFSET_TABLE_-(.L107+8)
	.word	.LC8(GOTOFF)
.LFE16:
	.size	TrainServer_ProcessEngineIdle, .-TrainServer_ProcessEngineIdle
	.section	.rodata.str1.4
	.align	2
.LC9:
	.ascii	"Found starting position.\000"
	.align	2
.LC10:
	.ascii	"Travelling from %s to %s.\000"
	.text
	.align	2
	.global	TrainServer_ProcessEngineFoundStartingPosition
	.type	TrainServer_ProcessEngineFoundStartingPosition, %function
TrainServer_ProcessEngineFoundStartingPosition:
.LFB18:
	.loc 1 397 0
	@ args = 0, pretend = 0, frame = 0
	@ frame_needed = 0, uses_anonymous_args = 0
.LVL72:
	stmfd	sp!, {r4, r5, r6, sl, lr}
.LCFI11:
	ldr	sl, .L117
	mov	r6, r0
	.loc 1 398 0
	ldr	r0, .L117+4
.LVL73:
	.loc 1 397 0
.L116:
	add	sl, pc, sl
	sub	sp, sp, #8
.LCFI12:
.LVL74:
	.loc 1 398 0
	add	r0, sl, r0
	.loc 1 397 0
	mov	r5, r1
	.loc 1 398 0
	bl	PrintMessage(PLT)
.LVL75:
	.loc 1 399 0
	mov	r3, #14272
	ldr	r1, [r6, r3]
	ldr	r2, [r5, #12]
	add	r0, r6, #44
	bl	GetRandomSensorReachableViaDirectedGraph(PLT)
	.loc 1 401 0
	ldr	r2, [r5, #12]
	.loc 1 399 0
	mov	r3, r0
	str	r0, [r5, #60]
	.loc 1 401 0
	ldr	r0, .L117+8
	ldr	r1, [r2, #0]
	add	r0, sl, r0
	ldr	r2, [r3, #0]
	bl	PrintMessage(PLT)
	mov	r4, #0
	add	r3, r6, #14272
	add	r3, r3, #4
	mov	r2, r4
.LVL76:
.L111:
	.loc 1 404 0
	add	r2, r2, #1
	cmp	r2, #256
	.loc 1 405 0
	str	r4, [r3, #0]
	.loc 1 406 0
	str	r4, [r3, #1024]
	.loc 1 404 0
	add	r3, r3, #4
	bne	.L111
	.loc 1 409 0
	mov	r3, #14272
	ldr	r1, [r6, r3]
	ldr	r2, [r5, #12]
.LVL77:
	ldr	r3, [r5, #60]
	add	r0, r5, #64
	str	r4, [sp, #0]
	str	r4, [sp, #4]
	bl	PopulateRouteNodeInfo(PLT)
	.loc 1 411 0
	mov	r3, #3
	str	r3, [r5, #8]
	.loc 1 412 0
	ldrb	r2, [r5, #4]	@ zero_extendqisi2
	mov	r3, r4
	mov	r1, #24
	mov	r0, #2
	str	r4, [sp, #0]
	bl	SendTrainCommand(PLT)
	.loc 1 413 0
	add	sp, sp, #8
	ldmfd	sp!, {r4, r5, r6, sl, pc}
.L118:
	.align	2
.L117:
	.word	_GLOBAL_OFFSET_TABLE_-(.L116+8)
	.word	.LC9(GOTOFF)
	.word	.LC10(GOTOFF)
.LFE18:
	.size	TrainServer_ProcessEngineFoundStartingPosition, .-TrainServer_ProcessEngineFoundStartingPosition
	.section	.rodata.str1.4
	.align	2
.LC11:
	.ascii	"Queuing switch %d to be %c\000"
	.text
	.align	2
	.global	TrainServer_QueueSwitchStates
	.type	TrainServer_QueueSwitchStates, %function
TrainServer_QueueSwitchStates:
.LFB20:
	.loc 1 424 0
	@ args = 0, pretend = 0, frame = 0
	@ frame_needed = 0, uses_anonymous_args = 0
.LVL78:
	stmfd	sp!, {r4, r5, r6, r7, r8, sl, lr}
.LCFI13:
	.loc 1 426 0
	ldr	r3, [r1, #1264]
.LVL79:
	.loc 1 427 0
	ldr	ip, [r1, #60]
	add	r3, r3, r3, asl #1
.LVL80:
	mov	r3, r3, asl #2
	add	r2, r3, r1
	.loc 1 424 0
	mov	r5, r1
	.loc 1 427 0
	ldr	r1, [r2, #64]
.LVL81:
	.loc 1 424 0
	ldr	sl, .L132
	.loc 1 427 0
	cmp	ip, r1
	.loc 1 424 0
.L130:
	add	sl, pc, sl
	mov	r7, r0
	.loc 1 427 0
	ldmeqfd	sp!, {r4, r5, r6, r7, r8, sl, pc}
.LVL82:
	add	r2, r3, #76
	ldr	r8, .L132+4
	add	r3, r3, #64
	rsb	r6, r3, r2
	add	r4, r5, r3
	b	.L122
.LVL83:
.L123:
	ldr	r1, [r4, r6]
	add	r4, r4, #12
	cmp	r1, ip
	beq	.L131
.LVL84:
.L122:
	.loc 1 428 0
	ldr	r3, [r1, #4]
.LBB4:
	.loc 1 436 0
	ldr	r0, .L132+8
.LBE4:
	.loc 1 428 0
	cmp	r3, #2
.LBB5:
	.loc 1 436 0
	add	r0, sl, r0
.LBE5:
	.loc 1 428 0
	bne	.L123
.LBB6:
	.loc 1 429 0
	ldr	r1, [r1, #8]
.LVL85:
	.loc 1 430 0
	ldr	r3, [r4, #8]
.LVL86:
	.loc 1 431 0
	add	lr, r7, r1, asl #2
	ldr	ip, [lr, r8]
	.loc 1 436 0
	mov	r2, r3
	.loc 1 431 0
	cmp	ip, #0
	beq	.L127
.LVL87:
	cmp	ip, r3
	ldmnefd	sp!, {r4, r5, r6, r7, r8, sl, pc}
.L127:
	.loc 1 435 0
	str	r3, [lr, r8]
	.loc 1 436 0
	bl	PrintMessage(PLT)
.LVL88:
.LBE6:
	.loc 1 427 0
	ldr	r1, [r4, r6]
	ldr	ip, [r5, #60]
	add	r4, r4, #12
	cmp	r1, ip
	bne	.L122
.L131:
	ldmfd	sp!, {r4, r5, r6, r7, r8, sl, pc}
.L133:
	.align	2
.L132:
	.word	_GLOBAL_OFFSET_TABLE_-(.L130+8)
	.word	15300
	.word	.LC11(GOTOFF)
.LFE20:
	.size	TrainServer_QueueSwitchStates, .-TrainServer_QueueSwitchStates
	.global	__extendsfdf2
	.global	__subdf3
	.section	.rodata.str1.4
	.align	2
.LC12:
	.ascii	"At destination %s.\000"
	.global	__adddf3
	.text
	.align	2
	.global	TrainServer_ProcessSensorData
	.type	TrainServer_ProcessSensorData, %function
TrainServer_ProcessSensorData:
.LFB21:
	.loc 1 443 0
	@ args = 0, pretend = 0, frame = 0
	@ frame_needed = 0, uses_anonymous_args = 0
.LVL89:
	stmfd	sp!, {r4, r5, r6, r7, r8, r9, sl, lr}
.LCFI14:
	ldr	sl, .L149
	sub	sp, sp, #4
.LCFI15:
.LVL90:
.L147:
	add	sl, pc, sl
	mov	r6, r1
	mov	r9, r0
	.loc 1 444 0
	bl	TimeSeconds(PLT)
.LVL91:
	.loc 1 444 0
	bl	__extendsfdf2(PLT)
	mov	r7, r0
.LVL92:
	.loc 1 446 0
	ldr	r0, [r6, #56]
	.loc 1 444 0
	mov	r8, r1
.LVL93:
	.loc 1 446 0
	bl	__floatsidf(PLT)
	add	r2, r6, #48
	ldmia	r2, {r2-r3}
	mov	r4, r0
	mov	r5, r1
	mov	r0, r7
	mov	r1, r8
	bl	__subdf3(PLT)
	mov	r3, r1
	mov	r2, r0
	mov	r1, r5
	mov	r0, r4
	bl	__divdf3(PLT)
	.loc 1 451 0
	ldr	r3, [r6, #60]
	ldr	ip, [r6, #12]
	.loc 1 449 0
	mov	lr, #0
	.loc 1 451 0
	cmp	ip, r3
	.loc 1 446 0
	str	r0, [r6, #24]
	str	r1, [r6, #28]
	.loc 1 448 0
	add	r3, r6, #32
	ldmia	r3, {r3-r4}
	.loc 1 447 0
	str	r7, [r6, #48]
	str	r8, [r6, #52]
	.loc 1 448 0
	str	r3, [r6, #40]
	str	r4, [r6, #44]
	.loc 1 449 0
	str	lr, [r6, #16]
	.loc 1 451 0
	beq	.L148
	.loc 1 459 0
	ldr	r1, [r6, #1264]
	cmp	r1, #99
	bgt	.L138
	.loc 1 460 0
	mov	lr, r1, asl #1
	add	r3, lr, r1
	mov	r0, r3, asl #2
	add	r2, r0, r6
	ldr	r3, [r2, #64]
	cmp	ip, r3
	addne	r3, r0, #64
	moveq	r0, r1
.LVL94:
	addne	r2, r6, r3
	movne	r0, r1
	beq	.L141
.L140:
	.loc 1 459 0
	add	r0, r0, #1
	cmp	r0, #100
	beq	.L138
	.loc 1 460 0
	ldr	r3, [r2, #12]
	add	r2, r2, #12
	cmp	ip, r3
	bne	.L140
.L141:
	mov	r1, r0
	.loc 1 461 0
	str	r0, [r6, #1264]
.L138:
	.loc 1 466 0
	add	r0, r6, #64
.LVL95:
	bl	DistanceToNextSensor(PLT)
	str	r0, [r6, #56]
	.loc 1 467 0
	bl	__floatsidf(PLT)
	add	r2, r6, #24
	ldmia	r2, {r2-r3}
	bl	__divdf3(PLT)
	mov	r2, r0
	mov	r3, r1
	mov	r0, r7
	mov	r1, r8
	bl	__adddf3(PLT)
	str	r0, [r6, #32]
	str	r1, [r6, #36]
	.loc 1 469 0
	mov	r0, r9
	mov	r1, r6
	.loc 1 470 0
	add	sp, sp, #4
	ldmfd	sp!, {r4, r5, r6, r7, r8, r9, sl, lr}
	.loc 1 469 0
	b	TrainServer_QueueSwitchStates(PLT)
.L148:
	.loc 1 452 0
	mov	r3, #4
	str	r3, [r6, #8]
	.loc 1 453 0
	ldrb	r2, [r6, #4]	@ zero_extendqisi2
	mov	r1, lr
	mov	r3, lr
	mov	r0, #2
	str	lr, [sp, #0]
	bl	SendTrainCommand(PLT)
	.loc 1 454 0
	ldr	r3, [r6, #12]
	ldr	r0, .L149+4
	ldr	r1, [r3, #0]
	add	r0, sl, r0
	.loc 1 470 0
	add	sp, sp, #4
	ldmfd	sp!, {r4, r5, r6, r7, r8, r9, sl, lr}
	.loc 1 454 0
	b	PrintMessage(PLT)
.L150:
	.align	2
.L149:
	.word	_GLOBAL_OFFSET_TABLE_-(.L147+8)
	.word	.LC12(GOTOFF)
.LFE21:
	.size	TrainServer_ProcessSensorData, .-TrainServer_ProcessSensorData
	.align	2
	.global	TrainServer_ProcessEngineAtDestination
	.type	TrainServer_ProcessEngineAtDestination, %function
TrainServer_ProcessEngineAtDestination:
.LFB22:
	.loc 1 472 0
	@ args = 0, pretend = 0, frame = 0
	@ frame_needed = 0, uses_anonymous_args = 0
.LVL96:
	stmfd	sp!, {r4, r5, lr}
.LCFI16:
	sub	sp, sp, #4
.LCFI17:
.LVL97:
	.loc 1 472 0
	mov	r5, r1
	.loc 1 474 0
	bl	Time(PLT)
.LVL98:
	ldr	r2, .L155
	mov	r4, r0
	smull	lr, ip, r2, r4
	mov	r3, r4, asr #31
	rsb	r3, r3, ip, asr #4
	add	r3, r3, r3, asl #2
	add	r3, r3, r3, asl #2
	sub	r4, r4, r3, asl #1
	subs	r3, r4, #0
	.loc 1 475 0
	mov	r1, #16
	mov	r0, #2
	.loc 1 474 0
	bne	.L154
	.loc 1 475 0
	ldrb	r2, [r5, #4]	@ zero_extendqisi2
	str	r4, [sp, #0]
	bl	SendTrainCommand(PLT)
	.loc 1 476 0
	mov	r0, #1
	bl	Delay(PLT)
	.loc 1 477 0
	ldrb	r2, [r5, #4]	@ zero_extendqisi2
	mov	r1, r4
	mov	r0, #2
	mov	r3, r4
	str	r4, [sp, #0]
	bl	SendTrainCommand(PLT)
.L154:
	.loc 1 479 0
	add	sp, sp, #4
	ldmfd	sp!, {r4, r5, pc}
.L156:
	.align	2
.L155:
	.word	1374389535
.LFE22:
	.size	TrainServer_ProcessEngineAtDestination, .-TrainServer_ProcessEngineAtDestination
	.align	2
	.global	TrainServer_GetEnginePosition
	.type	TrainServer_GetEnginePosition, %function
TrainServer_GetEnginePosition:
.LFB23:
	.loc 1 481 0
	@ args = 0, pretend = 0, frame = 0
	@ frame_needed = 0, uses_anonymous_args = 0
.LVL99:
	stmfd	sp!, {r4, lr}
.LCFI18:
	.loc 1 481 0
	mov	r1, #0
.LVL100:
	mov	lr, r0
.LVL101:
	mov	r4, r0
.LVL102:
.LVL103:
.L158:
	.loc 1 487 0
	ldr	ip, [lr, #60]
	mov	r2, #0
.L159:
	mov	r3, ip, asr r2
	ands	r0, r3, #1
	bne	.L170
	.loc 1 486 0
	add	r2, r2, #1
	cmp	r2, #16
	bne	.L159
	.loc 1 485 0
	add	r1, r1, #1
	cmp	r1, #5
	add	lr, lr, #4
	bne	.L158
	.loc 1 494 0
	ldmfd	sp!, {r4, pc}
.L170:
	.loc 1 488 0
	mov	r3, #14272
	ldr	r0, [r4, r3]
	.loc 1 494 0
	ldmfd	sp!, {r4, lr}
	.loc 1 488 0
	b	SensorToTrackNode(PLT)
.LVL104:
.LFE23:
	.size	TrainServer_GetEnginePosition, .-TrainServer_GetEnginePosition
	.align	2
	.global	TrainServer_ProcessEngineRunning
	.type	TrainServer_ProcessEngineRunning, %function
TrainServer_ProcessEngineRunning:
.LFB19:
	.loc 1 415 0
	@ args = 0, pretend = 0, frame = 0
	@ frame_needed = 0, uses_anonymous_args = 0
.LVL105:
	stmfd	sp!, {r4, r5, lr}
.LCFI19:
	.loc 1 415 0
	mov	r4, r1
	mov	r5, r0
	.loc 1 416 0
	bl	TrainServer_GetEnginePosition(PLT)
.LVL106:
	.loc 1 418 0
	subs	r2, r0, #0
.LVL107:
	ldmeqfd	sp!, {r4, r5, pc}
	ldr	r3, [r4, #12]
	.loc 1 420 0
	mov	r0, r5
	.loc 1 418 0
	cmp	r2, r3
	.loc 1 420 0
	mov	r1, r4
	.loc 1 418 0
	ldmeqfd	sp!, {r4, r5, pc}
.LVL108:
	.loc 1 419 0
	str	r2, [r4, #12]
	.loc 1 422 0
	ldmfd	sp!, {r4, r5, lr}
	.loc 1 420 0
	b	TrainServer_ProcessSensorData(PLT)
.LVL109:
.LFE19:
	.size	TrainServer_ProcessEngineRunning, .-TrainServer_ProcessEngineRunning
	.align	2
	.global	TrainServer_ProcessEngineFindingPosition
	.type	TrainServer_ProcessEngineFindingPosition, %function
TrainServer_ProcessEngineFindingPosition:
.LFB17:
	.loc 1 386 0
	@ args = 0, pretend = 0, frame = 0
	@ frame_needed = 0, uses_anonymous_args = 0
.LVL110:
	stmfd	sp!, {r4, r5, lr}
.LCFI20:
	sub	sp, sp, #4
.LCFI21:
.LVL111:
	.loc 1 386 0
	mov	r4, r1
	.loc 1 387 0
	bl	TrainServer_GetEnginePosition(PLT)
.LVL112:
	.loc 1 392 0
	mov	r5, #0
	.loc 1 390 0
	mov	lr, #2
	.loc 1 389 0
	subs	ip, r0, #0
.LVL113:
	.loc 1 392 0
	mov	r1, r5
	mov	r3, r5
	mov	r0, lr
	.loc 1 389 0
	beq	.L179
	.loc 1 392 0
	ldrb	r2, [r4, #4]	@ zero_extendqisi2
	.loc 1 391 0
	str	ip, [r4, #12]
	.loc 1 390 0
	str	lr, [r4, #8]
	.loc 1 392 0
	str	r5, [sp, #0]
	bl	SendTrainCommand(PLT)
.LVL114:
.LVL115:
.L179:
	.loc 1 394 0
	add	sp, sp, #4
	ldmfd	sp!, {r4, r5, pc}
.LFE17:
	.size	TrainServer_ProcessEngineFindingPosition, .-TrainServer_ProcessEngineFindingPosition
	.section	.rodata.str1.4
	.align	2
.LC13:
	.ascii	"Unknown Train Engine State\000"
	.text
	.align	2
	.global	TrainServer_ProcessEngine
	.type	TrainServer_ProcessEngine, %function
TrainServer_ProcessEngine:
.LFB15:
	.loc 1 350 0
	@ args = 0, pretend = 0, frame = 0
	@ frame_needed = 0, uses_anonymous_args = 0
	@ link register save eliminated.
.LVL116:
	str	sl, [sp, #-4]!
.LCFI22:
	.loc 1 351 0
	ldr	r3, [r1, #4]
	.loc 1 350 0
	ldr	sl, .L193
	.loc 1 351 0
	cmp	r3, #0
	.loc 1 350 0
.L192:
	add	sl, pc, sl
	@ lr needed for prologue
	.loc 1 351 0
	beq	.L191
	.loc 1 355 0
	ldr	r3, [r1, #8]
	cmp	r3, #5
	addls	pc, pc, r3, asl #2
	b	.L183
	.p2align 2
.L190:
	b	.L184
	b	.L185
	b	.L186
	b	.L187
	b	.L188
	b	.L189
.L191:
	.loc 1 378 0
	ldmfd	sp!, {sl}
	bx	lr
.L183:
	.loc 1 375 0
	ldr	r1, .L193+4
.LVL117:
	mov	r0, #0
.LVL118:
	add	r1, sl, r1
	.loc 1 378 0
	ldmfd	sp!, {sl}
	.loc 1 375 0
	b	assert(PLT)
.LVL119:
.L189:
	.loc 1 378 0
	ldmfd	sp!, {sl}
	.loc 1 372 0
	b	TrainServer_ProcessEngineCalibratingSpeed(PLT)
.LVL120:
.L188:
	.loc 1 378 0
	ldmfd	sp!, {sl}
	.loc 1 369 0
	b	TrainServer_ProcessEngineAtDestination(PLT)
.LVL121:
.L187:
	.loc 1 378 0
	ldmfd	sp!, {sl}
	.loc 1 366 0
	b	TrainServer_ProcessEngineRunning(PLT)
.LVL122:
.L186:
	.loc 1 378 0
	ldmfd	sp!, {sl}
	.loc 1 363 0
	b	TrainServer_ProcessEngineFoundStartingPosition(PLT)
.LVL123:
.L185:
	.loc 1 378 0
	ldmfd	sp!, {sl}
	.loc 1 360 0
	b	TrainServer_ProcessEngineFindingPosition(PLT)
.LVL124:
.L184:
	.loc 1 378 0
	ldmfd	sp!, {sl}
	.loc 1 357 0
	b	TrainServer_ProcessEngineIdle(PLT)
.LVL125:
.L194:
	.align	2
.L193:
	.word	_GLOBAL_OFFSET_TABLE_-(.L192+8)
	.word	.LC13(GOTOFF)
.LFE15:
	.size	TrainServer_ProcessEngine, .-TrainServer_ProcessEngine
	.section	.rodata
	.align	2
	.type	__func__.1874, %object
	.size	__func__.1874, 18
__func__.1874:
	.ascii	"TrainServer_Start\000"
	.section	.rodata.str1.4
	.align	2
.LC14:
	.ascii	"TrainServer did not get ACK reply from train comman"
	.ascii	"d server shutdown\000"
	.align	2
.LC15:
	.ascii	"TrainServer: unknown message type\000"
	.align	2
.LC16:
	.ascii	"TrainServer: did not get admin tid\000"
	.align	2
.LC17:
	.ascii	"TrainServer: failed to set ack message\000"
	.text
	.align	2
	.global	TrainServer_Start
	.type	TrainServer_Start, %function
TrainServer_Start:
.LFB2:
	.loc 1 10 0
	@ args = 0, pretend = 0, frame = 17592
	@ frame_needed = 0, uses_anonymous_args = 0
.LVL126:
	stmfd	sp!, {r4, r5, sl, lr}
.LCFI23:
	ldr	sl, .L222
	sub	sp, sp, #17408
.LCFI24:
.LVL127:
	.loc 1 11 0
	ldr	r3, .L222+4
	.loc 1 10 0
	sub	sp, sp, #188
.LCFI25:
.LVL128:
	.loc 1 11 0
	ldr	r2, .L222+8
	.loc 1 10 0
.L220:
	add	sl, pc, sl
	.loc 1 13 0
	add	r4, sp, #188
	.loc 1 11 0
	ldr	r0, [sl, r3]
	ldr	r1, [sl, r2]
	.loc 1 13 0
	sub	r4, r4, #184
	.loc 1 11 0
	bl	DebugRegisterFunction(PLT)
	.loc 1 13 0
	mov	r0, r4
	bl	TrainServer_Initialize(PLT)
	.loc 1 16 0
	ldr	r3, [r4, #424]
	.loc 1 13 0
	mov	r5, #0
.LVL129:
	.loc 1 16 0
	cmp	r3, #0
	beq	.L221
.L197:
.LBB7:
	.loc 1 17 0
	mov	r1, r4
	mov	r2, #16
	add	r0, r4, #420
	bl	Receive(PLT)
	.loc 1 18 0
	ldr	r1, [r4, #36]
	.loc 1 20 0
	ldr	r0, [r4, #32]
	.loc 1 18 0
	mov	r2, #10
	str	r2, [r1, #0]
	.loc 1 20 0
	ldr	r3, [r0, #0]
	sub	r3, r3, #12
	cmp	r3, #26
	addls	pc, pc, r3, asl #2
	b	.L198
	.p2align 2
.L213:
	b	.L199
	b	.L198
	b	.L198
	b	.L198
	b	.L198
	b	.L198
	b	.L198
	b	.L198
	b	.L198
	b	.L198
	b	.L200
	b	.L198
	b	.L198
	b	.L201
	b	.L202
	b	.L198
	b	.L203
	b	.L204
	b	.L205
	b	.L206
	b	.L207
	b	.L208
	b	.L209
	b	.L198
	b	.L210
	b	.L211
	b	.L212
.L199:
	.loc 1 26 0
	mov	lr, #16
	.loc 1 24 0
	mov	ip, #1
	.loc 1 26 0
	add	r3, r4, lr
	.loc 1 24 0
	str	ip, [r4, #40]
	.loc 1 26 0
	ldr	r0, [r4, #428]
	mov	r2, lr
	str	lr, [sp, #0]
	mov	r1, r4
	.loc 1 23 0
	ldr	r5, [r4, #420]
	.loc 1 26 0
	bl	Send(PLT)
	.loc 1 28 0
	ldr	r3, [r4, #36]
	ldr	r1, .L222+12
	ldr	r0, [r3, #0]
	add	r1, sl, r1
	cmp	r0, #10
	movne	r0, #0
	moveq	r0, #1
	bl	assert(PLT)
	.loc 1 30 0
	ldr	r3, [r4, #424]
	sub	r3, r3, #1
	str	r3, [r4, #424]
.L214:
	.loc 1 98 0
	add	r1, r4, #16320
	add	r1, r1, #4
	mov	r0, r4
	bl	TrainServer_ProcessEngine(PLT)
.LBE7:
	.loc 1 16 0
	ldr	r3, [r4, #424]
	cmp	r3, #0
	bne	.L197
.L221:
	.loc 1 101 0
	ldr	r1, .L222+16
	mov	r0, r5
	add	r1, sl, r1
	bl	assert(PLT)
	.loc 1 102 0
	ldr	r2, [r4, #36]
	.loc 1 103 0
	ldr	r1, .L222+20
	.loc 1 102 0
	mov	r3, #10
	str	r3, [r2, #0]
	.loc 1 103 0
	add	r1, sl, r1
	mov	r0, #1
	bl	assert(PLT)
	.loc 1 104 0
	add	r1, r4, #16
	mov	r2, #16
	mov	r0, r5
	bl	Reply(PLT)
	.loc 1 107 0
	bl	Exit(PLT)
	.loc 1 108 0
	add	sp, sp, #188
	add	sp, sp, #17408
	ldmfd	sp!, {r4, r5, sl, pc}
.L200:
.LBB8:
	.loc 1 34 0
	ldr	r3, [r4, #40]
	.loc 1 38 0
	ldr	r0, [r4, #420]
	.loc 1 34 0
	cmp	r3, #1
	.loc 1 35 0
	ldreq	r2, [r4, #36]
	addeq	r3, r3, #11
	streq	r3, [r2, #0]
	.loc 1 38 0
	add	r1, r4, #16
	mov	r2, #16
	bl	Reply(PLT)
	.loc 1 40 0
	ldr	r3, [r4, #40]
	cmp	r3, #1
	.loc 1 41 0
	ldreq	r3, [r4, #424]
	subeq	r3, r3, #1
	streq	r3, [r4, #424]
	b	.L214
.L201:
	.loc 1 46 0
	mov	r0, r4
	bl	TrainServer_HandleSensorReaderData(PLT)
	b	.L214
.L202:
	.loc 1 50 0
	mov	r0, r4
	bl	TrainServer_HandleSwitchData(PLT)
	b	.L214
.L203:
	.loc 1 54 0
	mov	r0, r4
	bl	TrainServer_HandleSensorQuery(PLT)
	b	.L214
.L204:
	.loc 1 58 0
	mov	r0, r4
	bl	TrainServer_HandleSwitchQuery(PLT)
	b	.L214
.L205:
	.loc 1 62 0
	ldr	r2, [r4, #420]
	.loc 1 61 0
	mov	r3, #2
	str	r3, [r4, #40]
	.loc 1 62 0
	str	r2, [r4, #436]
	b	.L214
.L206:
	.loc 1 67 0
	mov	r0, r4
	bl	TrainServer_HandleSelectTrack(PLT)
	b	.L214
.L207:
	.loc 1 71 0
	mov	r0, r4
	bl	TrainServer_HandleSetTrain(PLT)
	b	.L214
.L208:
	.loc 1 75 0
	mov	r0, r4
	bl	TrainServer_HandleSetDestination(PLT)
	b	.L214
.L209:
	.loc 1 79 0
	mov	r0, r4
	bl	TrainServer_HandleQueryTrainEngine(PLT)
	b	.L214
.L198:
	.loc 1 93 0
	ldr	r1, .L222+24
	mov	r0, #0
	add	r1, sl, r1
	bl	assert(PLT)
	b	.L214
.L210:
	.loc 1 83 0
	mov	r0, r4
	bl	TrainServer_HandleTrainEngineClientCommandRequest(PLT)
	b	.L214
.L211:
	.loc 1 87 0
	mov	r0, r4
	bl	TrainServer_HandleGetSwitchRequest(PLT)
	b	.L214
.L212:
	.loc 1 90 0
	mov	r0, r4
	bl	TrainServer_HandleSetSwitch(PLT)
	b	.L214
.L223:
	.align	2
.L222:
	.word	_GLOBAL_OFFSET_TABLE_-(.L220+8)
	.word	TrainServer_Start(GOT)
	.word	__func__.1874(GOT)
	.word	.LC14(GOTOFF)
	.word	.LC16(GOTOFF)
	.word	.LC17(GOTOFF)
	.word	.LC15(GOTOFF)
.LBE8:
.LFE2:
	.size	TrainServer_Start, .-TrainServer_Start
	.section	.rodata
	.align	2
	.type	__func__.2275, %object
	.size	__func__.2275, 23
__func__.2275:
	.ascii	"TrainServerTimer_Start\000"
	.section	.rodata.str1.4
	.align	2
.LC18:
	.ascii	"TrainServerTimer failed to register name\000"
	.align	2
.LC19:
	.ascii	"TrainServerTimer: server tid not found\000"
	.align	2
.LC20:
	.ascii	"TrainServerTimer: didn't get ACK message\000"
	.text
	.align	2
	.global	TrainServerTimer_Start
	.type	TrainServerTimer_Start, %function
TrainServerTimer_Start:
.LFB25:
	.loc 1 524 0
	@ args = 0, pretend = 0, frame = 32
	@ frame_needed = 0, uses_anonymous_args = 0
.LVL130:
	stmfd	sp!, {r4, r5, r6, r7, r8, sl, lr}
.LCFI26:
	ldr	sl, .L231
	.loc 1 525 0
	ldr	r2, .L231+4
	ldr	r3, .L231+8
	.loc 1 524 0
.L230:
	add	sl, pc, sl
	sub	sp, sp, #36
.LCFI27:
.LVL131:
	.loc 1 525 0
	ldr	r1, [sl, r2]
	ldr	r0, [sl, r3]
	bl	DebugRegisterFunction(PLT)
	.loc 1 526 0
	ldr	r3, .L231+12
	ldr	r8, .L231+16
	ldr	r0, [sl, r3]
	bl	RegisterAs(PLT)
	.loc 1 527 0
	ldr	r1, .L231+20
	rsbs	r0, r0, #1
	movcc	r0, #0
	add	r1, sl, r1
	bl	assert(PLT)
	.loc 1 532 0
	ldr	r3, .L231+24
	.loc 1 531 0
	add	r7, sp, #4
	.loc 1 532 0
	ldr	r0, [sl, r3]
	bl	WhoIs(PLT)
	.loc 1 533 0
	ldr	r1, .L231+28
	.loc 1 532 0
	mov	r5, r0
.LVL132:
	.loc 1 533 0
	add	r1, sl, r1
	bl	assert(PLT)
	.loc 1 535 0
	mov	r3, #22
	add	r6, sp, #20
	str	r3, [sp, #20]
	mov	r4, #16
.L225:
	.loc 1 538 0
	mov	r0, #1056964608
	bl	DelaySeconds(PLT)
	.loc 1 539 0
	mov	r3, r7
	mov	r1, r6
	mov	r2, r4
	mov	r0, r5
	str	r4, [sp, #0]
	bl	Send(PLT)
	.loc 1 540 0
	ldr	r0, [sp, #4]
	add	r1, sl, r8
	cmp	r0, #12
	cmpne	r0, #10
	movne	r0, #0
	moveq	r0, #1
	bl	assert(PLT)
	.loc 1 543 0
	ldr	r3, [sp, #4]
	cmp	r3, #12
	bne	.L225
	.loc 1 548 0
	bl	Exit(PLT)
	.loc 1 549 0
	add	sp, sp, #36
	ldmfd	sp!, {r4, r5, r6, r7, r8, sl, pc}
.L232:
	.align	2
.L231:
	.word	_GLOBAL_OFFSET_TABLE_-(.L230+8)
	.word	__func__.2275(GOT)
	.word	TrainServerTimer_Start(GOT)
	.word	TRAIN_SERVER_TIMER_NAME(GOT)
	.word	.LC20(GOTOFF)
	.word	.LC18(GOTOFF)
	.word	TRAIN_SERVER_NAME(GOT)
	.word	.LC19(GOTOFF)
.LFE25:
	.size	TrainServerTimer_Start, .-TrainServerTimer_Start
	.section	.rodata
	.align	2
	.type	__func__.2294, %object
	.size	__func__.2294, 25
__func__.2294:
	.ascii	"TrainCommandServer_Start\000"
	.section	.rodata.str1.4
	.align	2
.LC21:
	.ascii	"TrainCommandServer failed to register\000"
	.align	2
.LC22:
	.ascii	"TrainCommandServer_Start: failed to get train serve"
	.ascii	"r tid\000"
	.align	2
.LC23:
	.ascii	"TrainCommandServer did not get train command\000"
	.align	2
.LC24:
	.ascii	"module_num out of range (not using 0-indexed?)\000"
	.align	2
.LC25:
	.ascii	"Unknown train command\000"
	.text
	.align	2
	.global	TrainCommandServer_Start
	.type	TrainCommandServer_Start, %function
TrainCommandServer_Start:
.LFB26:
	.loc 1 551 0
	@ args = 0, pretend = 0, frame = 76
	@ frame_needed = 0, uses_anonymous_args = 0
.LVL133:
	stmfd	sp!, {r4, r5, r6, r7, sl, lr}
.LCFI28:
	ldr	sl, .L249
	.loc 1 552 0
	ldr	r2, .L249+4
	ldr	r3, .L249+8
	.loc 1 551 0
.L247:
	add	sl, pc, sl
	sub	sp, sp, #76
.LCFI29:
.LVL134:
	.loc 1 552 0
	ldr	r1, [sl, r2]
	ldr	r0, [sl, r3]
	bl	DebugRegisterFunction(PLT)
	.loc 1 554 0
	ldr	r3, .L249+12
	.loc 1 559 0
	add	r6, sp, #56
	.loc 1 554 0
	ldr	r0, [sl, r3]
	bl	RegisterAs(PLT)
	.loc 1 555 0
	ldr	r1, .L249+16
	rsbs	r0, r0, #1
	movcc	r0, #0
	add	r1, sl, r1
	bl	assertf(PLT)
	.loc 1 563 0
	ldr	r3, .L249+20
	add	r7, sp, #72
	ldr	r0, [sl, r3]
	bl	WhoIs(PLT)
	.loc 1 565 0
	ldr	r1, .L249+24
	.loc 1 560 0
	add	r5, sp, #40
	.loc 1 565 0
	add	r1, sl, r1
	bl	assert(PLT)
	.loc 1 571 0
	mov	r0, r7
	mov	r1, r6
	mov	r2, #16
	bl	Receive(PLT)
	.loc 1 573 0
	ldr	r0, [sp, #56]
	cmp	r0, #12
	beq	.L248
.LVL135:
.L235:
	.loc 1 578 0
	ldr	r1, .L249+28
	cmp	r0, #27
	movne	r0, #0
	moveq	r0, #1
	add	r1, sl, r1
	bl	assert(PLT)
	.loc 1 581 0
	ldr	r3, [sp, #60]
	sub	r3, r3, #2
	cmp	r3, #5
	addls	pc, pc, r3, asl #2
	b	.L237
	.p2align 2
.L244:
	b	.L238
	b	.L239
	b	.L240
	b	.L241
	b	.L242
	b	.L243
.L237:
	.loc 1 642 0
	ldr	r1, .L249+32
	mov	r0, #0
	add	r1, sl, r1
	bl	assert(PLT)
.L245:
	.loc 1 646 0
	mov	r3, #10
	.loc 1 647 0
	mov	r1, r5
	mov	r2, #16
	ldr	r0, [sp, #72]
	.loc 1 646 0
	str	r3, [r5, #0]
	.loc 1 647 0
	bl	Reply(PLT)
	.loc 1 571 0
	mov	r0, r7
	mov	r1, r6
	mov	r2, #16
	bl	Receive(PLT)
	.loc 1 573 0
	ldr	r0, [sp, #56]
	cmp	r0, #12
	bne	.L235
.L248:
	.loc 1 574 0
	mov	r3, #10
	.loc 1 575 0
	mov	r1, r5
	mov	r2, #16
	ldr	r0, [sp, #72]
	.loc 1 574 0
	str	r3, [r5, #0]
	.loc 1 575 0
	bl	Reply(PLT)
	.loc 1 650 0
	bl	Exit(PLT)
	.loc 1 651 0
	add	sp, sp, #76
	ldmfd	sp!, {r4, r5, r6, r7, sl, pc}
.L238:
	.loc 1 585 0
	mov	r1, #2
	ldrb	r2, [r6, #8]	@ zero_extendqisi2
	ldrb	r3, [r6, #9]	@ zero_extendqisi2
	mov	r0, #0
	bl	PutcAtomic(PLT)
	b	.L245
.L239:
	.loc 1 589 0
	ldrb	r4, [r6, #8]	@ zero_extendqisi2
	mov	r0, #0
	mov	r3, r4
	mov	r1, #2
	mov	r2, r0
	bl	PutcAtomic(PLT)
	.loc 1 590 0
	mov	r0, #1056964608
	bl	DelaySeconds(PLT)
	.loc 1 591 0
	mov	r3, r4
	mov	r1, #2
	mov	r2, #15
	mov	r0, #0
	bl	PutcAtomic(PLT)
	.loc 1 592 0
	mov	r0, #1056964608
	bl	DelaySeconds(PLT)
	.loc 1 593 0
	mov	r3, r4
	mov	r1, #2
	mov	r2, #5
	mov	r0, #0
	bl	PutcAtomic(PLT)
	b	.L245
.L240:
	.loc 1 598 0
	ldrb	r2, [r6, #8]	@ zero_extendqisi2
	ldrb	r3, [r6, #9]	@ zero_extendqisi2
	mov	r1, #2
	mov	r0, #0
	bl	PutcAtomic(PLT)
	.loc 1 599 0
	ldr	r0, .L249+36
	bl	DelaySeconds(PLT)
	.loc 1 600 0
	mov	r1, #32
	mov	r0, #0
	bl	Putc(PLT)
	.loc 1 603 0
	ldr	r0, .L249+40
	bl	DelaySeconds(PLT)
	.loc 1 604 0
	mov	r1, #32
	mov	r0, #0
	bl	Putc(PLT)
	b	.L245
.L241:
	.loc 1 608 0
	ldrb	r4, [r6, #8]	@ zero_extendqisi2
.LVL136:
	.loc 1 609 0
	ldr	r1, .L249+44
	cmp	r4, #4
	movhi	r0, #0
	movls	r0, #1
	.loc 1 610 0
	add	r4, r4, #1
.LVL137:
	mvn	r4, r4, asl #26
	mvn	r4, r4, lsr #26
	.loc 1 609 0
	add	r1, sl, r1
	.loc 1 610 0
	and	r4, r4, #255
	.loc 1 609 0
	bl	assert(PLT)
	.loc 1 610 0
	mov	r1, r4
	mov	r0, #0
	bl	Putc(PLT)
	.loc 1 613 0
	mov	r0, #0
	bl	Getc(PLT)
	mov	r4, r0
	.loc 1 614 0
	mov	r0, #0
	bl	Getc(PLT)
	.loc 1 616 0
	strb	r4, [r5, #8]
	.loc 1 617 0
	strb	r0, [r5, #9]
	b	.L245
.L242:
	.loc 1 621 0
	ldrb	r0, [r6, #8]	@ zero_extendqisi2
	ldr	r1, .L249+44
	cmp	r0, #4
	movhi	r0, #0
	movls	r0, #1
	add	r1, sl, r1
	bl	assert(PLT)
	.loc 1 622 0
	mov	r1, #133
	mov	r0, #0
	bl	Putc(PLT)
	.loc 1 625 0
	mov	r0, #0
	bl	Getc(PLT)
	str	r0, [sp, #20]
	.loc 1 626 0
	mov	r0, #0
	bl	Getc(PLT)
	str	r0, [sp, #0]
	.loc 1 627 0
	mov	r0, #0
	bl	Getc(PLT)
	str	r0, [sp, #24]
	.loc 1 628 0
	mov	r0, #0
	bl	Getc(PLT)
	str	r0, [sp, #4]
	.loc 1 629 0
	mov	r0, #0
	bl	Getc(PLT)
	str	r0, [sp, #28]
	.loc 1 630 0
	mov	r0, #0
	bl	Getc(PLT)
	str	r0, [sp, #8]
	.loc 1 631 0
	mov	r0, #0
	bl	Getc(PLT)
	str	r0, [sp, #32]
	.loc 1 632 0
	mov	r0, #0
	bl	Getc(PLT)
	str	r0, [sp, #12]
	.loc 1 633 0
	mov	r0, #0
	bl	Getc(PLT)
	str	r0, [sp, #36]
	.loc 1 634 0
	mov	r0, #0
	bl	Getc(PLT)
	str	r0, [sp, #16]
	b	.L245
.L243:
	.loc 1 638 0
	ldrb	r3, [r6, #8]	@ zero_extendqisi2
	add	r2, sp, #76
	add	r1, r2, r3, asl #2
	ldr	r2, [r1, #-56]
	strb	r2, [r5, #8]
	.loc 1 639 0
	ldr	r3, [r1, #-76]
	strb	r3, [r5, #9]
	b	.L245
.L250:
	.align	2
.L249:
	.word	_GLOBAL_OFFSET_TABLE_-(.L247+8)
	.word	__func__.2294(GOT)
	.word	TrainCommandServer_Start(GOT)
	.word	TRAIN_COMMAND_SERVER_NAME(GOT)
	.word	.LC21(GOTOFF)
	.word	TRAIN_SERVER_NAME(GOT)
	.word	.LC22(GOTOFF)
	.word	.LC23(GOTOFF)
	.word	.LC25(GOTOFF)
	.word	1041865114
	.word	1045220557
	.word	.LC24(GOTOFF)
.LFE26:
	.size	TrainCommandServer_Start, .-TrainCommandServer_Start
	.section	.rodata
	.align	2
	.type	__func__.2358, %object
	.size	__func__.2358, 24
__func__.2358:
	.ascii	"TrainSensorReader_Start\000"
	.section	.rodata.str1.4
	.align	2
.LC26:
	.ascii	"TrainSensorMessage size too big\000"
	.align	2
.LC27:
	.ascii	"TrainSensorReader failed to get server tid\000"
	.align	2
.LC28:
	.ascii	"TrainSensorReader failed to get ACK message\000"
	.text
	.align	2
	.global	TrainSensorReader_Start
	.type	TrainSensorReader_Start, %function
TrainSensorReader_Start:
.LFB27:
	.loc 1 653 0
	@ args = 0, pretend = 0, frame = 44
	@ frame_needed = 0, uses_anonymous_args = 0
.LVL138:
	stmfd	sp!, {r4, r5, r6, r7, r8, r9, sl, fp, lr}
.LCFI30:
	ldr	sl, .L264
	.loc 1 654 0
	ldr	r3, .L264+4
	ldr	r2, .L264+8
	.loc 1 653 0
.L262:
	add	sl, pc, sl
	sub	sp, sp, #48
.LCFI31:
.LVL139:
	.loc 1 654 0
	ldr	r0, [sl, r3]
	ldr	r1, [sl, r2]
	bl	DebugRegisterFunction(PLT)
	.loc 1 666 0
	ldr	r1, .L264+12
	mov	r0, #1
	add	r1, sl, r1
	bl	assert(PLT)
	ldr	r6, .L264+16
	ldr	r5, .L264+20
	.loc 1 659 0
	add	r3, sp, #12
	.loc 1 658 0
	add	r8, sp, #28
	.loc 1 666 0
	mov	r4, #0
.LVL140:
	.loc 1 659 0
	str	r3, [sp, #8]
	b	.L252
.LVL141:
.L263:
	.loc 1 677 0
	cmp	r4, #99
	movgt	r0, #0
	movle	r0, #1
	bl	assert(PLT)
.L252:
	.loc 1 670 0
	ldr	r0, [sl, r6]
	bl	WhoIs(PLT)
	.loc 1 672 0
	subs	r9, r0, #0
	.loc 1 676 0
	add	r4, r4, #1
	.loc 1 677 0
	add	r1, sl, r5
	.loc 1 672 0
	beq	.L263
	.loc 1 680 0
	mov	r0, #1065353216
	bl	DelaySeconds(PLT)
	add	r3, sp, #47
	str	r3, [sp, #4]
	add	fp, sp, #46
.LVL142:
.L255:
	.loc 1 683 0
	mov	r1, #0
	mov	r0, #6
	mov	r2, r1
	str	fp, [sp, #0]
	bl	SendTrainCommand(PLT)
	mov	r7, #0
.L256:
.LBB9:
	.loc 1 685 0
	mov	r1, r7
	mov	r2, #0
	ldr	r3, [sp, #4]
	mov	r0, #7
	str	fp, [sp, #0]
	bl	SendTrainCommand(PLT)
	.loc 1 689 0
	ldrb	r3, [sp, #46]	@ zero_extendqisi2
.LVL143:
	.loc 1 690 0
	ldrb	r2, [sp, #47]	@ zero_extendqisi2
.LVL144:
	.loc 1 692 0
	ldr	r4, .L264+24
.LVL145:
	ldr	r0, .L264+28
	add	r3, r3, r3, asl #10
.LVL146:
	.loc 1 694 0
	add	r2, r2, r2, asl #10
.LVL147:
	.loc 1 692 0
	mov	ip, r3, asl #5
	.loc 1 694 0
	mov	r5, r2, asl #5
	mov	lr, r4
	mov	r1, r0
	.loc 1 692 0
	mov	r3, r3, asl #1
	.loc 1 694 0
	mov	r2, r2, asl #1
	.loc 1 692 0
	and	r0, ip, r0
	.loc 1 694 0
	and	r1, r5, r1
	.loc 1 692 0
	and	r4, r3, r4
	.loc 1 694 0
	and	lr, r2, lr
	.loc 1 692 0
	orr	r4, r4, r0
	.loc 1 694 0
	orr	lr, lr, r1
	.loc 1 692 0
	add	r3, r4, r4, asl #8
	.loc 1 694 0
	add	r2, lr, lr, asl #8
	.loc 1 692 0
	add	r4, r4, r3, asl #8
	.loc 1 694 0
	add	lr, lr, r2, asl #8
	.loc 1 692 0
	mov	r4, r4, lsr #16
	.loc 1 694 0
	mov	lr, lr, lsr #16
	and	lr, lr, #255
	.loc 1 692 0
	and	r4, r4, #255
	.loc 1 700 0
	mov	r6, #16
	.loc 1 697 0
	orr	r5, lr, r4, asl #8
	.loc 1 700 0
	mov	r1, r8
	.loc 1 696 0
	mov	ip, #25
	.loc 1 700 0
	mov	r2, r6
	ldr	r3, [sp, #8]
	mov	r0, r9
	.loc 1 698 0
	str	r7, [r8, #4]
	.loc 1 696 0
	str	ip, [r8, #0]
	.loc 1 697 0
	str	r5, [r8, #8]
	.loc 1 692 0
	strb	r4, [sp, #46]
	.loc 1 694 0
	strb	lr, [sp, #47]
	.loc 1 700 0
	str	r6, [sp, #0]
	bl	Send(PLT)
	.loc 1 702 0
	ldr	r0, [sp, #12]
	.loc 1 707 0
	ldr	r1, .L264+32
	.loc 1 702 0
	cmp	r0, #12
	.loc 1 707 0
	add	r7, r7, #1
	add	r1, sl, r1
	.loc 1 702 0
	beq	.L257
	.loc 1 707 0
	cmp	r0, #10
	movne	r0, #0
	moveq	r0, #1
	bl	assert(PLT)
.LBE9:
	.loc 1 684 0
	cmp	r7, #5
	bne	.L256
	ldr	r3, [sp, #4]
	b	.L255
.L257:
	.loc 1 716 0
	bl	Exit(PLT)
	.loc 1 717 0
	add	sp, sp, #48
	ldmfd	sp!, {r4, r5, r6, r7, r8, r9, sl, fp, pc}
.L265:
	.align	2
.L264:
	.word	_GLOBAL_OFFSET_TABLE_-(.L262+8)
	.word	TrainSensorReader_Start(GOT)
	.word	__func__.2358(GOT)
	.word	.LC26(GOTOFF)
	.word	TRAIN_SERVER_NAME(GOT)
	.word	.LC27(GOTOFF)
	.word	139536
	.word	558144
	.word	.LC28(GOTOFF)
.LFE27:
	.size	TrainSensorReader_Start, .-TrainSensorReader_Start
	.align	2
	.global	TrainEngine_SetInitialSwitches
	.type	TrainEngine_SetInitialSwitches, %function
TrainEngine_SetInitialSwitches:
.LFB30:
	.loc 1 766 0
	@ args = 0, pretend = 0, frame = 0
	@ frame_needed = 0, uses_anonymous_args = 0
.LVL148:
	str	lr, [sp, #-4]!
.LCFI32:
	.loc 1 767 0
	mov	r1, #11
	mov	r0, #34
	bl	SetTrainSwitch(PLT)
	.loc 1 768 0
	mov	r1, #14
	mov	r0, #33
	bl	SetTrainSwitch(PLT)
	.loc 1 769 0
	mov	r1, #15
	mov	r0, #33
	bl	SetTrainSwitch(PLT)
	.loc 1 770 0
	mov	r1, #6
	mov	r0, #33
	bl	SetTrainSwitch(PLT)
	.loc 1 771 0
	mov	r1, #7
	mov	r0, #33
	bl	SetTrainSwitch(PLT)
	.loc 1 772 0
	mov	r1, #8
	mov	r0, #33
	bl	SetTrainSwitch(PLT)
	.loc 1 773 0
	mov	r0, #33
	mov	r1, #9
	.loc 1 774 0
	ldr	lr, [sp], #4
	.loc 1 773 0
	b	SetTrainSwitch(PLT)
.LFE30:
	.size	TrainEngine_SetInitialSwitches, .-TrainEngine_SetInitialSwitches
	.section	.rodata
	.align	2
	.type	__func__.2409, %object
	.size	__func__.2409, 24
__func__.2409:
	.ascii	"TrainEngineClient_Start\000"
	.section	.rodata.str1.4
	.align	2
.LC29:
	.ascii	"TrainEngineClient failed to get server tid\000"
	.align	2
.LC30:
	.ascii	"TrainEngineClient: unknown message type %d\000"
	.text
	.align	2
	.global	TrainEngineClient_Start
	.type	TrainEngineClient_Start, %function
TrainEngineClient_Start:
.LFB29:
	.loc 1 733 0
	@ args = 0, pretend = 0, frame = 32
	@ frame_needed = 0, uses_anonymous_args = 0
.LVL149:
	stmfd	sp!, {r4, r5, r6, r7, sl, lr}
.LCFI33:
	ldr	sl, .L283
	.loc 1 734 0
	ldr	r3, .L283+4
	ldr	r2, .L283+8
	.loc 1 733 0
.L280:
	add	sl, pc, sl
	sub	sp, sp, #36
.LCFI34:
.LVL150:
	.loc 1 734 0
	ldr	r1, [sl, r2]
	ldr	r0, [sl, r3]
	bl	DebugRegisterFunction(PLT)
	.loc 1 739 0
	bl	MyParentTid(PLT)
	.loc 1 740 0
	ldr	r1, .L283+12
	.loc 1 739 0
	mov	r5, r0
.LVL151:
	.loc 1 740 0
	add	r1, sl, r1
	bl	assert(PLT)
	.loc 1 742 0
	mov	r3, #36
	str	r3, [sp, #20]
	.loc 1 744 0
	bl	TrainEngine_SetInitialSwitches(PLT)
	ldr	r7, .L283+16
	.loc 1 738 0
	add	r4, sp, #4
	add	r6, sp, #20
.L281:
	.loc 1 747 0
	mov	ip, #16
	mov	r3, r4
	mov	r2, ip
	mov	r1, r6
	mov	r0, r5
	str	ip, [sp, #0]
	bl	Send(PLT)
	.loc 1 749 0
	ldr	r3, [sp, #8]
	.loc 1 752 0
	ldr	r0, .L283+20
	.loc 1 749 0
	cmp	r3, #0
	beq	.L271
	cmp	r3, #1
	.loc 1 758 0
	mov	r2, r3
	mov	r0, #0
	add	r1, sl, r7
	.loc 1 749 0
	beq	.L282
	.loc 1 758 0
	bl	assertf(PLT)
	b	.L281
.L271:
	.loc 1 752 0
	bl	DelaySeconds(PLT)
	b	.L281
.L282:
	.loc 1 755 0
	mov	ip, #0
	ldrb	r1, [r4, #8]	@ zero_extendqisi2
	ldrb	r2, [r4, #9]	@ zero_extendqisi2
	mov	r3, ip
	mov	r0, #2
	str	ip, [sp, #0]
	bl	SendTrainCommand(PLT)
	b	.L281
.L284:
	.align	2
.L283:
	.word	_GLOBAL_OFFSET_TABLE_-(.L280+8)
	.word	TrainEngineClient_Start(GOT)
	.word	__func__.2409(GOT)
	.word	.LC29(GOTOFF)
	.word	.LC30(GOTOFF)
	.word	1008981770
.LFE29:
	.size	TrainEngineClient_Start, .-TrainEngineClient_Start
	.section	.rodata
	.align	2
	.type	__func__.2431, %object
	.size	__func__.2431, 24
__func__.2431:
	.ascii	"TrainSwitchMaster_Start\000"
	.section	.rodata.str1.4
	.align	2
.LC31:
	.ascii	"TrainSwitchMaster failed to register\000"
	.align	2
.LC32:
	.ascii	"TrainSwitchMaster_Start: failed to get train server"
	.ascii	" tid\000"
	.text
	.align	2
	.global	TrainSwitchMaster_Start
	.type	TrainSwitchMaster_Start, %function
TrainSwitchMaster_Start:
.LFB31:
	.loc 1 776 0
	@ args = 0, pretend = 0, frame = 32
	@ frame_needed = 0, uses_anonymous_args = 0
.LVL152:
	stmfd	sp!, {r4, r5, r6, sl, lr}
.LCFI35:
	ldr	sl, .L297
	.loc 1 777 0
	ldr	r2, .L297+4
	ldr	r3, .L297+8
	.loc 1 776 0
.L295:
	add	sl, pc, sl
	sub	sp, sp, #36
.LCFI36:
.LVL153:
	.loc 1 777 0
	ldr	r1, [sl, r2]
	ldr	r0, [sl, r3]
	bl	DebugRegisterFunction(PLT)
	.loc 1 779 0
	ldr	r3, .L297+12
	.loc 1 785 0
	add	r6, sp, #4
	.loc 1 779 0
	ldr	r0, [sl, r3]
	bl	RegisterAs(PLT)
	.loc 1 780 0
	ldr	r1, .L297+16
	rsbs	r0, r0, #1
	movcc	r0, #0
	add	r1, sl, r1
	bl	assertf(PLT)
	.loc 1 787 0
	ldr	r3, .L297+20
	add	r5, sp, #20
	ldr	r0, [sl, r3]
	bl	WhoIs(PLT)
	.loc 1 789 0
	ldr	r1, .L297+24
	.loc 1 787 0
	mov	r4, r0
.LVL154:
	.loc 1 789 0
	add	r1, sl, r1
	bl	assert(PLT)
	.loc 1 791 0
	mov	r3, #37
	str	r3, [sp, #20]
	b	.L296
.L287:
	.loc 1 801 0
	ldr	r0, .L297+28
	bl	DelaySeconds(PLT)
.L296:
	.loc 1 794 0
	mov	ip, #16
	mov	r2, ip
	mov	r3, r6
	mov	r1, r5
	mov	r0, r4
	str	ip, [sp, #0]
	bl	Send(PLT)
	.loc 1 796 0
	ldr	r2, [sp, #4]
	.loc 1 799 0
	mov	ip, #0
	.loc 1 796 0
	cmp	r2, #10
	.loc 1 799 0
	mov	r3, ip
	mov	r0, #4
	.loc 1 796 0
	bne	.L287
	.loc 1 799 0
	ldrb	r1, [sp, #12]	@ zero_extendqisi2
	ldrb	r2, [sp, #13]	@ zero_extendqisi2
	str	ip, [sp, #0]
	bl	SendTrainCommand(PLT)
	b	.L296
.L298:
	.align	2
.L297:
	.word	_GLOBAL_OFFSET_TABLE_-(.L295+8)
	.word	__func__.2431(GOT)
	.word	TrainSwitchMaster_Start(GOT)
	.word	TRAIN_SWITCH_MASTER_NAME(GOT)
	.word	.LC31(GOTOFF)
	.word	TRAIN_SERVER_NAME(GOT)
	.word	.LC32(GOTOFF)
	.word	1028443341
.LFE31:
	.size	TrainSwitchMaster_Start, .-TrainSwitchMaster_Start
	.section	.debug_frame,"",%progbits
.Lframe0:
	.4byte	.LECIE0-.LSCIE0
.LSCIE0:
	.4byte	0xffffffff
	.byte	0x1
	.ascii	"\000"
	.uleb128 0x1
	.sleb128 -4
	.byte	0xe
	.byte	0xc
	.uleb128 0xd
	.uleb128 0x0
	.align	2
.LECIE0:
.LSFDE0:
	.4byte	.LEFDE0-.LASFDE0
.LASFDE0:
	.4byte	.Lframe0
	.4byte	.LFB6
	.4byte	.LFE6-.LFB6
	.align	2
.LEFDE0:
.LSFDE2:
	.4byte	.LEFDE2-.LASFDE2
.LASFDE2:
	.4byte	.Lframe0
	.4byte	.LFB5
	.4byte	.LFE5-.LFB5
	.align	2
.LEFDE2:
.LSFDE4:
	.4byte	.LEFDE4-.LASFDE4
.LASFDE4:
	.4byte	.Lframe0
	.4byte	.LFB7
	.4byte	.LFE7-.LFB7
	.align	2
.LEFDE4:
.LSFDE6:
	.4byte	.LEFDE6-.LASFDE6
.LASFDE6:
	.4byte	.Lframe0
	.4byte	.LFB8
	.4byte	.LFE8-.LFB8
	.align	2
.LEFDE6:
.LSFDE8:
	.4byte	.LEFDE8-.LASFDE8
.LASFDE8:
	.4byte	.Lframe0
	.4byte	.LFB11
	.4byte	.LFE11-.LFB11
	.byte	0x4
	.4byte	.LCFI0-.LFB11
	.byte	0xe
	.uleb128 0xc
	.byte	0x8e
	.uleb128 0x1
	.byte	0x8a
	.uleb128 0x2
	.byte	0x84
	.uleb128 0x3
	.align	2
.LEFDE8:
.LSFDE10:
	.4byte	.LEFDE10-.LASFDE10
.LASFDE10:
	.4byte	.Lframe0
	.4byte	.LFB12
	.4byte	.LFE12-.LFB12
	.align	2
.LEFDE10:
.LSFDE12:
	.4byte	.LEFDE12-.LASFDE12
.LASFDE12:
	.4byte	.Lframe0
	.4byte	.LFB13
	.4byte	.LFE13-.LFB13
	.byte	0x4
	.4byte	.LCFI1-.LFB13
	.byte	0xe
	.uleb128 0x8
	.byte	0x8e
	.uleb128 0x1
	.byte	0x84
	.uleb128 0x2
	.align	2
.LEFDE12:
.LSFDE14:
	.4byte	.LEFDE14-.LASFDE14
.LASFDE14:
	.4byte	.Lframe0
	.4byte	.LFB14
	.4byte	.LFE14-.LFB14
	.align	2
.LEFDE14:
.LSFDE16:
	.4byte	.LEFDE16-.LASFDE16
.LASFDE16:
	.4byte	.Lframe0
	.4byte	.LFB28
	.4byte	.LFE28-.LFB28
	.byte	0x4
	.4byte	.LCFI2-.LFB28
	.byte	0xe
	.uleb128 0x4
	.byte	0x84
	.uleb128 0x1
	.align	2
.LEFDE16:
.LSFDE18:
	.4byte	.LEFDE18-.LASFDE18
.LASFDE18:
	.4byte	.Lframe0
	.4byte	.LFB9
	.4byte	.LFE9-.LFB9
	.byte	0x4
	.4byte	.LCFI3-.LFB9
	.byte	0xe
	.uleb128 0x8
	.byte	0x8e
	.uleb128 0x1
	.byte	0x84
	.uleb128 0x2
	.align	2
.LEFDE18:
.LSFDE20:
	.4byte	.LEFDE20-.LASFDE20
.LASFDE20:
	.4byte	.Lframe0
	.4byte	.LFB3
	.4byte	.LFE3-.LFB3
	.byte	0x4
	.4byte	.LCFI4-.LFB3
	.byte	0xe
	.uleb128 0x14
	.byte	0x8e
	.uleb128 0x1
	.byte	0x8a
	.uleb128 0x2
	.byte	0x86
	.uleb128 0x3
	.byte	0x85
	.uleb128 0x4
	.byte	0x84
	.uleb128 0x5
	.align	2
.LEFDE20:
.LSFDE22:
	.4byte	.LEFDE22-.LASFDE22
.LASFDE22:
	.4byte	.Lframe0
	.4byte	.LFB4
	.4byte	.LFE4-.LFB4
	.byte	0x4
	.4byte	.LCFI5-.LFB4
	.byte	0xe
	.uleb128 0x20
	.byte	0x8e
	.uleb128 0x1
	.byte	0x8a
	.uleb128 0x2
	.byte	0x89
	.uleb128 0x3
	.byte	0x88
	.uleb128 0x4
	.byte	0x87
	.uleb128 0x5
	.byte	0x86
	.uleb128 0x6
	.byte	0x85
	.uleb128 0x7
	.byte	0x84
	.uleb128 0x8
	.align	2
.LEFDE22:
.LSFDE24:
	.4byte	.LEFDE24-.LASFDE24
.LASFDE24:
	.4byte	.Lframe0
	.4byte	.LFB10
	.4byte	.LFE10-.LFB10
	.byte	0x4
	.4byte	.LCFI6-.LFB10
	.byte	0xe
	.uleb128 0x8
	.byte	0x8e
	.uleb128 0x1
	.byte	0x84
	.uleb128 0x2
	.align	2
.LEFDE24:
.LSFDE26:
	.4byte	.LEFDE26-.LASFDE26
.LASFDE26:
	.4byte	.Lframe0
	.4byte	.LFB24
	.4byte	.LFE24-.LFB24
	.byte	0x4
	.4byte	.LCFI7-.LFB24
	.byte	0xe
	.uleb128 0x18
	.byte	0x4
	.4byte	.LCFI8-.LCFI7
	.byte	0xe
	.uleb128 0x1c
	.byte	0x8e
	.uleb128 0x1
	.byte	0x88
	.uleb128 0x2
	.byte	0x87
	.uleb128 0x3
	.byte	0x86
	.uleb128 0x4
	.byte	0x85
	.uleb128 0x5
	.byte	0x84
	.uleb128 0x6
	.align	2
.LEFDE26:
.LSFDE28:
	.4byte	.LEFDE28-.LASFDE28
.LASFDE28:
	.4byte	.Lframe0
	.4byte	.LFB16
	.4byte	.LFE16-.LFB16
	.byte	0x4
	.4byte	.LCFI9-.LFB16
	.byte	0xe
	.uleb128 0xc
	.byte	0x8e
	.uleb128 0x1
	.byte	0x8a
	.uleb128 0x2
	.byte	0x84
	.uleb128 0x3
	.byte	0x4
	.4byte	.LCFI10-.LCFI9
	.byte	0xe
	.uleb128 0x10
	.align	2
.LEFDE28:
.LSFDE30:
	.4byte	.LEFDE30-.LASFDE30
.LASFDE30:
	.4byte	.Lframe0
	.4byte	.LFB18
	.4byte	.LFE18-.LFB18
	.byte	0x4
	.4byte	.LCFI11-.LFB18
	.byte	0xe
	.uleb128 0x14
	.byte	0x8e
	.uleb128 0x1
	.byte	0x8a
	.uleb128 0x2
	.byte	0x86
	.uleb128 0x3
	.byte	0x85
	.uleb128 0x4
	.byte	0x84
	.uleb128 0x5
	.byte	0x4
	.4byte	.LCFI12-.LCFI11
	.byte	0xe
	.uleb128 0x1c
	.align	2
.LEFDE30:
.LSFDE32:
	.4byte	.LEFDE32-.LASFDE32
.LASFDE32:
	.4byte	.Lframe0
	.4byte	.LFB20
	.4byte	.LFE20-.LFB20
	.byte	0x4
	.4byte	.LCFI13-.LFB20
	.byte	0xe
	.uleb128 0x1c
	.byte	0x8e
	.uleb128 0x1
	.byte	0x8a
	.uleb128 0x2
	.byte	0x88
	.uleb128 0x3
	.byte	0x87
	.uleb128 0x4
	.byte	0x86
	.uleb128 0x5
	.byte	0x85
	.uleb128 0x6
	.byte	0x84
	.uleb128 0x7
	.align	2
.LEFDE32:
.LSFDE34:
	.4byte	.LEFDE34-.LASFDE34
.LASFDE34:
	.4byte	.Lframe0
	.4byte	.LFB21
	.4byte	.LFE21-.LFB21
	.byte	0x4
	.4byte	.LCFI14-.LFB21
	.byte	0xe
	.uleb128 0x20
	.byte	0x8e
	.uleb128 0x1
	.byte	0x8a
	.uleb128 0x2
	.byte	0x89
	.uleb128 0x3
	.byte	0x88
	.uleb128 0x4
	.byte	0x87
	.uleb128 0x5
	.byte	0x86
	.uleb128 0x6
	.byte	0x85
	.uleb128 0x7
	.byte	0x84
	.uleb128 0x8
	.byte	0x4
	.4byte	.LCFI15-.LCFI14
	.byte	0xe
	.uleb128 0x24
	.align	2
.LEFDE34:
.LSFDE36:
	.4byte	.LEFDE36-.LASFDE36
.LASFDE36:
	.4byte	.Lframe0
	.4byte	.LFB22
	.4byte	.LFE22-.LFB22
	.byte	0x4
	.4byte	.LCFI16-.LFB22
	.byte	0xe
	.uleb128 0xc
	.byte	0x4
	.4byte	.LCFI17-.LCFI16
	.byte	0xe
	.uleb128 0x10
	.byte	0x8e
	.uleb128 0x1
	.byte	0x85
	.uleb128 0x2
	.byte	0x84
	.uleb128 0x3
	.align	2
.LEFDE36:
.LSFDE38:
	.4byte	.LEFDE38-.LASFDE38
.LASFDE38:
	.4byte	.Lframe0
	.4byte	.LFB23
	.4byte	.LFE23-.LFB23
	.byte	0x4
	.4byte	.LCFI18-.LFB23
	.byte	0xe
	.uleb128 0x8
	.byte	0x8e
	.uleb128 0x1
	.byte	0x84
	.uleb128 0x2
	.align	2
.LEFDE38:
.LSFDE40:
	.4byte	.LEFDE40-.LASFDE40
.LASFDE40:
	.4byte	.Lframe0
	.4byte	.LFB19
	.4byte	.LFE19-.LFB19
	.byte	0x4
	.4byte	.LCFI19-.LFB19
	.byte	0xe
	.uleb128 0xc
	.byte	0x8e
	.uleb128 0x1
	.byte	0x85
	.uleb128 0x2
	.byte	0x84
	.uleb128 0x3
	.align	2
.LEFDE40:
.LSFDE42:
	.4byte	.LEFDE42-.LASFDE42
.LASFDE42:
	.4byte	.Lframe0
	.4byte	.LFB17
	.4byte	.LFE17-.LFB17
	.byte	0x4
	.4byte	.LCFI20-.LFB17
	.byte	0xe
	.uleb128 0xc
	.byte	0x4
	.4byte	.LCFI21-.LCFI20
	.byte	0xe
	.uleb128 0x10
	.byte	0x8e
	.uleb128 0x1
	.byte	0x85
	.uleb128 0x2
	.byte	0x84
	.uleb128 0x3
	.align	2
.LEFDE42:
.LSFDE44:
	.4byte	.LEFDE44-.LASFDE44
.LASFDE44:
	.4byte	.Lframe0
	.4byte	.LFB15
	.4byte	.LFE15-.LFB15
	.byte	0x4
	.4byte	.LCFI22-.LFB15
	.byte	0xe
	.uleb128 0x4
	.byte	0x8a
	.uleb128 0x1
	.align	2
.LEFDE44:
.LSFDE46:
	.4byte	.LEFDE46-.LASFDE46
.LASFDE46:
	.4byte	.Lframe0
	.4byte	.LFB2
	.4byte	.LFE2-.LFB2
	.byte	0x4
	.4byte	.LCFI23-.LFB2
	.byte	0xe
	.uleb128 0x10
	.byte	0x8e
	.uleb128 0x1
	.byte	0x8a
	.uleb128 0x2
	.byte	0x85
	.uleb128 0x3
	.byte	0x84
	.uleb128 0x4
	.byte	0x4
	.4byte	.LCFI24-.LCFI23
	.byte	0xe
	.uleb128 0x4410
	.byte	0x4
	.4byte	.LCFI25-.LCFI24
	.byte	0xe
	.uleb128 0x44cc
	.align	2
.LEFDE46:
.LSFDE48:
	.4byte	.LEFDE48-.LASFDE48
.LASFDE48:
	.4byte	.Lframe0
	.4byte	.LFB25
	.4byte	.LFE25-.LFB25
	.byte	0x4
	.4byte	.LCFI26-.LFB25
	.byte	0xe
	.uleb128 0x1c
	.byte	0x8e
	.uleb128 0x1
	.byte	0x8a
	.uleb128 0x2
	.byte	0x88
	.uleb128 0x3
	.byte	0x87
	.uleb128 0x4
	.byte	0x86
	.uleb128 0x5
	.byte	0x85
	.uleb128 0x6
	.byte	0x84
	.uleb128 0x7
	.byte	0x4
	.4byte	.LCFI27-.LCFI26
	.byte	0xe
	.uleb128 0x40
	.align	2
.LEFDE48:
.LSFDE50:
	.4byte	.LEFDE50-.LASFDE50
.LASFDE50:
	.4byte	.Lframe0
	.4byte	.LFB26
	.4byte	.LFE26-.LFB26
	.byte	0x4
	.4byte	.LCFI28-.LFB26
	.byte	0xe
	.uleb128 0x18
	.byte	0x8e
	.uleb128 0x1
	.byte	0x8a
	.uleb128 0x2
	.byte	0x87
	.uleb128 0x3
	.byte	0x86
	.uleb128 0x4
	.byte	0x85
	.uleb128 0x5
	.byte	0x84
	.uleb128 0x6
	.byte	0x4
	.4byte	.LCFI29-.LCFI28
	.byte	0xe
	.uleb128 0x64
	.align	2
.LEFDE50:
.LSFDE52:
	.4byte	.LEFDE52-.LASFDE52
.LASFDE52:
	.4byte	.Lframe0
	.4byte	.LFB27
	.4byte	.LFE27-.LFB27
	.byte	0x4
	.4byte	.LCFI30-.LFB27
	.byte	0xe
	.uleb128 0x24
	.byte	0x8e
	.uleb128 0x1
	.byte	0x8b
	.uleb128 0x2
	.byte	0x8a
	.uleb128 0x3
	.byte	0x89
	.uleb128 0x4
	.byte	0x88
	.uleb128 0x5
	.byte	0x87
	.uleb128 0x6
	.byte	0x86
	.uleb128 0x7
	.byte	0x85
	.uleb128 0x8
	.byte	0x84
	.uleb128 0x9
	.byte	0x4
	.4byte	.LCFI31-.LCFI30
	.byte	0xe
	.uleb128 0x54
	.align	2
.LEFDE52:
.LSFDE54:
	.4byte	.LEFDE54-.LASFDE54
.LASFDE54:
	.4byte	.Lframe0
	.4byte	.LFB30
	.4byte	.LFE30-.LFB30
	.byte	0x4
	.4byte	.LCFI32-.LFB30
	.byte	0xe
	.uleb128 0x4
	.byte	0x8e
	.uleb128 0x1
	.align	2
.LEFDE54:
.LSFDE56:
	.4byte	.LEFDE56-.LASFDE56
.LASFDE56:
	.4byte	.Lframe0
	.4byte	.LFB29
	.4byte	.LFE29-.LFB29
	.byte	0x4
	.4byte	.LCFI33-.LFB29
	.byte	0xe
	.uleb128 0x18
	.byte	0x8e
	.uleb128 0x1
	.byte	0x8a
	.uleb128 0x2
	.byte	0x87
	.uleb128 0x3
	.byte	0x86
	.uleb128 0x4
	.byte	0x85
	.uleb128 0x5
	.byte	0x84
	.uleb128 0x6
	.byte	0x4
	.4byte	.LCFI34-.LCFI33
	.byte	0xe
	.uleb128 0x3c
	.align	2
.LEFDE56:
.LSFDE58:
	.4byte	.LEFDE58-.LASFDE58
.LASFDE58:
	.4byte	.Lframe0
	.4byte	.LFB31
	.4byte	.LFE31-.LFB31
	.byte	0x4
	.4byte	.LCFI35-.LFB31
	.byte	0xe
	.uleb128 0x14
	.byte	0x8e
	.uleb128 0x1
	.byte	0x8a
	.uleb128 0x2
	.byte	0x86
	.uleb128 0x3
	.byte	0x85
	.uleb128 0x4
	.byte	0x84
	.uleb128 0x5
	.byte	0x4
	.4byte	.LCFI36-.LCFI35
	.byte	0xe
	.uleb128 0x38
	.align	2
.LEFDE58:
	.file 2 "train.h"
	.file 3 "message.h"
	.file 4 "random.h"
	.file 5 "tracks/track_node.h"
	.file 6 "route.h"
	.file 7 "queue.h"
	.file 8 "public_kernel_interface.h"
	.file 9 "task_descriptor.h"
	.file 10 "buffer.h"
	.text
.Letext0: