	.file	"uart.c"
	.text
.Ltext0:
	.section	.rodata
	.align	2
	.type	TRAIN_OUTPUT_SERVER_NAME, %object
	.size	TRAIN_OUTPUT_SERVER_NAME, 7
TRAIN_OUTPUT_SERVER_NAME:
	.ascii	"TrOSvr\000"
	.align	2
	.type	TRAIN_INPUT_SERVER_NAME, %object
	.size	TRAIN_INPUT_SERVER_NAME, 7
TRAIN_INPUT_SERVER_NAME:
	.ascii	"TrISvr\000"
	.align	2
	.type	SCREEN_OUTPUT_SERVER_NAME, %object
	.size	SCREEN_OUTPUT_SERVER_NAME, 7
SCREEN_OUTPUT_SERVER_NAME:
	.ascii	"KbOSvr\000"
	.align	2
	.type	KEYBOARD_INPUT_SERVER_NAME, %object
	.size	KEYBOARD_INPUT_SERVER_NAME, 7
KEYBOARD_INPUT_SERVER_NAME:
	.ascii	"KbISvr\000"
	.section	.rodata.str1.4,"aMS",%progbits,1
	.align	2
.LC0:
	.ascii	"Framing error detected communicating with %s\000"
	.align	2
.LC1:
	.ascii	"Parity error detected communicating with %s\000"
	.align	2
.LC2:
	.ascii	"Break error detected communicating with %s\000"
	.align	2
.LC3:
	.ascii	"Overrun error detected communicating with %s\000"
	.text
	.align	2
	.global	UARTErrorCheck
	.type	UARTErrorCheck, %function
UARTErrorCheck:
.LFB2:
	.file 1 "uart.c"
	.loc 1 12 0
	@ args = 0, pretend = 0, frame = 0
	@ frame_needed = 0, uses_anonymous_args = 0
.LVL0:
	stmfd	sp!, {r4, r5, sl, lr}
.LCFI0:
	ldr	sl, .L4
	mov	r5, r1
	.loc 1 13 0
	ldr	r1, .L4+4
.LVL1:
	.loc 1 12 0
.L3:
	add	sl, pc, sl
	mov	r4, r0
	.loc 1 13 0
	eor	r0, r0, #1
.LVL2:
	add	r1, sl, r1
	mov	r2, r5
	and	r0, r0, #1
	bl	assertf(PLT)
	.loc 1 14 0
	mov	r0, r4, lsr #1
	ldr	r1, .L4+8
	eor	r0, r0, #1
	add	r1, sl, r1
	mov	r2, r5
	and	r0, r0, #1
	bl	assertf(PLT)
	.loc 1 15 0
	mov	r0, r4, lsr #2
	ldr	r1, .L4+12
	eor	r0, r0, #1
	add	r1, sl, r1
	mov	r2, r5
	and	r0, r0, #1
	bl	assertf(PLT)
	.loc 1 16 0
	mov	r4, r4, lsr #3
.LVL3:
	ldr	r1, .L4+16
	eor	r4, r4, #1
	and	r0, r4, #1
	add	r1, sl, r1
	mov	r2, r5
	.loc 1 17 0
	ldmfd	sp!, {r4, r5, sl, lr}
	.loc 1 16 0
	b	assertf(PLT)
.L5:
	.align	2
.L4:
	.word	_GLOBAL_OFFSET_TABLE_-(.L3+8)
	.word	.LC0(GOTOFF)
	.word	.LC1(GOTOFF)
	.word	.LC2(GOTOFF)
	.word	.LC3(GOTOFF)
.LFE2:
	.size	UARTErrorCheck, .-UARTErrorCheck
	.section	.rodata.str1.4
	.align	2
.LC4:
	.ascii	"Unknown Channel in set fifo.\000"
	.align	2
.LC5:
	.ascii	"The FIFO is enabled, and that is bad.\012\000"
	.text
	.align	2
	.global	Channel_SetFifo
	.type	Channel_SetFifo, %function
Channel_SetFifo:
.LFB5:
	.loc 1 54 0
	@ args = 0, pretend = 0, frame = 0
	@ frame_needed = 0, uses_anonymous_args = 0
	@ link register save eliminated.
.LVL4:
	str	sl, [sp, #-4]!
.LCFI1:
	.loc 1 56 0
	ldr	r0, [r0, #0]
.LVL5:
	.loc 1 54 0
	ldr	sl, .L22
	.loc 1 56 0
	cmp	r0, #0
	.loc 1 54 0
.L19:
	add	sl, pc, sl
	@ lr needed for prologue
	.loc 1 56 0
	beq	.L8
	cmp	r0, #1
	beq	.L21
	.loc 1 70 0
	ldr	r1, .L22+4
.LVL6:
	mov	r0, #0
	add	r1, sl, r1
	.loc 1 77 0
	ldmfd	sp!, {sl}
	.loc 1 70 0
	b	assert(PLT)
.LVL7:
.L8:
	.loc 1 59 0
	ldr	r3, .L22+8
	.loc 1 60 0
	cmp	r1, #0
	.loc 1 59 0
	ldr	r3, [r3, #0]
.LVL8:
	.loc 1 62 0
	ldr	r2, .L22+8
.LVL9:
	.loc 1 60 0
	orrne	r3, r3, #16
.LVL10:
	biceq	r3, r3, #16
.LVL11:
	.loc 1 62 0
	orr	r3, r3, #104
.LVL12:
	bic	r3, r3, #3
.LVL13:
.L13:
	.loc 1 76 0
	mov	r0, r3, lsr #4
.LVL14:
	ldr	r1, .L22+12
.LVL15:
	eor	r0, r0, #1
	and	r0, r0, #1
	add	r1, sl, r1
	.loc 1 74 0
	str	r3, [r2, #0]
	.loc 1 77 0
	ldmfd	sp!, {sl}
	.loc 1 76 0
	b	assert(PLT)
.LVL16:
.L21:
	.loc 1 66 0
	ldr	r2, .L22+16
	.loc 1 67 0
	cmp	r1, #0
	.loc 1 66 0
	ldr	r0, [r2, #0]
.LVL17:
	.loc 1 67 0
	orrne	r3, r0, #16
.LVL18:
	biceq	r3, r0, #16
	b	.L13
.L23:
	.align	2
.L22:
	.word	_GLOBAL_OFFSET_TABLE_-(.L19+8)
	.word	.LC4(GOTOFF)
	.word	-2138308600
	.word	.LC5(GOTOFF)
	.word	-2138243064
.LFE5:
	.size	Channel_SetFifo, .-Channel_SetFifo
	.section	.rodata.str1.4
	.align	2
.LC6:
	.ascii	"Unknown Channel in robsetspeed.\000"
	.align	2
.LC7:
	.ascii	"Unknown speed.\000"
	.text
	.align	2
	.global	Channel_SetSpeed
	.type	Channel_SetSpeed, %function
Channel_SetSpeed:
.LFB6:
	.loc 1 79 0
	@ args = 0, pretend = 0, frame = 0
	@ frame_needed = 0, uses_anonymous_args = 0
	@ link register save eliminated.
.LVL19:
	str	sl, [sp, #-4]!
.LCFI2:
	.loc 1 81 0
	ldr	r3, [r0, #0]
	.loc 1 79 0
	ldr	sl, .L37
	.loc 1 81 0
	cmp	r3, #0
	.loc 1 79 0
.L36:
	add	sl, pc, sl
	@ lr needed for prologue
	.loc 1 81 0
	ldreq	ip, .L37+4
.LVL20:
	ldreq	r1, .L37+8
.LVL21:
	beq	.L28
	cmp	r3, #1
	beq	.L27
	.loc 1 91 0
	ldr	r1, .L37+12
.LVL22:
	mov	r0, #0
.LVL23:
	add	r1, sl, r1
	.loc 1 109 0
	ldmfd	sp!, {sl}
	.loc 1 91 0
	b	assert(PLT)
.LVL24:
.L27:
	ldr	ip, .L37+16
	ldr	r1, .L37+20
.L28:
	.loc 1 94 0
	ldr	r2, [r0, #4]
	cmp	r2, #2400
	beq	.L30
	ldr	r3, .L37+24
	cmp	r2, r3
	.loc 1 96 0
	moveq	r3, #0
	.loc 1 97 0
	moveq	r2, #3
	.loc 1 96 0
	streq	r3, [ip, #0]
	.loc 1 97 0
	streq	r2, [r1, #0]
	.loc 1 94 0
	beq	.L32
	.loc 1 104 0
	ldr	r1, .L37+28
.LVL25:
	mov	r0, #0
.LVL26:
	add	r1, sl, r1
	.loc 1 109 0
	ldmfd	sp!, {sl}
	.loc 1 104 0
	b	assert(PLT)
.LVL27:
.LVL28:
.L30:
	.loc 1 100 0
	mov	r3, #0
	.loc 1 101 0
	mov	r2, #191
	.loc 1 100 0
	str	r3, [ip, #0]
	.loc 1 101 0
	str	r2, [r1, #0]
.L32:
	.loc 1 108 0
	mov	r1, #0
.LVL29:
	.loc 1 109 0
	ldmfd	sp!, {sl}
	.loc 1 108 0
	b	Channel_SetFifo(PLT)
.LVL30:
.L38:
	.align	2
.L37:
	.word	_GLOBAL_OFFSET_TABLE_-(.L36+8)
	.word	-2138308596
	.word	-2138308592
	.word	.LC6(GOTOFF)
	.word	-2138243060
	.word	-2138243056
	.word	115200
	.word	.LC7(GOTOFF)
.LFE6:
	.size	Channel_SetSpeed, .-Channel_SetSpeed
	.align	2
	.global	UARTBootstrapTask_Initialize
	.type	UARTBootstrapTask_Initialize, %function
UARTBootstrapTask_Initialize:
.LFB4:
	.loc 1 44 0
	@ args = 0, pretend = 0, frame = 0
	@ frame_needed = 0, uses_anonymous_args = 0
.LVL31:
	.loc 1 46 0
	ldr	r2, .L41
	.loc 1 45 0
	mov	r3, #1
	.loc 1 44 0
	stmfd	sp!, {r4, lr}
.LCFI3:
	.loc 1 45 0
	str	r3, [r0, #0]
	.loc 1 46 0
	str	r2, [r0, #4]
	.loc 1 47 0
	sub	r3, r3, #1
	.loc 1 48 0
	mov	r2, #2400
	.loc 1 47 0
	str	r3, [r0, #8]
	.loc 1 48 0
	str	r2, [r0, #12]
	.loc 1 44 0
	mov	r4, r0
	.loc 1 49 0
	bl	Channel_SetSpeed(PLT)
.LVL32:
	.loc 1 50 0
	add	r0, r4, #8
	.loc 1 51 0
	ldmfd	sp!, {r4, lr}
	.loc 1 50 0
	b	Channel_SetSpeed(PLT)
.L42:
	.align	2
.L41:
	.word	115200
.LFE4:
	.size	UARTBootstrapTask_Initialize, .-UARTBootstrapTask_Initialize
	.section	.rodata
	.align	2
	.type	__func__.2032, %object
	.size	__func__.2032, 24
__func__.2032:
	.ascii	"UARTBootstrapTask_Start\000"
	.section	.rodata.str1.4
	.align	2
.LC8:
	.ascii	"KeyboardInputServer create failed\000"
	.align	2
.LC9:
	.ascii	"ScreenOutputServer create failed\000"
	.align	2
.LC10:
	.ascii	"TrainInputServer create failed\000"
	.align	2
.LC11:
	.ascii	"TrainOutputServer create failed\000"
	.align	2
.LC12:
	.ascii	"TrainIONotifier_Start create failed\000"
	.text
	.align	2
	.global	UARTBootstrapTask_Start
	.type	UARTBootstrapTask_Start, %function
UARTBootstrapTask_Start:
.LFB3:
	.loc 1 19 0
	@ args = 0, pretend = 0, frame = 16
	@ frame_needed = 0, uses_anonymous_args = 0
.LVL33:
	stmfd	sp!, {sl, lr}
.LCFI4:
	ldr	sl, .L46
	.loc 1 20 0
	ldr	r2, .L46+4
	ldr	r3, .L46+8
	.loc 1 19 0
.L45:
	add	sl, pc, sl
	sub	sp, sp, #16
.LCFI5:
.LVL34:
	.loc 1 20 0
	ldr	r1, [sl, r2]
	ldr	r0, [sl, r3]
	bl	DebugRegisterFunction(PLT)
	.loc 1 22 0
	mov	r0, sp
	bl	UARTBootstrapTask_Initialize(PLT)
	.loc 1 26 0
	ldr	r3, .L46+12
	mov	r0, #9
	ldr	r1, [sl, r3]
	bl	Create(PLT)
	.loc 1 27 0
	ldr	r1, .L46+16
	add	r1, sl, r1
	bl	assert(PLT)
	.loc 1 29 0
	ldr	r3, .L46+20
	mov	r0, #7
	ldr	r1, [sl, r3]
	bl	Create(PLT)
	.loc 1 30 0
	ldr	r1, .L46+24
	add	r1, sl, r1
	bl	assert(PLT)
	.loc 1 32 0
	ldr	r3, .L46+28
	mov	r0, #4
	ldr	r1, [sl, r3]
	bl	Create(PLT)
	.loc 1 33 0
	ldr	r1, .L46+32
	add	r1, sl, r1
	bl	assert(PLT)
	.loc 1 35 0
	ldr	r3, .L46+36
	mov	r0, #5
	ldr	r1, [sl, r3]
	bl	Create(PLT)
	.loc 1 36 0
	ldr	r1, .L46+40
	add	r1, sl, r1
	bl	assert(PLT)
	.loc 1 38 0
	ldr	r3, .L46+44
	mov	r0, #4
	ldr	r1, [sl, r3]
	bl	Create(PLT)
	.loc 1 39 0
	ldr	r1, .L46+48
	add	r1, sl, r1
	bl	assert(PLT)
	.loc 1 41 0
	bl	Exit(PLT)
	.loc 1 42 0
	add	sp, sp, #16
	ldmfd	sp!, {sl, pc}
.L47:
	.align	2
.L46:
	.word	_GLOBAL_OFFSET_TABLE_-(.L45+8)
	.word	__func__.2032(GOT)
	.word	UARTBootstrapTask_Start(GOT)
	.word	KeyboardInputServer_Start(GOT)
	.word	.LC8(GOTOFF)
	.word	ScreenOutputServer_Start(GOT)
	.word	.LC9(GOTOFF)
	.word	TrainInputServer_Start(GOT)
	.word	.LC10(GOTOFF)
	.word	TrainOutputServer_Start(GOT)
	.word	.LC11(GOTOFF)
	.word	TrainIONotifier_Start(GOT)
	.word	.LC12(GOTOFF)
.LFE3:
	.size	UARTBootstrapTask_Start, .-UARTBootstrapTask_Start
	.section	.rodata
	.align	2
	.type	__func__.2116, %object
	.size	__func__.2116, 31
__func__.2116:
	.ascii	"KeyboardInputServer_Initialize\000"
	.section	.rodata.str1.4
	.align	2
.LC13:
	.ascii	"KeyboardInputServer_Start failed to register\000"
	.align	2
.LC14:
	.ascii	"KeyboardInputServer_Start notifier did not start\000"
	.text
	.align	2
	.global	KeyboardInputServer_Initialize
	.type	KeyboardInputServer_Initialize, %function
KeyboardInputServer_Initialize:
.LFB8:
	.loc 1 162 0
	@ args = 0, pretend = 0, frame = 0
	@ frame_needed = 0, uses_anonymous_args = 0
.LVL35:
	stmfd	sp!, {r4, sl, lr}
.LCFI6:
	ldr	sl, .L51
	.loc 1 163 0
	ldr	r2, .L51+4
	ldr	r3, .L51+8
	.loc 1 162 0
.L50:
	add	sl, pc, sl
	mov	r4, r0
	.loc 1 163 0
	ldr	r1, [sl, r3]
	ldr	r0, [sl, r2]
.LVL36:
	bl	DebugRegisterFunction(PLT)
	.loc 1 164 0
	ldr	r3, .L51+12
	ldr	r0, [sl, r3]
	bl	RegisterAs(PLT)
	.loc 1 165 0
	ldr	r1, .L51+16
	rsbs	r0, r0, #1
	movcc	r0, #0
	add	r1, sl, r1
	bl	assert(PLT)
	.loc 1 167 0
	ldr	r3, .L51+20
	mov	r0, #8
	ldr	r1, [sl, r3]
	bl	Create(PLT)
	.loc 1 168 0
	ldr	r1, .L51+24
	add	r1, sl, r1
	bl	assert(PLT)
	.loc 1 172 0
	add	r2, r4, #16
	.loc 1 170 0
	mov	r3, #1
	.loc 1 174 0
	add	r0, r4, #48
	.loc 1 170 0
	str	r3, [r4, #36]
	.loc 1 172 0
	str	r2, [r4, #44]
	.loc 1 171 0
	str	r4, [r4, #40]
	.loc 1 174 0
	bl	CharBuffer_Initialize(PLT)
	.loc 1 175 0
	ldr	r1, .L51+28
	add	r0, r4, #160
	.loc 1 176 0
	ldmfd	sp!, {r4, sl, lr}
	.loc 1 175 0
	b	Queue_Initialize(PLT)
.L52:
	.align	2
.L51:
	.word	_GLOBAL_OFFSET_TABLE_-(.L50+8)
	.word	KeyboardInputServer_Initialize(GOT)
	.word	__func__.2116(GOT)
	.word	KEYBOARD_INPUT_SERVER_NAME(GOT)
	.word	.LC13(GOTOFF)
	.word	KeyboardInputNotifier_Start(GOT)
	.word	.LC14(GOTOFF)
	.word	1570
.LFE8:
	.size	KeyboardInputServer_Initialize, .-KeyboardInputServer_Initialize
	.align	2
	.global	KeyboardInputServer_UnblockQueued
	.type	KeyboardInputServer_UnblockQueued, %function
KeyboardInputServer_UnblockQueued:
.LFB10:
	.loc 1 193 0
	@ args = 0, pretend = 0, frame = 0
	@ frame_needed = 0, uses_anonymous_args = 0
.LVL37:
	stmfd	sp!, {r4, r5, lr}
.LCFI7:
	.loc 1 193 0
	mov	r4, r0
	add	r5, r0, #160
	b	.L54
.LVL38:
.L55:
.LBB2:
	.loc 1 196 0
	bl	Queue_PopStart(PLT)
	.loc 1 197 0
	ldr	r3, [r4, #44]
	.loc 1 198 0
	mvn	r2, #0
	.loc 1 197 0
	mov	r1, #10
	.loc 1 198 0
	strb	r2, [r3, #4]
	.loc 1 197 0
	str	r1, [r3, #0]
	.loc 1 200 0
	add	r2, r2, #17
	add	r1, r4, #16
	bl	Reply(PLT)
.LVL39:
.L54:
.LBE2:
	.loc 1 194 0
	mov	r0, r5
	bl	Queue_CurrentCount(PLT)
	cmp	r0, #0
.LBB3:
	.loc 1 196 0
	mov	r0, r5
.LBE3:
	.loc 1 194 0
	bne	.L55
	.loc 1 202 0
	ldmfd	sp!, {r4, r5, pc}
.LFE10:
	.size	KeyboardInputServer_UnblockQueued, .-KeyboardInputServer_UnblockQueued
	.align	2
	.global	KeyboardInputServer_ReplyQueued
	.type	KeyboardInputServer_ReplyQueued, %function
KeyboardInputServer_ReplyQueued:
.LFB9:
	.loc 1 178 0
	@ args = 0, pretend = 0, frame = 0
	@ frame_needed = 0, uses_anonymous_args = 0
.LVL40:
	stmfd	sp!, {r4, r5, r6, r7, lr}
.LCFI8:
	add	r7, r0, #48
	add	r6, r0, #160
	.loc 1 178 0
	mov	r5, r0
.LBB4:
	.loc 1 180 0
	mov	r0, r7
.LVL41:
	bl	CharBuffer_IsEmpty(PLT)
	movs	r0, r0, asl #16
	mov	r0, r6
	ldmnefd	sp!, {r4, r5, r6, r7, pc}
.L65:
	bl	Queue_CurrentCount(PLT)
	cmp	r0, #0
	.loc 1 184 0
	mov	r0, r7
	.loc 1 180 0
	ldmeqfd	sp!, {r4, r5, r6, r7, pc}
	.loc 1 184 0
	bl	CharBuffer_GetChar(PLT)
	mov	r4, r0
	.loc 1 185 0
	mov	r0, r6
	bl	Queue_PopStart(PLT)
	.loc 1 186 0
	ldr	r2, [r5, #44]
	mov	r3, #10
	str	r3, [r2, #0]
	.loc 1 187 0
	strb	r4, [r2, #4]
	.loc 1 189 0
	add	r1, r5, #16
	mov	r2, #16
	bl	Reply(PLT)
	.loc 1 180 0
	mov	r0, r7
	bl	CharBuffer_IsEmpty(PLT)
	movs	r0, r0, asl #16
	mov	r0, r6
	beq	.L65
	ldmfd	sp!, {r4, r5, r6, r7, pc}
.LBE4:
.LFE9:
	.size	KeyboardInputServer_ReplyQueued, .-KeyboardInputServer_ReplyQueued
	.section	.rodata
	.align	2
	.type	__func__.2085, %object
	.size	__func__.2085, 26
__func__.2085:
	.ascii	"KeyboardInputServer_Start\000"
	.section	.rodata.str1.4
	.align	2
.LC15:
	.ascii	"terminal\000"
	.align	2
.LC16:
	.ascii	"KeyboardInputServer unknown event type\000"
	.text
	.align	2
	.global	KeyboardInputServer_Start
	.type	KeyboardInputServer_Start, %function
KeyboardInputServer_Start:
.LFB7:
	.loc 1 111 0
	@ args = 0, pretend = 0, frame = 6456
	@ frame_needed = 0, uses_anonymous_args = 0
.LVL42:
	stmfd	sp!, {r4, r5, sl, lr}
.LCFI9:
	ldr	sl, .L83
	.loc 1 112 0
	ldr	r3, .L83+4
	ldr	r2, .L83+8
	.loc 1 111 0
	sub	sp, sp, #6400
.LCFI10:
.LVL43:
.L79:
	add	sl, pc, sl
	sub	sp, sp, #56
.LCFI11:
.LVL44:
	.loc 1 112 0
	ldr	r0, [sl, r3]
	ldr	r1, [sl, r2]
	.loc 1 114 0
	add	r4, sp, #56
	.loc 1 112 0
	bl	DebugRegisterFunction(PLT)
	.loc 1 114 0
	sub	r4, r4, #56
	mov	r0, sp
	bl	KeyboardInputServer_Initialize(PLT)
	.loc 1 120 0
	ldr	r3, [r4, #36]
	.loc 1 118 0
	mov	r2, #0
	.loc 1 120 0
	cmp	r3, #0
	.loc 1 118 0
	ldr	r3, .L83+12
	str	r2, [r3, #0]
	.loc 1 120 0
	bne	.L77
.LVL45:
.L67:
	.loc 1 159 0
	bl	Exit(PLT)
	.loc 1 160 0
	add	sp, sp, #312
	add	sp, sp, #6144
	ldmfd	sp!, {r4, r5, sl, pc}
.L81:
	.loc 1 124 0
	cmp	r3, #24
	.loc 1 149 0
	add	r0, r4, #160
	.loc 1 124 0
	beq	.L72
	cmp	r3, #12
	.loc 1 128 0
	add	r1, r4, #16
	add	r2, r2, #6
	.loc 1 152 0
	mov	r0, #0
	.loc 1 124 0
	beq	.L80
	.loc 1 152 0
	ldr	r1, .L83+16
	add	r1, sl, r1
	bl	assert(PLT)
.L73:
	.loc 1 156 0
	mov	r0, r4
	bl	KeyboardInputServer_ReplyQueued(PLT)
	.loc 1 120 0
	ldr	r3, [r4, #36]
	cmp	r3, #0
	beq	.L67
.L77:
	.loc 1 121 0
	mov	r2, #16
	mov	r1, r4
	add	r0, r4, #32
	bl	Receive(PLT)
	.loc 1 122 0
	ldr	r3, [r4, #44]
	.loc 1 124 0
	ldr	r1, [r4, #40]
	.loc 1 122 0
	mov	r2, #10
	str	r2, [r3, #0]
	.loc 1 124 0
	ldr	r3, [r1, #0]
	cmp	r3, #15
	bne	.L81
	.loc 1 136 0
	ldr	r3, .L83+20
	ldr	r2, [r3, #0]
	and	r5, r2, #255
	.loc 1 137 0
	cmp	r5, #122
	beq	.L82
.L74:
	.loc 1 142 0
	ldr	r3, .L83+12
	ldr	r1, .L83+24
	ldr	r0, [r3, #0]
	add	r1, sl, r1
	bl	UARTErrorCheck(PLT)
	.loc 1 144 0
	mov	r1, r5
	add	r0, r4, #48
	bl	CharBuffer_PutChar(PLT)
	.loc 1 145 0
	ldr	r0, [r4, #32]
	add	r1, r4, #16
	mov	r2, #16
	bl	Reply(PLT)
	b	.L73
.L72:
	.loc 1 149 0
	ldr	r1, [r4, #32]
	bl	Queue_PushEnd(PLT)
	b	.L73
.L80:
	.loc 1 127 0
	sub	r3, r3, #12
	.loc 1 128 0
	ldr	r0, [r4, #32]
	.loc 1 127 0
	str	r3, [r4, #36]
	.loc 1 128 0
	bl	Reply(PLT)
	.loc 1 131 0
	mov	r0, r4
	bl	KeyboardInputServer_UnblockQueued(PLT)
	b	.L73
.L82:
.LBB5:
	.loc 1 138 0
	ldr	r3, .L83+28
	ldr	r0, [r3, #0]
.LVL46:
	.loc 1 139 0
	add	r0, r0, #20992
.LVL47:
	add	r0, r0, #156
	bl	Scheduler_PrintTDCounts(PLT)
	b	.L74
.L84:
	.align	2
.L83:
	.word	_GLOBAL_OFFSET_TABLE_-(.L79+8)
	.word	KeyboardInputServer_Start(GOT)
	.word	__func__.2085(GOT)
	.word	-2138243068
	.word	.LC16(GOTOFF)
	.word	-2138243072
	.word	.LC15(GOTOFF)
	.word	33403036
.LBE5:
.LFE7:
	.size	KeyboardInputServer_Start, .-KeyboardInputServer_Start
	.section	.rodata.str1.4
	.align	2
.LC17:
	.ascii	"ScreenOutputServer_Start failed to register\000"
	.align	2
.LC18:
	.ascii	"ScreenOutputServer_Start notifier did not start\000"
	.text
	.align	2
	.global	ScreenOutputServer_Initialize
	.type	ScreenOutputServer_Initialize, %function
ScreenOutputServer_Initialize:
.LFB12:
	.loc 1 249 0
	@ args = 0, pretend = 0, frame = 0
	@ frame_needed = 0, uses_anonymous_args = 0
.LVL48:
	stmfd	sp!, {r4, sl, lr}
.LCFI12:
	ldr	sl, .L88
	mov	r4, r0
.L87:
	add	sl, pc, sl
	.loc 1 250 0
	bl	CharBuffer_Initialize(PLT)
.LVL49:
	.loc 1 251 0
	mov	r3, #2
	str	r3, [r4, #152]
	.loc 1 256 0
	ldr	r3, .L88+4
	.loc 1 252 0
	add	r1, r4, #116
	.loc 1 253 0
	add	r2, r4, #132
	str	r2, [r4, #160]
	.loc 1 256 0
	ldr	r0, [sl, r3]
	.loc 1 254 0
	str	r1, [r4, #164]
	.loc 1 252 0
	str	r1, [r4, #156]
	.loc 1 256 0
	bl	RegisterAs(PLT)
	.loc 1 257 0
	ldr	r1, .L88+8
	rsbs	r0, r0, #1
	movcc	r0, #0
	add	r1, sl, r1
	bl	assert(PLT)
	.loc 1 259 0
	ldr	r3, .L88+12
	mov	r0, #7
	ldr	r1, [sl, r3]
	bl	Create(PLT)
	.loc 1 260 0
	ldr	r1, .L88+16
	.loc 1 259 0
	str	r0, [r4, #168]
	.loc 1 260 0
	add	r1, sl, r1
	.loc 1 261 0
	ldmfd	sp!, {r4, sl, lr}
	.loc 1 260 0
	b	assert(PLT)
.L89:
	.align	2
.L88:
	.word	_GLOBAL_OFFSET_TABLE_-(.L87+8)
	.word	SCREEN_OUTPUT_SERVER_NAME(GOT)
	.word	.LC17(GOTOFF)
	.word	ScreenOutputNotifier_Start(GOT)
	.word	.LC18(GOTOFF)
.LFE12:
	.size	ScreenOutputServer_Initialize, .-ScreenOutputServer_Initialize
	.align	2
	.global	ScreenOutputServer_SendData
	.type	ScreenOutputServer_SendData, %function
ScreenOutputServer_SendData:
.LFB13:
	.loc 1 263 0
	@ args = 0, pretend = 0, frame = 0
	@ frame_needed = 0, uses_anonymous_args = 0
.LVL50:
	stmfd	sp!, {r4, r5, lr}
.LCFI13:
	.loc 1 264 0
	ldr	r3, [r0, #152]
	.loc 1 263 0
	mov	r4, r0
	.loc 1 264 0
	cmp	r3, #2
	ldmnefd	sp!, {r4, r5, pc}
.LVL51:
	.loc 1 268 0
	bl	CharBuffer_IsEmpty(PLT)
	mov	r3, r0, asl #16
	movs	r5, r3, lsr #16
.LBB6:
	.loc 1 269 0
	mov	r0, r4
.LBE6:
	.loc 1 268 0
	ldmnefd	sp!, {r4, r5, pc}
.LBB7:
	.loc 1 269 0
	bl	CharBuffer_GetChar(PLT)
	.loc 1 271 0
	ldr	r3, .L96
	.loc 1 277 0
	add	r1, r4, #132
	.loc 1 271 0
	str	r0, [r3, #0]
	.loc 1 275 0
	ldr	r0, [r4, #172]
	.loc 1 272 0
	mov	r3, #1
	.loc 1 275 0
	cmp	r0, #0
	.loc 1 277 0
	mov	r2, #16
	.loc 1 272 0
	str	r3, [r4, #152]
	.loc 1 275 0
	ldmeqfd	sp!, {r4, r5, pc}
	.loc 1 277 0
	ldr	r0, [r4, #168]
	.loc 1 276 0
	str	r5, [r4, #172]
.LBE7:
	.loc 1 280 0
	ldmfd	sp!, {r4, r5, lr}
.LBB8:
	.loc 1 277 0
	b	Reply(PLT)
.L97:
	.align	2
.L96:
	.word	-2138243072
.LBE8:
.LFE13:
	.size	ScreenOutputServer_SendData, .-ScreenOutputServer_SendData
	.section	.rodata
	.align	2
	.type	__func__.2161, %object
	.size	__func__.2161, 25
__func__.2161:
	.ascii	"ScreenOutputServer_Start\000"
	.text
	.align	2
	.global	ScreenOutputServer_Start
	.type	ScreenOutputServer_Start, %function
ScreenOutputServer_Start:
.LFB11:
	.loc 1 204 0
	@ args = 0, pretend = 0, frame = 176
	@ frame_needed = 0, uses_anonymous_args = 0
.LVL52:
	stmfd	sp!, {r4, r5, r6, sl, lr}
.LCFI14:
	ldr	sl, .L121
	.loc 1 205 0
	ldr	r3, .L121+4
	ldr	r2, .L121+8
	.loc 1 204 0
.L116:
	add	sl, pc, sl
	sub	sp, sp, #176
.LCFI15:
.LVL53:
	.loc 1 205 0
	ldr	r0, [sl, r3]
	ldr	r1, [sl, r2]
	bl	DebugRegisterFunction(PLT)
	.loc 1 208 0
	mov	r0, sp
	bl	ScreenOutputServer_Initialize(PLT)
	.loc 1 210 0
	ldr	r3, [sp, #160]
	mov	r1, #10
	.loc 1 211 0
	mov	r2, #0
	.loc 1 208 0
	mov	r5, sp
	add	r6, sp, #132
	.loc 1 210 0
	str	r1, [r3, #0]
	.loc 1 211 0
	str	r2, [sp, #172]
.LVL54:
.L117:
	.loc 1 213 0
	ldr	r3, [sp, #152]
	cmp	r3, #0
	beq	.L118
.L100:
	.loc 1 214 0
	add	r0, sp, #148
	add	r1, sp, #116
	mov	r2, #16
	bl	Receive(PLT)
	.loc 1 216 0
	ldr	r3, [sp, #156]
	ldr	r4, [r3, #0]
.LVL55:
	cmp	r4, #15
	beq	.L103
	cmp	r4, #24
	beq	.L104
	cmp	r4, #12
	beq	.L119
	.loc 1 242 0
	ldr	r1, .L121+12
	mov	r0, #0
	add	r1, sl, r1
	bl	assert(PLT)
	.loc 1 213 0
	ldr	r3, [sp, #152]
	cmp	r3, #0
	bne	.L100
.LVL56:
.L118:
	.loc 1 246 0
	bl	Exit(PLT)
	.loc 1 247 0
	add	sp, sp, #176
	ldmfd	sp!, {r4, r5, r6, sl, pc}
.LVL57:
.L103:
	.loc 1 229 0
	mov	r3, #2
	.loc 1 230 0
	mov	r2, #1
	.loc 1 231 0
	mov	r0, sp
	.loc 1 229 0
	str	r3, [sp, #152]
	.loc 1 230 0
	str	r2, [sp, #172]
	.loc 1 231 0
	bl	ScreenOutputServer_SendData(PLT)
	b	.L117
.L104:
	.loc 1 235 0
	ldr	r2, [sp, #164]
	ldr	r3, [r2, #12]
	cmp	r3, #0
	bne	.L120
.LVL58:
.L107:
	.loc 1 238 0
	ldr	r0, [sp, #148]
	add	r1, sp, #132
	mov	r2, #16
	bl	Reply(PLT)
	.loc 1 239 0
	mov	r0, sp
	bl	ScreenOutputServer_SendData(PLT)
	b	.L117
.LVL59:
.L119:
	.loc 1 220 0
	mov	r1, r6
	.loc 1 219 0
	mov	r3, #0
	.loc 1 220 0
	ldr	r0, [sp, #148]
	mov	r2, #16
	.loc 1 219 0
	str	r3, [sp, #152]
	.loc 1 220 0
	bl	Reply(PLT)
	.loc 1 223 0
	ldr	r3, [sp, #160]
	.loc 1 224 0
	ldr	r0, [sp, #168]
	.loc 1 223 0
	str	r4, [r3, #0]
	.loc 1 224 0
	mov	r1, r6
	mov	r2, #16
	bl	Reply(PLT)
	b	.L117
.L120:
	.loc 1 232 0
	mov	r4, #0
.LVL60:
.L106:
	.loc 1 236 0
	add	r3, r4, r2
	ldrb	r1, [r3, #4]	@ zero_extendqisi2
	mov	r0, sp
	bl	CharBuffer_PutChar(PLT)
	.loc 1 235 0
	ldr	r2, [sp, #164]
	add	r4, r4, #1
	ldr	r3, [r2, #12]
	cmp	r3, r4
	bhi	.L106
	b	.L107
.L122:
	.align	2
.L121:
	.word	_GLOBAL_OFFSET_TABLE_-(.L116+8)
	.word	ScreenOutputServer_Start(GOT)
	.word	__func__.2161(GOT)
	.word	.LC16(GOTOFF)
.LFE11:
	.size	ScreenOutputServer_Start, .-ScreenOutputServer_Start
	.section	.rodata.str1.4
	.align	2
.LC19:
	.ascii	"TrainInputServer_Start failed to register\000"
	.align	2
.LC20:
	.ascii	"TrainInputServer_Start notifier did not start\000"
	.text
	.align	2
	.global	TrainInputServer_Initialize
	.type	TrainInputServer_Initialize, %function
TrainInputServer_Initialize:
.LFB15:
	.loc 1 346 0
	@ args = 0, pretend = 0, frame = 0
	@ frame_needed = 0, uses_anonymous_args = 0
.LVL61:
	stmfd	sp!, {r4, sl, lr}
.LCFI16:
	ldr	sl, .L126
	.loc 1 347 0
	ldr	r3, .L126+4
	.loc 1 346 0
.L125:
	add	sl, pc, sl
	mov	r4, r0
	.loc 1 347 0
	ldr	r0, [sl, r3]
.LVL62:
	bl	RegisterAs(PLT)
	.loc 1 348 0
	ldr	r1, .L126+8
	rsbs	r0, r0, #1
	movcc	r0, #0
	add	r1, sl, r1
	bl	assert(PLT)
	.loc 1 350 0
	ldr	r3, .L126+12
	mov	r0, #4
	ldr	r1, [sl, r3]
	bl	Create(PLT)
	.loc 1 351 0
	ldr	r1, .L126+16
	add	r1, sl, r1
	bl	assert(PLT)
	.loc 1 355 0
	add	r2, r4, #16
	.loc 1 353 0
	mov	r3, #1
	.loc 1 357 0
	add	r0, r4, #48
	.loc 1 353 0
	str	r3, [r4, #36]
	.loc 1 355 0
	str	r2, [r4, #44]
	.loc 1 354 0
	str	r4, [r4, #40]
	.loc 1 357 0
	bl	CharBuffer_Initialize(PLT)
	.loc 1 358 0
	ldr	r1, .L126+20
	add	r0, r4, #160
	.loc 1 359 0
	ldmfd	sp!, {r4, sl, lr}
	.loc 1 358 0
	b	Queue_Initialize(PLT)
.L127:
	.align	2
.L126:
	.word	_GLOBAL_OFFSET_TABLE_-(.L125+8)
	.word	TRAIN_INPUT_SERVER_NAME(GOT)
	.word	.LC19(GOTOFF)
	.word	TrainInputNotifier_Start(GOT)
	.word	.LC20(GOTOFF)
	.word	1570
.LFE15:
	.size	TrainInputServer_Initialize, .-TrainInputServer_Initialize
	.align	2
	.global	TrainInputServer_UnblockQueued
	.type	TrainInputServer_UnblockQueued, %function
TrainInputServer_UnblockQueued:
.LFB17:
	.loc 1 378 0
	@ args = 0, pretend = 0, frame = 0
	@ frame_needed = 0, uses_anonymous_args = 0
.LVL63:
	stmfd	sp!, {r4, r5, lr}
.LCFI17:
	.loc 1 378 0
	mov	r4, r0
	add	r5, r0, #160
	b	.L129
.LVL64:
.L130:
.LBB9:
	.loc 1 381 0
	bl	Queue_PopStart(PLT)
	.loc 1 382 0
	ldr	r3, [r4, #44]
	.loc 1 383 0
	mvn	r2, #0
	.loc 1 382 0
	mov	r1, #10
	.loc 1 383 0
	strb	r2, [r3, #4]
	.loc 1 382 0
	str	r1, [r3, #0]
	.loc 1 385 0
	add	r2, r2, #17
	add	r1, r4, #16
	bl	Reply(PLT)
.LVL65:
.L129:
.LBE9:
	.loc 1 379 0
	mov	r0, r5
	bl	Queue_CurrentCount(PLT)
	cmp	r0, #0
.LBB10:
	.loc 1 381 0
	mov	r0, r5
.LBE10:
	.loc 1 379 0
	bne	.L130
	.loc 1 387 0
	ldmfd	sp!, {r4, r5, pc}
.LFE17:
	.size	TrainInputServer_UnblockQueued, .-TrainInputServer_UnblockQueued
	.align	2
	.global	TrainInputServer_ReplyQueued
	.type	TrainInputServer_ReplyQueued, %function
TrainInputServer_ReplyQueued:
.LFB16:
	.loc 1 361 0
	@ args = 0, pretend = 0, frame = 0
	@ frame_needed = 0, uses_anonymous_args = 0
.LVL66:
	stmfd	sp!, {r4, r5, r6, r7, r8, lr}
.LCFI18:
	add	r8, r0, #48
	add	r7, r0, #160
	.loc 1 361 0
	mov	r5, r0
.LBB11:
	.loc 1 363 0
	mov	r0, r8
.LVL67:
	bl	CharBuffer_IsEmpty(PLT)
	mov	r3, r0, asl #16
	movs	r6, r3, lsr #16
	mov	r0, r7
	ldmnefd	sp!, {r4, r5, r6, r7, r8, pc}
.L140:
	bl	Queue_CurrentCount(PLT)
	cmp	r0, #0
	.loc 1 367 0
	mov	r0, r8
	.loc 1 363 0
	ldmeqfd	sp!, {r4, r5, r6, r7, r8, pc}
	.loc 1 367 0
	bl	CharBuffer_GetChar(PLT)
	mov	r4, r0
	.loc 1 368 0
	mov	r0, r7
	bl	Queue_PopStart(PLT)
	.loc 1 369 0
	ldr	r2, [r5, #44]
	mov	r3, #10
	str	r3, [r2, #0]
	.loc 1 370 0
	strb	r4, [r2, #4]
	.loc 1 372 0
	add	r1, r5, #16
	mov	r2, #16
	bl	Reply(PLT)
	.loc 1 374 0
	ldr	r3, .L141
	.loc 1 363 0
	mov	r0, r8
	.loc 1 374 0
	str	r6, [r5, r3]
	.loc 1 363 0
	bl	CharBuffer_IsEmpty(PLT)
	mov	r3, r0, asl #16
	movs	r6, r3, lsr #16
	mov	r0, r7
	beq	.L140
	ldmfd	sp!, {r4, r5, r6, r7, r8, pc}
.L142:
	.align	2
.L141:
	.word	6456
.LBE11:
.LFE16:
	.size	TrainInputServer_ReplyQueued, .-TrainInputServer_ReplyQueued
	.section	.rodata
	.align	2
	.type	__func__.2217, %object
	.size	__func__.2217, 23
__func__.2217:
	.ascii	"TrainInputServer_Start\000"
	.section	.rodata.str1.4
	.align	2
.LC21:
	.ascii	"TrainOutputServer: TXBusy!\000"
	.align	2
.LC22:
	.ascii	"TrainOutputServer: RXFE on read!\000"
	.align	2
.LC23:
	.ascii	"trains\000"
	.align	2
.LC24:
	.ascii	"Timeout receiving data from train.\000"
	.align	2
.LC25:
	.ascii	"TrainInputServer unknown event type\000"
	.text
	.align	2
	.global	TrainInputServer_Start
	.type	TrainInputServer_Start, %function
TrainInputServer_Start:
.LFB14:
	.loc 1 282 0
	@ args = 0, pretend = 0, frame = 6464
	@ frame_needed = 0, uses_anonymous_args = 0
.LVL68:
	stmfd	sp!, {r4, r5, r6, sl, lr}
.LCFI19:
	ldr	sl, .L160
	.loc 1 283 0
	ldr	r3, .L160+4
	ldr	r2, .L160+8
	.loc 1 282 0
.L158:
	add	sl, pc, sl
	sub	sp, sp, #6464
.LCFI20:
.LVL69:
	.loc 1 283 0
	ldr	r0, [sl, r3]
	ldr	r1, [sl, r2]
	bl	DebugRegisterFunction(PLT)
	.loc 1 285 0
	mov	r0, sp
	bl	TrainInputServer_Initialize(PLT)
	.loc 1 297 0
	ldr	r3, [sp, #36]
	.loc 1 292 0
	add	r1, sp, #4096
	.loc 1 297 0
	cmp	r3, #0
	.loc 1 292 0
	mov	r3, #6
	str	r3, [r1, #2364]
	.loc 1 295 0
	ldr	r3, .L160+12
	.loc 1 287 0
	mov	r2, #0
	str	r2, [r1, #2360]
	.loc 1 285 0
	mov	r5, sp
	.loc 1 295 0
	str	r2, [r3, #0]
	.loc 1 297 0
	bne	.L159
.L144:
	.loc 1 343 0
	bl	Exit(PLT)
	.loc 1 344 0
	add	sp, sp, #6464
	ldmfd	sp!, {r4, r5, r6, sl, pc}
.L159:
	ldr	r6, .L160+16
.L145:
	.loc 1 298 0
	mov	r2, #16
	mov	r1, sp
	add	r0, r5, #32
	bl	Receive(PLT)
	.loc 1 299 0
	ldr	r1, [r5, #44]
	.loc 1 301 0
	ldr	r0, [r5, #40]
	.loc 1 299 0
	mov	r2, #10
	str	r2, [r1, #0]
	.loc 1 301 0
	ldr	r3, [r0, #0]
	sub	r3, r3, #12
	cmp	r3, #12
	addls	pc, pc, r3, asl #2
	b	.L146
	.p2align 2
.L151:
	b	.L147
	b	.L146
	b	.L146
	b	.L148
	b	.L146
	b	.L146
	b	.L146
	b	.L146
	b	.L146
	b	.L146
	b	.L149
	b	.L146
	b	.L150
.L147:
	.loc 1 304 0
	mov	r3, #0
	.loc 1 305 0
	ldr	r0, [r5, #32]
	add	r1, r5, #16
	mov	r2, #16
	.loc 1 304 0
	str	r3, [r5, #36]
	.loc 1 305 0
	bl	Reply(PLT)
	.loc 1 308 0
	mov	r0, sp
	bl	TrainInputServer_UnblockQueued(PLT)
.L152:
	.loc 1 340 0
	mov	r0, sp
	bl	TrainInputServer_ReplyQueued(PLT)
	.loc 1 297 0
	ldr	r3, [r5, #36]
	cmp	r3, #0
	bne	.L145
	b	.L144
.L148:
	.loc 1 313 0
	add	r3, sp, #4096
	mov	r2, #0
	str	r2, [r3, #2360]
	.loc 1 315 0
	ldr	r0, [r6, #0]
	ldr	r1, .L160+20
	mov	r0, r0, lsr #3
	eor	r0, r0, #1
	add	r1, sl, r1
	and	r0, r0, #1
	bl	assert(PLT)
	.loc 1 316 0
	ldr	r0, [r6, #0]
	ldr	r1, .L160+24
	mov	r0, r0, lsr #4
	eor	r0, r0, #1
	add	r1, sl, r1
	and	r0, r0, #1
	bl	assert(PLT)
	.loc 1 317 0
	ldr	r3, .L160+28
	.loc 1 319 0
	ldr	r2, .L160+12
	.loc 1 317 0
	ldr	r4, [r3, #0]
	.loc 1 319 0
	ldr	r1, .L160+32
	ldr	r0, [r2, #0]
	add	r1, sl, r1
	.loc 1 321 0
	and	r4, r4, #255
	.loc 1 319 0
	bl	UARTErrorCheck(PLT)
	.loc 1 321 0
	mov	r1, r4
	add	r0, r5, #48
	bl	CharBuffer_PutChar(PLT)
	.loc 1 322 0
	ldr	r0, [r5, #32]
	add	r1, r5, #16
	mov	r2, #16
	bl	Reply(PLT)
	b	.L152
.L149:
	.loc 1 326 0
	add	r0, r5, #160
	bl	Queue_CurrentCount(PLT)
	cmp	r0, #0
	.loc 1 327 0
	addgt	r1, sp, #4096
	ldrgt	r2, [r1, #2360]
	addle	r3, sp, #4096
	addgt	r2, r2, #1
	ldrle	r2, [r3, #2360]
	.loc 1 328 0
	add	r3, sp, #4096
	.loc 1 327 0
	strgt	r2, [r1, #2360]
	.loc 1 328 0
	ldr	r0, [r3, #2364]
	ldr	r1, .L160+36
	cmp	r2, r0
	movge	r0, #0
	movlt	r0, #1
	add	r1, sl, r1
	bl	assert(PLT)
	.loc 1 329 0
	ldr	r0, [r5, #32]
	add	r1, r5, #16
	mov	r2, #16
	bl	Reply(PLT)
	b	.L152
.L146:
	.loc 1 336 0
	ldr	r1, .L160+40
	mov	r0, #0
	add	r1, sl, r1
	bl	assert(PLT)
	b	.L152
.L150:
	.loc 1 333 0
	add	r0, r5, #160
	ldr	r1, [r5, #32]
	bl	Queue_PushEnd(PLT)
	b	.L152
.L161:
	.align	2
.L160:
	.word	_GLOBAL_OFFSET_TABLE_-(.L158+8)
	.word	TrainInputServer_Start(GOT)
	.word	__func__.2217(GOT)
	.word	-2138308604
	.word	-2138308584
	.word	.LC21(GOTOFF)
	.word	.LC22(GOTOFF)
	.word	-2138308608
	.word	.LC23(GOTOFF)
	.word	.LC24(GOTOFF)
	.word	.LC25(GOTOFF)
.LFE14:
	.size	TrainInputServer_Start, .-TrainInputServer_Start
	.section	.rodata.str1.4
	.align	2
.LC26:
	.ascii	"TrainOutputServer_Start failed to register\000"
	.align	2
.LC27:
	.ascii	"TrainOutputServer_Start notifier did not start\000"
	.text
	.align	2
	.global	TrainOutputServer_Initialize
	.type	TrainOutputServer_Initialize, %function
TrainOutputServer_Initialize:
.LFB19:
	.loc 1 442 0
	@ args = 0, pretend = 0, frame = 0
	@ frame_needed = 0, uses_anonymous_args = 0
.LVL70:
	stmfd	sp!, {r4, sl, lr}
.LCFI21:
	ldr	sl, .L165
	mov	r4, r0
.L164:
	add	sl, pc, sl
	.loc 1 443 0
	bl	CharBuffer_Initialize(PLT)
.LVL71:
	.loc 1 444 0
	mov	r3, #1
	str	r3, [r4, #152]
	.loc 1 449 0
	ldr	r3, .L165+4
	.loc 1 445 0
	add	r1, r4, #116
	.loc 1 446 0
	add	r2, r4, #132
	str	r2, [r4, #160]
	.loc 1 449 0
	ldr	r0, [sl, r3]
	.loc 1 447 0
	str	r1, [r4, #164]
	.loc 1 445 0
	str	r1, [r4, #156]
	.loc 1 449 0
	bl	RegisterAs(PLT)
	.loc 1 450 0
	ldr	r1, .L165+8
	rsbs	r0, r0, #1
	movcc	r0, #0
	add	r1, sl, r1
	bl	assert(PLT)
	.loc 1 452 0
	ldr	r3, .L165+12
	mov	r0, #5
	ldr	r1, [sl, r3]
	bl	Create(PLT)
	.loc 1 453 0
	ldr	r1, .L165+16
	.loc 1 452 0
	str	r0, [r4, #168]
	.loc 1 453 0
	add	r1, sl, r1
	.loc 1 454 0
	ldmfd	sp!, {r4, sl, lr}
	.loc 1 453 0
	b	assert(PLT)
.L166:
	.align	2
.L165:
	.word	_GLOBAL_OFFSET_TABLE_-(.L164+8)
	.word	TRAIN_OUTPUT_SERVER_NAME(GOT)
	.word	.LC26(GOTOFF)
	.word	TrainOutputNotifier_Start(GOT)
	.word	.LC27(GOTOFF)
.LFE19:
	.size	TrainOutputServer_Initialize, .-TrainOutputServer_Initialize
	.section	.rodata.str1.4
	.align	2
.LC28:
	.ascii	"TrainOutputServer: CTS not set\000"
	.align	2
.LC29:
	.ascii	"TrainOutputServer: TXFE not set\000"
	.text
	.align	2
	.global	TrainOutputServer_SendData
	.type	TrainOutputServer_SendData, %function
TrainOutputServer_SendData:
.LFB20:
	.loc 1 456 0
	@ args = 0, pretend = 0, frame = 0
	@ frame_needed = 0, uses_anonymous_args = 0
.LVL72:
	stmfd	sp!, {r4, r5, r6, r7, sl, lr}
.LCFI22:
	ldr	sl, .L176
	mov	r5, r0
.L174:
	add	sl, pc, sl
	.loc 1 457 0
	bl	CharBuffer_IsEmpty(PLT)
.LVL73:
	.loc 1 457 0
	mov	r0, r0, asl #16
	movs	r6, r0, lsr #16
	ldmnefd	sp!, {r4, r5, r6, r7, sl, pc}
	.loc 1 458 0
	ldr	r3, [r5, #152]
.LBB12:
	.loc 1 461 0
	ldr	r7, .L176+4
.LBE12:
	.loc 1 458 0
	cmp	r3, #2
.LBB13:
	.loc 1 459 0
	mov	r0, r5
.LBE13:
	.loc 1 458 0
	beq	.L175
.L170:
	.loc 1 470 0
	ldr	r3, [r5, #180]
	.loc 1 473 0
	add	r1, r5, #132
	.loc 1 470 0
	cmp	r3, #0
	.loc 1 473 0
	mov	r2, #16
	.loc 1 470 0
	ldmeqfd	sp!, {r4, r5, r6, r7, sl, pc}
	.loc 1 473 0
	ldr	r0, [r5, #168]
	.loc 1 471 0
	str	r6, [r5, #180]
	.loc 1 476 0
	ldmfd	sp!, {r4, r5, r6, r7, sl, lr}
	.loc 1 473 0
	b	Reply(PLT)
.L175:
.LBB14:
	.loc 1 459 0
	bl	CharBuffer_GetChar(PLT)
	.loc 1 461 0
	ldr	r1, .L176+8
	.loc 1 459 0
	mov	r4, r0
	.loc 1 461 0
	ldr	r0, [r7, #0]
	add	r1, sl, r1
	and	r0, r0, #1
	bl	assert(PLT)
	.loc 1 462 0
	ldr	r0, [r7, #0]
	ldr	r1, .L176+12
	and	r0, r0, #128
	add	r1, sl, r1
	bl	assert(PLT)
	.loc 1 465 0
	ldr	r3, .L176+16
	.loc 1 466 0
	mov	r2, #1
	.loc 1 465 0
	str	r4, [r3, #0]
	.loc 1 466 0
	str	r2, [r5, #152]
	.loc 1 467 0
	str	r6, [r5, #172]
	b	.L170
.L177:
	.align	2
.L176:
	.word	_GLOBAL_OFFSET_TABLE_-(.L174+8)
	.word	-2138308584
	.word	.LC28(GOTOFF)
	.word	.LC29(GOTOFF)
	.word	-2138308608
.LBE14:
.LFE20:
	.size	TrainOutputServer_SendData, .-TrainOutputServer_SendData
	.section	.rodata
	.align	2
	.type	__func__.2309, %object
	.size	__func__.2309, 24
__func__.2309:
	.ascii	"TrainOutputServer_Start\000"
	.section	.rodata.str1.4
	.align	2
.LC30:
	.ascii	"Timeout sending data to train.\000"
	.align	2
.LC31:
	.ascii	"TrainOutputServer unknown event type\000"
	.text
	.align	2
	.global	TrainOutputServer_Start
	.type	TrainOutputServer_Start, %function
TrainOutputServer_Start:
.LFB18:
	.loc 1 389 0
	@ args = 0, pretend = 0, frame = 184
	@ frame_needed = 0, uses_anonymous_args = 0
.LVL74:
	stmfd	sp!, {r4, r5, r6, sl, lr}
.LCFI23:
	ldr	sl, .L205
	.loc 1 390 0
	ldr	r3, .L205+4
	ldr	r2, .L205+8
	.loc 1 389 0
.L201:
	add	sl, pc, sl
	sub	sp, sp, #184
.LCFI24:
.LVL75:
	.loc 1 390 0
	ldr	r0, [sl, r3]
	ldr	r1, [sl, r2]
	bl	DebugRegisterFunction(PLT)
	.loc 1 393 0
	mov	r0, sp
	bl	TrainOutputServer_Initialize(PLT)
	.loc 1 397 0
	ldr	r3, [sp, #160]
	.loc 1 394 0
	mov	ip, #0
	.loc 1 397 0
	mov	r1, #10
	.loc 1 395 0
	mov	r2, #3
	.loc 1 393 0
	mov	r5, sp
	add	r6, sp, #132
	.loc 1 397 0
	str	r1, [r3, #0]
	.loc 1 395 0
	str	r2, [sp, #176]
	.loc 1 398 0
	str	ip, [sp, #180]
	.loc 1 394 0
	str	ip, [sp, #172]
.LVL76:
.L202:
	.loc 1 400 0
	ldr	r3, [sp, #152]
	cmp	r3, #0
	beq	.L203
.L180:
	.loc 1 401 0
	mov	r2, #16
	add	r0, sp, #148
	add	r1, sp, #116
	bl	Receive(PLT)
	.loc 1 403 0
	ldr	r2, [sp, #156]
	ldr	r3, [r2, #0]
	sub	r3, r3, #12
	cmp	r3, #12
	addls	pc, pc, r3, asl #2
	b	.L181
	.p2align 2
.L186:
	b	.L182
	b	.L181
	b	.L181
	b	.L183
	b	.L181
	b	.L181
	b	.L181
	b	.L181
	b	.L181
	b	.L181
	b	.L184
	b	.L181
	b	.L185
.L182:
	.loc 1 406 0
	mov	r3, #0
	.loc 1 407 0
	mov	r1, r6
	mov	r2, #16
	ldr	r0, [sp, #148]
	.loc 1 406 0
	str	r3, [sp, #152]
	.loc 1 407 0
	bl	Reply(PLT)
	.loc 1 410 0
	ldr	r3, [sp, #160]
	mov	r2, #12
	str	r2, [r3, #0]
	.loc 1 411 0
	ldr	r0, [sp, #168]
	mov	r1, r6
	add	r2, r2, #4
	bl	Reply(PLT)
	.loc 1 400 0
	ldr	r3, [sp, #152]
	cmp	r3, #0
	bne	.L180
.L203:
	.loc 1 439 0
	bl	Exit(PLT)
	.loc 1 440 0
	add	sp, sp, #184
	ldmfd	sp!, {r4, r5, r6, sl, pc}
.L183:
	.loc 1 415 0
	mov	r3, #2
	.loc 1 416 0
	mov	r2, #1
	.loc 1 417 0
	mov	r0, sp
	.loc 1 415 0
	str	r3, [sp, #152]
	.loc 1 416 0
	str	r2, [sp, #180]
	.loc 1 417 0
	bl	TrainOutputServer_SendData(PLT)
	b	.L202
.L184:
	.loc 1 429 0
	mov	r0, sp
	bl	CharBuffer_IsEmpty(PLT)
	movs	r0, r0, asl #16
	.loc 1 430 0
	ldreq	ip, [sp, #172]
	ldrne	ip, [sp, #172]
	.loc 1 431 0
	ldr	r0, [sp, #176]
	ldr	r1, .L205+12
	.loc 1 430 0
	addeq	ip, ip, #1
	streq	ip, [sp, #172]
	.loc 1 431 0
	add	r1, sl, r1
	cmp	ip, r0
	movge	r0, #0
	movlt	r0, #1
	bl	assert(PLT)
	.loc 1 432 0
	ldr	r0, [sp, #148]
	add	r1, sp, #132
	mov	r2, #16
	bl	Reply(PLT)
	b	.L202
.L181:
	.loc 1 435 0
	ldr	r1, .L205+16
	mov	r0, #0
	add	r1, sl, r1
	bl	assert(PLT)
	b	.L202
.L185:
	.loc 1 421 0
	ldr	r2, [sp, #164]
	ldr	r3, [r2, #12]
	cmp	r3, #0
	bne	.L204
.L189:
	.loc 1 424 0
	ldr	r0, [sp, #148]
	add	r1, sp, #132
	mov	r2, #16
	bl	Reply(PLT)
	.loc 1 425 0
	mov	r0, sp
	bl	TrainOutputServer_SendData(PLT)
	b	.L202
.L204:
	.loc 1 418 0
	mov	r4, #0
.L188:
	.loc 1 422 0
	add	r3, r4, r2
	ldrb	r1, [r3, #4]	@ zero_extendqisi2
	mov	r0, sp
	bl	CharBuffer_PutChar(PLT)
	.loc 1 421 0
	ldr	r2, [sp, #164]
	add	r4, r4, #1
	ldr	r3, [r2, #12]
	cmp	r3, r4
	bhi	.L188
	b	.L189
.L206:
	.align	2
.L205:
	.word	_GLOBAL_OFFSET_TABLE_-(.L201+8)
	.word	TrainOutputServer_Start(GOT)
	.word	__func__.2309(GOT)
	.word	.LC30(GOTOFF)
	.word	.LC31(GOTOFF)
.LFE18:
	.size	TrainOutputServer_Start, .-TrainOutputServer_Start
	.section	.debug_frame,"",%progbits
.Lframe0:
	.4byte	.LECIE0-.LSCIE0
.LSCIE0:
	.4byte	0xffffffff
	.byte	0x1
	.ascii	"\000"
	.uleb128 0x1
	.sleb128 -4
	.byte	0xe
	.byte	0xc
	.uleb128 0xd
	.uleb128 0x0
	.align	2
.LECIE0:
.LSFDE0:
	.4byte	.LEFDE0-.LASFDE0
.LASFDE0:
	.4byte	.Lframe0
	.4byte	.LFB2
	.4byte	.LFE2-.LFB2
	.byte	0x4
	.4byte	.LCFI0-.LFB2
	.byte	0xe
	.uleb128 0x10
	.byte	0x8e
	.uleb128 0x1
	.byte	0x8a
	.uleb128 0x2
	.byte	0x85
	.uleb128 0x3
	.byte	0x84
	.uleb128 0x4
	.align	2
.LEFDE0:
.LSFDE2:
	.4byte	.LEFDE2-.LASFDE2
.LASFDE2:
	.4byte	.Lframe0
	.4byte	.LFB5
	.4byte	.LFE5-.LFB5
	.byte	0x4
	.4byte	.LCFI1-.LFB5
	.byte	0xe
	.uleb128 0x4
	.byte	0x8a
	.uleb128 0x1
	.align	2
.LEFDE2:
.LSFDE4:
	.4byte	.LEFDE4-.LASFDE4
.LASFDE4:
	.4byte	.Lframe0
	.4byte	.LFB6
	.4byte	.LFE6-.LFB6
	.byte	0x4
	.4byte	.LCFI2-.LFB6
	.byte	0xe
	.uleb128 0x4
	.byte	0x8a
	.uleb128 0x1
	.align	2
.LEFDE4:
.LSFDE6:
	.4byte	.LEFDE6-.LASFDE6
.LASFDE6:
	.4byte	.Lframe0
	.4byte	.LFB4
	.4byte	.LFE4-.LFB4
	.byte	0x4
	.4byte	.LCFI3-.LFB4
	.byte	0xe
	.uleb128 0x8
	.byte	0x8e
	.uleb128 0x1
	.byte	0x84
	.uleb128 0x2
	.align	2
.LEFDE6:
.LSFDE8:
	.4byte	.LEFDE8-.LASFDE8
.LASFDE8:
	.4byte	.Lframe0
	.4byte	.LFB3
	.4byte	.LFE3-.LFB3
	.byte	0x4
	.4byte	.LCFI4-.LFB3
	.byte	0xe
	.uleb128 0x8
	.byte	0x8e
	.uleb128 0x1
	.byte	0x8a
	.uleb128 0x2
	.byte	0x4
	.4byte	.LCFI5-.LCFI4
	.byte	0xe
	.uleb128 0x18
	.align	2
.LEFDE8:
.LSFDE10:
	.4byte	.LEFDE10-.LASFDE10
.LASFDE10:
	.4byte	.Lframe0
	.4byte	.LFB8
	.4byte	.LFE8-.LFB8
	.byte	0x4
	.4byte	.LCFI6-.LFB8
	.byte	0xe
	.uleb128 0xc
	.byte	0x8e
	.uleb128 0x1
	.byte	0x8a
	.uleb128 0x2
	.byte	0x84
	.uleb128 0x3
	.align	2
.LEFDE10:
.LSFDE12:
	.4byte	.LEFDE12-.LASFDE12
.LASFDE12:
	.4byte	.Lframe0
	.4byte	.LFB10
	.4byte	.LFE10-.LFB10
	.byte	0x4
	.4byte	.LCFI7-.LFB10
	.byte	0xe
	.uleb128 0xc
	.byte	0x8e
	.uleb128 0x1
	.byte	0x85
	.uleb128 0x2
	.byte	0x84
	.uleb128 0x3
	.align	2
.LEFDE12:
.LSFDE14:
	.4byte	.LEFDE14-.LASFDE14
.LASFDE14:
	.4byte	.Lframe0
	.4byte	.LFB9
	.4byte	.LFE9-.LFB9
	.byte	0x4
	.4byte	.LCFI8-.LFB9
	.byte	0xe
	.uleb128 0x14
	.byte	0x8e
	.uleb128 0x1
	.byte	0x87
	.uleb128 0x2
	.byte	0x86
	.uleb128 0x3
	.byte	0x85
	.uleb128 0x4
	.byte	0x84
	.uleb128 0x5
	.align	2
.LEFDE14:
.LSFDE16:
	.4byte	.LEFDE16-.LASFDE16
.LASFDE16:
	.4byte	.Lframe0
	.4byte	.LFB7
	.4byte	.LFE7-.LFB7
	.byte	0x4
	.4byte	.LCFI9-.LFB7
	.byte	0xe
	.uleb128 0x10
	.byte	0x8e
	.uleb128 0x1
	.byte	0x8a
	.uleb128 0x2
	.byte	0x85
	.uleb128 0x3
	.byte	0x84
	.uleb128 0x4
	.byte	0x4
	.4byte	.LCFI10-.LCFI9
	.byte	0xe
	.uleb128 0x1910
	.byte	0x4
	.4byte	.LCFI11-.LCFI10
	.byte	0xe
	.uleb128 0x1948
	.align	2
.LEFDE16:
.LSFDE18:
	.4byte	.LEFDE18-.LASFDE18
.LASFDE18:
	.4byte	.Lframe0
	.4byte	.LFB12
	.4byte	.LFE12-.LFB12
	.byte	0x4
	.4byte	.LCFI12-.LFB12
	.byte	0xe
	.uleb128 0xc
	.byte	0x8e
	.uleb128 0x1
	.byte	0x8a
	.uleb128 0x2
	.byte	0x84
	.uleb128 0x3
	.align	2
.LEFDE18:
.LSFDE20:
	.4byte	.LEFDE20-.LASFDE20
.LASFDE20:
	.4byte	.Lframe0
	.4byte	.LFB13
	.4byte	.LFE13-.LFB13
	.byte	0x4
	.4byte	.LCFI13-.LFB13
	.byte	0xe
	.uleb128 0xc
	.byte	0x8e
	.uleb128 0x1
	.byte	0x85
	.uleb128 0x2
	.byte	0x84
	.uleb128 0x3
	.align	2
.LEFDE20:
.LSFDE22:
	.4byte	.LEFDE22-.LASFDE22
.LASFDE22:
	.4byte	.Lframe0
	.4byte	.LFB11
	.4byte	.LFE11-.LFB11
	.byte	0x4
	.4byte	.LCFI14-.LFB11
	.byte	0xe
	.uleb128 0x14
	.byte	0x8e
	.uleb128 0x1
	.byte	0x8a
	.uleb128 0x2
	.byte	0x86
	.uleb128 0x3
	.byte	0x85
	.uleb128 0x4
	.byte	0x84
	.uleb128 0x5
	.byte	0x4
	.4byte	.LCFI15-.LCFI14
	.byte	0xe
	.uleb128 0xc4
	.align	2
.LEFDE22:
.LSFDE24:
	.4byte	.LEFDE24-.LASFDE24
.LASFDE24:
	.4byte	.Lframe0
	.4byte	.LFB15
	.4byte	.LFE15-.LFB15
	.byte	0x4
	.4byte	.LCFI16-.LFB15
	.byte	0xe
	.uleb128 0xc
	.byte	0x8e
	.uleb128 0x1
	.byte	0x8a
	.uleb128 0x2
	.byte	0x84
	.uleb128 0x3
	.align	2
.LEFDE24:
.LSFDE26:
	.4byte	.LEFDE26-.LASFDE26
.LASFDE26:
	.4byte	.Lframe0
	.4byte	.LFB17
	.4byte	.LFE17-.LFB17
	.byte	0x4
	.4byte	.LCFI17-.LFB17
	.byte	0xe
	.uleb128 0xc
	.byte	0x8e
	.uleb128 0x1
	.byte	0x85
	.uleb128 0x2
	.byte	0x84
	.uleb128 0x3
	.align	2
.LEFDE26:
.LSFDE28:
	.4byte	.LEFDE28-.LASFDE28
.LASFDE28:
	.4byte	.Lframe0
	.4byte	.LFB16
	.4byte	.LFE16-.LFB16
	.byte	0x4
	.4byte	.LCFI18-.LFB16
	.byte	0xe
	.uleb128 0x18
	.byte	0x8e
	.uleb128 0x1
	.byte	0x88
	.uleb128 0x2
	.byte	0x87
	.uleb128 0x3
	.byte	0x86
	.uleb128 0x4
	.byte	0x85
	.uleb128 0x5
	.byte	0x84
	.uleb128 0x6
	.align	2
.LEFDE28:
.LSFDE30:
	.4byte	.LEFDE30-.LASFDE30
.LASFDE30:
	.4byte	.Lframe0
	.4byte	.LFB14
	.4byte	.LFE14-.LFB14
	.byte	0x4
	.4byte	.LCFI19-.LFB14
	.byte	0xe
	.uleb128 0x14
	.byte	0x8e
	.uleb128 0x1
	.byte	0x8a
	.uleb128 0x2
	.byte	0x86
	.uleb128 0x3
	.byte	0x85
	.uleb128 0x4
	.byte	0x84
	.uleb128 0x5
	.byte	0x4
	.4byte	.LCFI20-.LCFI19
	.byte	0xe
	.uleb128 0x1954
	.align	2
.LEFDE30:
.LSFDE32:
	.4byte	.LEFDE32-.LASFDE32
.LASFDE32:
	.4byte	.Lframe0
	.4byte	.LFB19
	.4byte	.LFE19-.LFB19
	.byte	0x4
	.4byte	.LCFI21-.LFB19
	.byte	0xe
	.uleb128 0xc
	.byte	0x8e
	.uleb128 0x1
	.byte	0x8a
	.uleb128 0x2
	.byte	0x84
	.uleb128 0x3
	.align	2
.LEFDE32:
.LSFDE34:
	.4byte	.LEFDE34-.LASFDE34
.LASFDE34:
	.4byte	.Lframe0
	.4byte	.LFB20
	.4byte	.LFE20-.LFB20
	.byte	0x4
	.4byte	.LCFI22-.LFB20
	.byte	0xe
	.uleb128 0x18
	.byte	0x8e
	.uleb128 0x1
	.byte	0x8a
	.uleb128 0x2
	.byte	0x87
	.uleb128 0x3
	.byte	0x86
	.uleb128 0x4
	.byte	0x85
	.uleb128 0x5
	.byte	0x84
	.uleb128 0x6
	.align	2
.LEFDE34:
.LSFDE36:
	.4byte	.LEFDE36-.LASFDE36
.LASFDE36:
	.4byte	.Lframe0
	.4byte	.LFB18
	.4byte	.LFE18-.LFB18
	.byte	0x4
	.4byte	.LCFI23-.LFB18
	.byte	0xe
	.uleb128 0x14
	.byte	0x8e
	.uleb128 0x1
	.byte	0x8a
	.uleb128 0x2
	.byte	0x86
	.uleb128 0x3
	.byte	0x85
	.uleb128 0x4
	.byte	0x84
	.uleb128 0x5
	.byte	0x4
	.4byte	.LCFI24-.LCFI23
	.byte	0xe
	.uleb128 0xcc
	.align	2
.LEFDE36:
	.file 2 "uart.h"
	.file 3 "message.h"
	.file 4 "buffer.h"
	.file 5 "queue.h"
	.file 6 "kernel_state.h"
	.file 7 "scheduler.h"
	.file 8 "task_descriptor.h"
	.file 9 "public_kernel_interface.h"
	.file 10 "train.h"
	.text
.Letext0: