	.file	"ui.c"
	.text
.Ltext0:
	.section	.rodata
	.align	2
	.type	UI_PRINT_TASK_NAME, %object
	.size	UI_PRINT_TASK_NAME, 6
UI_PRINT_TASK_NAME:
	.ascii	"UIPrt\000"
	.align	2
	.type	UI_SERVER_NAME, %object
	.size	UI_SERVER_NAME, 6
UI_SERVER_NAME:
	.ascii	"UISvr\000"
	.align	2
	.type	UI_TIMER_NAME, %object
	.size	UI_TIMER_NAME, 6
UI_TIMER_NAME:
	.ascii	"UITmr\000"
	.type	TRAIN_ENGINE_STATE_NAMES, %object
	.size	TRAIN_ENGINE_STATE_NAMES, 120
TRAIN_ENGINE_STATE_NAMES:
	.ascii	"Idle\000"
	.space	15
	.ascii	"Finding Position\000"
	.space	3
	.ascii	"Found Start Posn\000"
	.space	3
	.ascii	"Running\000"
	.space	12
	.ascii	"At Destination\000"
	.space	5
	.ascii	"Calibrate Speed\000"
	.space	4
	.align	2
	.type	ADMINISTRATOR_TASK_NAME, %object
	.size	ADMINISTRATOR_TASK_NAME, 6
ADMINISTRATOR_TASK_NAME:
	.ascii	"Admin\000"
	.align	2
	.type	UI_SERVER_HEADER, %object
	.size	UI_SERVER_HEADER, 68
UI_SERVER_HEADER:
	.ascii	"> THOMAS TANK ENGINE (TM) TRAIN MASTER CONTROL SYST"
	.ascii	"EM CS-452-2013 <\000"
	.align	2
	.type	TRAIN_SERVER_NAME, %object
	.size	TRAIN_SERVER_NAME, 7
TRAIN_SERVER_NAME:
	.ascii	"TrnSvr\000"
	.section	.rodata.str1.4,"aMS",%progbits,1
	.align	2
.LC0:
	.ascii	"UIServer: failed whois\000"
	.text
	.align	2
	.global	UIServer_Initialize
	.type	UIServer_Initialize, %function
UIServer_Initialize:
.LFB3:
	.file 1 "ui.c"
	.loc 1 89 0
	@ args = 0, pretend = 0, frame = 0
	@ frame_needed = 0, uses_anonymous_args = 0
.LVL0:
	.loc 1 91 0
	mov	r3, #0
	.loc 1 89 0
	stmfd	sp!, {r4, r5, r6, r7, r8, sl, lr}
.LCFI0:
	.loc 1 90 0
	mov	r2, #1	@ movhi
	.loc 1 91 0
	mov	r5, r3
.LVL1:
	.loc 1 89 0
	ldr	sl, .L17
	.loc 1 90 0
	strh	r2, [r0, #48]	@ movhi
	.loc 1 91 0
	str	r3, [r0, #132]
	.loc 1 89 0
	mov	r6, r0
	.loc 1 91 0
	mov	r3, r0
	mov	r2, r5
	.loc 1 89 0
.L14:
	add	sl, pc, sl
.LVL2:
.L2:
	.loc 1 95 0
	add	r5, r5, #1
	cmp	r5, #5
	.loc 1 96 0
	str	r2, [r3, #136]
	.loc 1 95 0
	add	r3, r3, #4
	bne	.L2
	.loc 1 99 0
	add	r4, r6, #156
	mov	r0, r4
.LVL3:
	bl	TrainMap_Initialize_A(PLT)
.LVL4:
	.loc 1 100 0
	add	r0, r6, #15488
	add	r0, r0, #32
	bl	TrainMap_Initialize_B(PLT)
	ldr	r7, .L17+4
	.loc 1 101 0
	ldr	r3, .L17+8
	ldr	r8, .L17+12
	str	r4, [r6, r3]
	b	.L4
.L16:
	.loc 1 108 0
	bl	DelaySeconds(PLT)
	.loc 1 110 0
	cmp	r5, #9
	movgt	r0, #0
	movle	r0, #1
	add	r1, sl, r8
	bl	assert(PLT)
.L4:
	.loc 1 104 0
	ldr	r0, [sl, r7]
	bl	WhoIs(PLT)
	ldr	r3, .L17+16
	mov	r2, r0
	.loc 1 105 0
	cmp	r2, #0
	.loc 1 109 0
	add	r5, r5, #1
	.loc 1 108 0
	ldr	r0, .L17+20
	.loc 1 104 0
	str	r2, [r6, r3]
	.loc 1 105 0
	beq	.L16
	.loc 1 111 0
	add	r2, r6, #30720
	add	r2, r2, #172
	mov	r3, #0
.LVL5:
	mov	r1, #85
.L7:
	.loc 1 114 0
	add	r3, r3, #1
	cmp	r3, #256
	.loc 1 115 0
	str	r1, [r2], #4
	.loc 1 114 0
	bne	.L7
	.loc 1 119 0
	ldr	r3, .L17+24
.LVL6:
	.loc 1 118 0
	mov	r1, #4
	.loc 1 119 0
	mov	r2, #7
	str	r2, [r6, r3]
	.loc 1 118 0
	add	r3, r3, r1
	str	r1, [r6, r3]
	.loc 1 120 0
	ldmfd	sp!, {r4, r5, r6, r7, r8, sl, pc}
.L18:
	.align	2
.L17:
	.word	_GLOBAL_OFFSET_TABLE_-(.L14+8)
	.word	TRAIN_SERVER_NAME(GOT)
	.word	30884
	.word	.LC0(GOTOFF)
	.word	30888
	.word	1045891645
	.word	31916
.LFE3:
	.size	UIServer_Initialize, .-UIServer_Initialize
	.section	.rodata.str1.4
	.align	2
.LC1:
	.ascii	"C\000"
	.align	2
.LC2:
	.ascii	"S\000"
	.align	2
.LC3:
	.ascii	"U\000"
	.align	2
.LC4:
	.ascii	"UI got unknown switch state.\000"
	.text
	.align	2
	.global	UIServer_PrintSwitches
	.type	UIServer_PrintSwitches, %function
UIServer_PrintSwitches:
.LFB20:
	.loc 1 472 0
	@ args = 0, pretend = 0, frame = 8
	@ frame_needed = 0, uses_anonymous_args = 0
.LVL7:
	stmfd	sp!, {r4, r5, r6, r7, r8, r9, sl, fp, lr}
.LCFI1:
	.loc 1 478 0
	mov	r3, #29
	.loc 1 472 0
	ldr	sl, .L43
	sub	sp, sp, #12
.LCFI2:
.LVL8:
	.loc 1 478 0
	add	r6, r0, #30720
	mov	fp, #0
.LVL9:
	str	r3, [r0, #32]
	.loc 1 473 0
	add	r3, r0, #32
	.loc 1 472 0
.L36:
	add	sl, pc, sl
	.loc 1 473 0
	str	r3, [sp, #8]
	.loc 1 472 0
	mov	r8, r0
	.loc 1 474 0
	add	r3, r0, #16
	.loc 1 478 0
	add	r6, r6, #172
	mov	r9, fp
	.loc 1 474 0
	str	r3, [sp, #4]
	b	.L20
.LVL10:
.L21:
	.loc 1 480 0
	add	fp, fp, #1
	cmp	fp, #256
	add	r9, r9, #12
	add	r6, r6, #4
	beq	.L37
.L20:
.LBB2:
	.loc 1 481 0
	ldr	r3, .L43+4
	ldr	r2, [r8, r3]
	add	r5, r2, #4
	add	r4, r5, r9
	.loc 1 483 0
	ldr	r3, [r4, #8]
	cmp	r3, #0
	beq	.L21
.LBB3:
	.loc 1 484 0
	ldr	r3, [sp, #8]
	.loc 1 485 0
	mov	ip, #16
	.loc 1 484 0
	str	fp, [r3, #4]
	.loc 1 485 0
	ldr	r3, .L43+8
	mov	r2, ip
	ldr	r0, [r8, r3]
	ldr	r1, [sp, #8]
	ldr	r3, [sp, #4]
	str	ip, [sp, #0]
	bl	Send(PLT)
	.loc 1 487 0
	ldr	r3, [sp, #4]
	ldr	r7, [r3, #4]
	.loc 1 490 0
	ldr	r3, [r6, #0]
	cmp	r7, #0
	cmpne	r3, r7
	bne	.L38
	.loc 1 506 0
	str	r7, [r6, #0]
.L42:
.LBE3:
.LBE2:
	.loc 1 480 0
	add	fp, fp, #1
	cmp	fp, #256
	add	r9, r9, #12
	add	r6, r6, #4
	bne	.L20
.LVL11:
.L37:
	.loc 1 509 0
	add	sp, sp, #12
	ldmfd	sp!, {r4, r5, r6, r7, r8, r9, sl, fp, pc}
.LVL12:
.L38:
.LBB4:
.LBB5:
	.loc 1 491 0
	ldr	r0, [r5, r9]
	ldr	r1, [r4, #4]
	add	r0, r0, #5
	add	r1, r1, #21
	bl	ANSI_Cursor(PLT)
	.loc 1 492 0
	cmp	r7, #67
	beq	.L39
	.loc 1 495 0
	cmp	r7, #83
	beq	.L40
	.loc 1 498 0
	cmp	r7, #85
	beq	.L41
	.loc 1 501 0
	ldr	r1, .L43+12
	mov	r0, #0
	add	r1, sl, r1
	bl	assert(PLT)
.L27:
	.loc 1 503 0
	ldr	r3, .L43+16
	ldr	r1, [r8, r3]
	sub	r3, r3, #4
	ldr	r0, [r8, r3]
	bl	ANSI_Color(PLT)
	.loc 1 506 0
	str	r7, [r6, #0]
	b	.L42
.L41:
	.loc 1 499 0
	ldr	r1, .L43+20
	mov	r0, #1
	add	r1, sl, r1
	bl	PutString(PLT)
	b	.L27
.L39:
	.loc 1 493 0
	ldr	r3, .L43+16
	mov	r0, #1
	ldr	r1, [r8, r3]
	bl	ANSI_Color(PLT)
	.loc 1 494 0
	ldr	r1, .L43+24
	mov	r0, #1
	add	r1, sl, r1
	bl	PutString(PLT)
	b	.L27
.L40:
	.loc 1 496 0
	ldr	r3, .L43+16
	mov	r0, #2
	ldr	r1, [r8, r3]
	bl	ANSI_Color(PLT)
	.loc 1 497 0
	ldr	r1, .L43+28
	mov	r0, #1
	add	r1, sl, r1
	bl	PutString(PLT)
	b	.L27
.L44:
	.align	2
.L43:
	.word	_GLOBAL_OFFSET_TABLE_-(.L36+8)
	.word	30884
	.word	30888
	.word	.LC4(GOTOFF)
	.word	31920
	.word	.LC3(GOTOFF)
	.word	.LC1(GOTOFF)
	.word	.LC2(GOTOFF)
.LBE5:
.LBE4:
.LFE20:
	.size	UIServer_PrintSwitches, .-UIServer_PrintSwitches
	.section	.rodata.str1.4
	.align	2
.LC5:
	.ascii	"UIServer_PrintTrainMapPosition: did not get ack mes"
	.ascii	"sage\000"
	.align	2
.LC6:
	.ascii	"%c\000"
	.text
	.align	2
	.global	UIServer_PrintTrainMapPosition
	.type	UIServer_PrintTrainMapPosition, %function
UIServer_PrintTrainMapPosition:
.LFB22:
	.loc 1 647 0
	@ args = 0, pretend = 0, frame = 0
	@ frame_needed = 0, uses_anonymous_args = 0
.LVL13:
	stmfd	sp!, {r4, r5, r6, r7, sl, lr}
.LCFI3:
	.loc 1 653 0
	ldr	r3, .L56
	.loc 1 647 0
	mov	r7, r0
	ldr	sl, .L56+4
	.loc 1 653 0
	mov	ip, #16
	ldr	r0, [r0, r3]
.LVL14:
	.loc 1 649 0
	add	r4, r7, #16
.LVL15:
	.loc 1 651 0
	mov	r3, #34
	.loc 1 647 0
.L54:
	add	sl, pc, sl
	sub	sp, sp, #4
.LCFI4:
.LVL16:
	.loc 1 651 0
	str	r3, [r7, #32]
	.loc 1 653 0
	mov	r2, ip
	mov	r3, r4
	add	r1, r7, #32
	str	ip, [sp, #0]
	bl	Send(PLT)
	.loc 1 654 0
	ldr	r0, [r7, #16]
	ldr	r1, .L56+8
	cmp	r0, #10
	movne	r0, #0
	moveq	r0, #1
	add	r1, sl, r1
	bl	assert(PLT)
	.loc 1 656 0
	ldr	r2, [r4, #4]
.LVL17:
	.loc 1 660 0
	ldr	r1, .L56+12
	.loc 1 658 0
	ldr	r2, [r2, #64]
.LVL18:
	.loc 1 660 0
	ldr	r3, [r7, r1]
	cmp	r2, r3
	beq	.L55
.L46:
	.loc 1 663 0
	cmp	r2, #0
	.loc 1 661 0
	str	r2, [r7, r1]
	.loc 1 663 0
	beq	.L49
	.loc 1 664 0
	ldr	r6, .L56+16
	ldr	r3, [r2, #8]
	ldr	r2, [r7, r6]
.LVL19:
	add	r3, r3, r3, asl #1
	add	r2, r2, #3072
	add	r2, r2, #4
	mov	r3, r3, asl #2
	add	r4, r2, r3
.LVL20:
	.loc 1 666 0
	ldr	r0, [r2, r3]
	ldr	r1, [r4, #4]
	.loc 1 667 0
	ldr	r5, .L56+20
	.loc 1 666 0
	add	r0, r0, #5
	add	r1, r1, #21
	bl	ANSI_Cursor(PLT)
	.loc 1 667 0
	ldr	r0, [r7, r5]
	mov	r1, #2
	bl	ANSI_Color(PLT)
	.loc 1 668 0
	ldr	r2, [r7, r6]
	ldr	r1, [r4, #8]
	ldr	r3, [r2, #0]
	mov	r0, #1
	ldrb	r2, [r3, r1]	@ zero_extendqisi2
	ldr	r1, .L56+24
	add	r1, sl, r1
	bl	PutString(PLT)
	.loc 1 669 0
	ldr	r3, .L56+28
	ldr	r0, [r7, r5]
	ldr	r1, [r7, r3]
	.loc 1 678 0
	add	sp, sp, #4
	ldmfd	sp!, {r4, r5, r6, r7, sl, lr}
	.loc 1 669 0
	b	ANSI_Color(PLT)
.LVL21:
.L49:
	mov	r0, r7
.L51:
.LBB6:
	.loc 1 674 0
	ldr	r3, [r0, #136]
.LVL22:
	.loc 1 673 0
	add	r2, r2, #1
	.loc 1 674 0
	mvn	r3, r3
	.loc 1 673 0
	cmp	r2, #5
	.loc 1 674 0
	str	r3, [r0, #136]
	.loc 1 673 0
	add	r0, r0, #4
	bne	.L51
.LVL23:
.L52:
.LBE6:
	.loc 1 678 0
	add	sp, sp, #4
	ldmfd	sp!, {r4, r5, r6, r7, sl, pc}
.LVL24:
.L55:
	.loc 1 660 0
	ldrsh	r3, [r7, #48]
	cmp	r3, #0
	bne	.L46
	b	.L52
.L57:
	.align	2
.L56:
	.word	30888
	.word	_GLOBAL_OFFSET_TABLE_-(.L54+8)
	.word	.LC5(GOTOFF)
	.word	31928
	.word	30884
	.word	31916
	.word	.LC6(GOTOFF)
	.word	31920
.LFE22:
	.size	UIServer_PrintTrainMapPosition, .-UIServer_PrintTrainMapPosition
	.global	__mulsf3
	.global	__fixunssfdi
	.global	__udivdi3
	.global	__umoddi3
	.section	.rodata.str1.4
	.align	2
.LC7:
	.ascii	"{ SYSTIME = %s:%s:%s:%s,%s }\000"
	.text
	.align	2
	.global	UIServer_PrintTime
	.type	UIServer_PrintTime, %function
UIServer_PrintTime:
.LFB5:
	.loc 1 142 0
	@ args = 0, pretend = 0, frame = 36
	@ frame_needed = 0, uses_anonymous_args = 0
.LVL25:
	stmfd	sp!, {r4, r5, r6, r7, r8, r9, sl, fp, lr}
.LCFI5:
	ldr	sl, .L61
	sub	sp, sp, #48
.LCFI6:
.LVL26:
.L60:
	add	sl, pc, sl
	.loc 1 143 0
	bl	TimeSeconds(PLT)
.LVL27:
	.loc 1 143 0
	ldr	r1, .L61+4
	bl	__mulsf3(PLT)
	bl	__fixunssfdi(PLT)
	.loc 1 145 0
	mov	r2, #1000
	mov	r3, #0
	.loc 1 143 0
	mov	r4, r0
	mov	r5, r1
	.loc 1 145 0
	bl	__udivdi3(PLT)
	.loc 1 147 0
	mov	r2, #60
	mov	r3, #0
	.loc 1 145 0
	mov	r6, r0
	mov	r7, r1
	.loc 1 147 0
	bl	__udivdi3(PLT)
	.loc 1 149 0
	mov	r2, #60
	mov	r3, #0
	.loc 1 147 0
	mov	r8, r0
	mov	r9, r1
	.loc 1 149 0
	bl	__udivdi3(PLT)
	.loc 1 159 0
	add	fp, sp, #43
	.loc 1 149 0
	str	r0, [sp, #12]
	str	r1, [sp, #16]
	.loc 1 159 0
	mov	r2, #1000
	mov	r3, #0
	mov	r0, r4
.LVL28:
	mov	r1, r5
.LVL29:
	bl	__umoddi3(PLT)
.LVL30:
	mov	r1, fp
	bl	rob_zero_pad(PLT)
	.loc 1 160 0
	mov	r2, #60
	mov	r3, #0
	mov	r0, r6
.LVL31:
	mov	r1, r7
.LVL32:
	add	r7, sp, #38
	bl	__umoddi3(PLT)
.LVL33:
	mov	r1, r7
	bl	rob_zero_pad(PLT)
	.loc 1 161 0
	add	r6, sp, #33
	mov	r2, #60
	mov	r3, #0
	mov	r0, r8
.LVL34:
	mov	r1, r9
.LVL35:
	bl	__umoddi3(PLT)
.LVL36:
	mov	r1, r6
	bl	rob_zero_pad(PLT)
	.loc 1 162 0
	add	r0, sp, #12
	ldmia	r0, {r0-r1}
.LVL37:
	mov	r2, #60
	mov	r3, #0
	add	r5, sp, #28
	bl	__umoddi3(PLT)
.LVL38:
	mov	r1, r5
	bl	rob_zero_pad(PLT)
	.loc 1 163 0
	add	r0, sp, #12
	ldmia	r0, {r0-r1}
.LVL39:
	mov	r2, #24
	mov	r3, #0
	bl	__udivdi3(PLT)
.LVL40:
	add	r4, sp, #23
	mov	r2, #24
	mov	r3, #0
	bl	__umoddi3(PLT)
	mov	r1, r4
	bl	rob_zero_pad(PLT)
	.loc 1 165 0
	mov	r0, #1
	mov	r1, #69
	bl	ANSI_Cursor(PLT)
	.loc 1 166 0
	ldr	r1, .L61+8
	mov	r2, r4
	add	r1, sl, r1
	mov	r3, r5
	mov	r0, #1
	stmia	sp, {r6, r7, fp}	@ phole stm
	bl	PutString(PLT)
	.loc 1 167 0
	mov	r0, #0
	bl	ANSI_ClearLine(PLT)
	.loc 1 168 0
	add	sp, sp, #48
	ldmfd	sp!, {r4, r5, r6, r7, r8, r9, sl, fp, pc}
.L62:
	.align	2
.L61:
	.word	_GLOBAL_OFFSET_TABLE_-(.L60+8)
	.word	1148846080
	.word	.LC7(GOTOFF)
.LFE5:
	.size	UIServer_PrintTime, .-UIServer_PrintTime
	.section	.rodata.str1.4
	.align	2
.LC8:
	.ascii	"UIServer_PrintSensors: failed to get ACK from train"
	.ascii	" server\000"
	.align	2
.LC9:
	.ascii	"M%c\000"
	.align	2
.LC10:
	.ascii	"%d\000"
	.text
	.align	2
	.global	UIServer_PrintSensors
	.type	UIServer_PrintSensors, %function
UIServer_PrintSensors:
.LFB18:
	.loc 1 388 0
	@ args = 0, pretend = 0, frame = 40
	@ frame_needed = 0, uses_anonymous_args = 0
.LVL41:
	stmfd	sp!, {r4, r5, r6, r7, r8, r9, sl, fp, lr}
.LCFI7:
	ldr	r2, .L89
	mov	r7, r0
	ldr	r3, .L89+4
	ldr	r0, .L89+8
.LVL42:
	sub	sp, sp, #44
.LCFI8:
.LVL43:
	ldr	sl, .L89+12
	str	r0, [sp, #16]
	str	r2, [sp, #8]
	str	r3, [sp, #4]
	.loc 1 389 0
	add	r0, r7, #32
	.loc 1 390 0
	mov	r2, #0
	mov	r3, #1
	.loc 1 389 0
	str	r0, [sp, #12]
	.loc 1 390 0
	str	r7, [sp, #32]
	str	r2, [sp, #24]
.LVL44:
	str	r3, [sp, #36]
	.loc 1 388 0
.L85:
	add	sl, pc, sl
.LVL45:
.L64:
.LBB7:
	.loc 1 397 0
	ldr	r3, .L89+16
	.loc 1 395 0
	str	r2, [r0, #4]
	.loc 1 394 0
	ldr	r2, [sp, #12]
	.loc 1 397 0
	mov	ip, #16
	ldr	r0, [r7, r3]
	.loc 1 394 0
	mov	r3, #28
	str	r3, [r2, #0]
	.loc 1 397 0
	ldr	r1, [sp, #12]
	mov	r2, ip
	mov	r3, r7
	str	ip, [sp, #0]
	bl	Send(PLT)
	.loc 1 399 0
	ldr	r3, [sp, #16]
	ldr	r0, [r7, #0]
	add	r1, sl, r3
	cmp	r0, #10
	movne	r0, #0
	moveq	r0, #1
	bl	assert(PLT)
	.loc 1 404 0
	ldrh	r1, [r7, #48]
	.loc 1 388 0
	ldr	r2, [sp, #32]
	.loc 1 401 0
	ldr	r0, [r7, #8]
	.loc 1 402 0
	ldr	r3, [sp, #32]
	.loc 1 388 0
	add	r2, r2, #136
	.loc 1 404 0
	cmp	r1, #0
	.loc 1 401 0
	str	r0, [sp, #28]
	.loc 1 388 0
	str	r2, [sp, #40]
	.loc 1 402 0
	ldr	r4, [r3, #136]
.LVL46:
	.loc 1 404 0
	bne	.L86
.L65:
	.loc 1 407 0
	mov	r2, r4, asl #16
	mov	r9, r2, lsr #16
	ldr	r2, [sp, #24]
	mov	r3, r0, asl #16
	mov	r2, r2, asl #4
	mov	fp, r3, lsr #16
	mov	r4, #0
.LVL47:
	str	r2, [sp, #20]
	b	.L67
.LVL48:
.L70:
	.loc 1 412 0
	cmp	r6, #15
	bgt	.L77
.L87:
	ldrh	r1, [r7, #48]
	mov	r4, r6
.LVL49:
.L67:
.LBB8:
	.loc 1 414 0
	mov	r5, #1
	.loc 1 416 0
	eor	r3, r9, fp
	and	r3, r3, r5, asl r4
	orrs	r1, r1, r3
	addeq	r6, r4, r5
	beq	.L70
.LBB9:
	.loc 1 418 0
	add	r0, r4, #6
	ldr	r1, [sp, #36]
	bl	ANSI_Cursor(PLT)
	.loc 1 420 0
	ldr	r0, [sp, #28]
	mov	r3, r0, asr r4
	ands	r8, r3, #1
	beq	.L71
	.loc 1 421 0
	mov	r0, r5
	bl	ANSI_Style(PLT)
	.loc 1 422 0
	ldr	r2, [sp, #8]
	add	r6, r4, #1
	add	r1, sl, r2
	mov	r0, r5
	mov	r2, r6
	bl	PutString(PLT)
	.loc 1 423 0
	mov	r0, #0
	bl	ANSI_Style(PLT)
.L73:
	.loc 1 431 0
	ldr	r5, .L89+20
	ldr	r0, [sp, #20]
	ldr	r2, [r7, r5]
	add	r3, r0, r4
	add	r3, r3, r3, asl #1
	add	r2, r2, #3072
	mov	r0, r3, asl #2
	add	r2, r2, #4
	add	r4, r2, r0
.LVL50:
	.loc 1 433 0
	ldr	r3, [r4, #8]
	cmp	r3, #0
	beq	.L70
	.loc 1 437 0
	ldr	r0, [r2, r0]
	ldr	r1, [r4, #4]
	add	r0, r0, #5
	add	r1, r1, #21
	bl	ANSI_Cursor(PLT)
	.loc 1 439 0
	cmp	r8, #0
	beq	.L75
	.loc 1 440 0
	mov	r0, #1
	bl	ANSI_Style(PLT)
	.loc 1 441 0
	ldr	r3, [r7, r5]
	ldr	ip, [r4, #8]
	ldr	r0, [r3, #0]
	ldr	r2, [sp, #4]
	add	r1, sl, r2
	ldrb	r2, [r0, ip]	@ zero_extendqisi2
	mov	r0, #1
	bl	PutString(PLT)
	.loc 1 442 0
	mov	r0, #0
	bl	ANSI_Style(PLT)
.LBE9:
.LBE8:
	.loc 1 412 0
	cmp	r6, #15
	ble	.L87
.LVL51:
.L77:
.LBE7:
	.loc 1 393 0
	ldr	r0, [sp, #24]
.LBB10:
	.loc 1 450 0
	ldr	r2, [sp, #40]
	ldr	r3, [sp, #28]
.LBE10:
	.loc 1 393 0
	add	r0, r0, #1
	str	r0, [sp, #24]
	cmp	r0, #5
.LBB11:
	.loc 1 450 0
	str	r3, [r2, #0]
.LBE11:
	.loc 1 393 0
	ldr	r0, [sp, #32]
	ldr	r2, [sp, #36]
	add	r0, r0, #4
	add	r2, r2, #3
	str	r0, [sp, #32]
	str	r2, [sp, #36]
	beq	.L88
	ldr	r2, [sp, #24]
	ldr	r0, [sp, #12]
	b	.L64
.LVL52:
.L71:
.LBB12:
.LBB13:
.LBB14:
	.loc 1 425 0
	mov	r0, r8
	bl	ANSI_Style(PLT)
	.loc 1 426 0
	ldr	r3, [sp, #8]
	add	r6, r4, #1
	mov	r0, r5
	add	r1, sl, r3
	mov	r2, r6
	bl	PutString(PLT)
	b	.L73
.LVL53:
.L75:
	.loc 1 444 0
	mov	r0, r8
	bl	ANSI_Style(PLT)
	.loc 1 445 0
	ldr	r3, [r7, r5]
	ldr	ip, [r4, #8]
	ldr	r1, [r3, #0]
	ldr	r3, [sp, #4]
	ldrb	r2, [r1, ip]	@ zero_extendqisi2
	mov	r0, #1
	add	r1, sl, r3
	bl	PutString(PLT)
	b	.L70
.LVL54:
.L86:
.LBE14:
.LBE13:
	.loc 1 406 0
	mov	r0, #5
	ldr	r1, [sp, #36]
	bl	ANSI_Cursor(PLT)
	.loc 1 407 0
	ldr	r3, [sp, #24]
	ldr	r1, .L89+24
	mov	r0, #1
	add	r1, sl, r1
	add	r2, r3, #65
	bl	PutString(PLT)
	ldrh	r1, [r7, #48]
	ldr	r0, [sp, #28]
	b	.L65
.LVL55:
.L88:
.LBE12:
	.loc 1 452 0
	add	sp, sp, #44
	ldmfd	sp!, {r4, r5, r6, r7, r8, r9, sl, fp, pc}
.L90:
	.align	2
.L89:
	.word	.LC10(GOTOFF)
	.word	.LC6(GOTOFF)
	.word	.LC8(GOTOFF)
	.word	_GLOBAL_OFFSET_TABLE_-(.L85+8)
	.word	30888
	.word	30884
	.word	.LC9(GOTOFF)
.LFE18:
	.size	UIServer_PrintSensors, .-UIServer_PrintSensors
	.section	.rodata.str1.4
	.align	2
.LC11:
	.ascii	"tomas@shining-time-station:~$ \000"
	.text
	.align	2
	.global	UIServer_PrintCommandLine
	.type	UIServer_PrintCommandLine, %function
UIServer_PrintCommandLine:
.LFB6:
	.loc 1 170 0
	@ args = 0, pretend = 0, frame = 0
	@ frame_needed = 0, uses_anonymous_args = 0
.LVL56:
	stmfd	sp!, {r4, sl, lr}
.LCFI9:
	mov	r4, r0
	.loc 1 171 0
	ldrsh	r3, [r4, #48]
	.loc 1 170 0
	ldr	sl, .L96
	.loc 1 171 0
	cmp	r3, #0
	.loc 1 170 0
.L95:
	add	sl, pc, sl
	.loc 1 172 0
	mov	r1, #1
	.loc 1 172 0
	mov	r0, #2
.LVL57:
	.loc 1 171 0
	beq	.L92
	.loc 1 172 0
	bl	ANSI_Cursor(PLT)
	.loc 1 173 0
	mov	r0, #1
	bl	ANSI_Style(PLT)
	.loc 1 174 0
	ldr	r1, .L96+4
	mov	r0, #1
	add	r1, sl, r1
	bl	PutString(PLT)
	.loc 1 175 0
	mov	r0, #0
	bl	ANSI_Style(PLT)
.L92:
	.loc 1 178 0
	ldr	r1, [r4, #132]
	mov	r0, #2
	add	r1, r1, #31
	.loc 1 179 0
	ldmfd	sp!, {r4, sl, lr}
	.loc 1 178 0
	b	ANSI_Cursor(PLT)
.L97:
	.align	2
.L96:
	.word	_GLOBAL_OFFSET_TABLE_-(.L95+8)
	.word	.LC11(GOTOFF)
.LFE6:
	.size	UIServer_PrintCommandLine, .-UIServer_PrintCommandLine
	.align	2
	.global	UIServer_ResetCommandBuffer
	.type	UIServer_ResetCommandBuffer, %function
UIServer_ResetCommandBuffer:
.LFB9:
	.loc 1 241 0
	@ args = 0, pretend = 0, frame = 0
	@ frame_needed = 0, uses_anonymous_args = 0
.LVL58:
	stmfd	sp!, {r4, lr}
.LCFI10:
	.loc 1 242 0
	mov	r4, #0
	.loc 1 243 0
	strb	r4, [r0, #50]
	.loc 1 242 0
	str	r4, [r0, #132]
	.loc 1 244 0
	mov	r1, #31
	mov	r0, #2
.LVL59:
	bl	ANSI_Cursor(PLT)
	.loc 1 245 0
	mov	r0, r4
	.loc 1 246 0
	ldmfd	sp!, {r4, lr}
	.loc 1 245 0
	b	ANSI_ClearLine(PLT)
.LFE9:
	.size	UIServer_ResetCommandBuffer, .-UIServer_ResetCommandBuffer
	.section	.rodata.str1.4
	.align	2
.LC12:
	.ascii	"Unknown command. Use: tr, rv, sw, q, map, ts, go, d"
	.ascii	"est\000"
	.text
	.align	2
	.global	UIServer_PrintCommandHelp
	.type	UIServer_PrintCommandHelp, %function
UIServer_PrintCommandHelp:
.LFB10:
	.loc 1 248 0
	@ args = 0, pretend = 0, frame = 0
	@ frame_needed = 0, uses_anonymous_args = 0
	@ link register save eliminated.
.LVL60:
	str	sl, [sp, #-4]!
.LCFI11:
	ldr	sl, .L103
	.loc 1 249 0
	ldr	r1, .L103+4
	.loc 1 248 0
.L102:
	add	sl, pc, sl
	.loc 1 249 0
	mov	r0, #1
.LVL61:
	add	r1, sl, r1
	.loc 1 248 0
	@ lr needed for prologue
	.loc 1 250 0
	ldmfd	sp!, {sl}
	.loc 1 249 0
	b	PutString(PLT)
.L104:
	.align	2
.L103:
	.word	_GLOBAL_OFFSET_TABLE_-(.L102+8)
	.word	.LC12(GOTOFF)
.LFE10:
	.size	UIServer_PrintCommandHelp, .-UIServer_PrintCommandHelp
	.section	.rodata.str1.4
	.align	2
.LC13:
	.ascii	"UIServer_HandleSetDestinationCommand failed to get "
	.ascii	"ack message\000"
	.align	2
.LC14:
	.ascii	"Destination set to %s.\000"
	.text
	.align	2
	.global	UIServer_HandleSetDestinationCommand
	.type	UIServer_HandleSetDestinationCommand, %function
UIServer_HandleSetDestinationCommand:
.LFB17:
	.loc 1 373 0
	@ args = 0, pretend = 0, frame = 0
	@ frame_needed = 0, uses_anonymous_args = 0
.LVL62:
	stmfd	sp!, {r4, r5, r6, sl, lr}
.LCFI12:
	ldr	sl, .L108
	.loc 1 374 0
	add	r5, r0, #50
	.loc 1 373 0
.L107:
	add	sl, pc, sl
	mov	r4, r0
	sub	sp, sp, #4
.LCFI13:
.LVL63:
	.loc 1 374 0
	mov	r0, r5
.LVL64:
	bl	rob_next_whitespace(PLT)
	.loc 1 381 0
	ldr	r3, .L108+4
	.loc 1 375 0
	add	ip, r4, #32
.LVL65:
	.loc 1 379 0
	add	r5, r5, r0
	.loc 1 381 0
	mov	r6, #16
	ldr	r0, [r4, r3]
	.loc 1 378 0
	mov	r3, #33
	str	r3, [r4, #32]
	.loc 1 381 0
	mov	r2, r6
	mov	r1, ip
	.loc 1 379 0
	str	r5, [ip, #12]
	.loc 1 381 0
	add	r3, r4, r6
	str	r6, [sp, #0]
	bl	Send(PLT)
.LVL66:
	.loc 1 383 0
	ldr	r0, [r4, #16]
	ldr	r1, .L108+8
	cmp	r0, #10
	movne	r0, #0
	moveq	r0, #1
	add	r1, sl, r1
	bl	assert(PLT)
	.loc 1 385 0
	ldr	r1, .L108+12
	mov	r2, r5
	add	r1, sl, r1
	mov	r0, #1
	.loc 1 386 0
	add	sp, sp, #4
	ldmfd	sp!, {r4, r5, r6, sl, lr}
	.loc 1 385 0
	b	PutString(PLT)
.L109:
	.align	2
.L108:
	.word	_GLOBAL_OFFSET_TABLE_-(.L107+8)
	.word	30888
	.word	.LC13(GOTOFF)
	.word	.LC14(GOTOFF)
.LFE17:
	.size	UIServer_HandleSetDestinationCommand, .-UIServer_HandleSetDestinationCommand
	.section	.rodata.str1.4
	.align	2
.LC15:
	.ascii	"Unknown map. Use A or B\000"
	.align	2
.LC16:
	.ascii	"UIServer_HandleMapCommand failed to get ack message"
	.ascii	"\000"
	.text
	.align	2
	.global	UIServer_HandleMapCommand
	.type	UIServer_HandleMapCommand, %function
UIServer_HandleMapCommand:
.LFB14:
	.loc 1 294 0
	@ args = 0, pretend = 0, frame = 0
	@ frame_needed = 0, uses_anonymous_args = 0
.LVL67:
	stmfd	sp!, {r4, sl, lr}
.LCFI14:
	ldr	sl, .L120
	mov	r4, r0
.L118:
	add	sl, pc, sl
	sub	sp, sp, #4
.LCFI15:
.LVL68:
	.loc 1 295 0
	add	r0, r0, #50
.LVL69:
	bl	rob_next_whitespace(PLT)
	.loc 1 297 0
	add	r0, r0, r4
	ldrb	lr, [r0, #50]	@ zero_extendqisi2
.LVL70:
	.loc 1 300 0
	add	r2, r4, #156
	.loc 1 299 0
	cmp	lr, #65
	beq	.L119
	.loc 1 306 0
	ldr	r1, .L120+4
	.loc 1 303 0
	add	r2, r4, #15488
	.loc 1 302 0
	cmp	lr, #66
	.loc 1 306 0
	mov	r0, #1
	add	r1, sl, r1
	.loc 1 303 0
	add	r2, r2, #32
	.loc 1 302 0
	beq	.L119
.LVL71:
	.loc 1 318 0
	add	sp, sp, #4
	ldmfd	sp!, {r4, sl, lr}
	.loc 1 306 0
	b	PutString(PLT)
.LVL72:
.L119:
	.loc 1 303 0
	ldr	r3, .L120+8
	.loc 1 310 0
	add	r1, r4, #32
.LVL73:
	.loc 1 303 0
	str	r2, [r4, r3]
	.loc 1 312 0
	mov	r2, #31
	str	r2, [r4, #32]
	.loc 1 315 0
	ldr	r2, .L120+12
	mov	ip, #16
	.loc 1 313 0
	str	lr, [r1, #4]
	.loc 1 304 0
	mov	r3, #1	@ movhi
	strh	r3, [r4, #48]	@ movhi
	.loc 1 315 0
	ldr	r0, [r4, r2]
	add	r3, r4, ip
	mov	r2, ip
	str	ip, [sp, #0]
	bl	Send(PLT)
.LVL74:
	.loc 1 317 0
	ldr	r0, [r4, #16]
	ldr	r1, .L120+16
	cmp	r0, #10
	movne	r0, #0
	moveq	r0, #1
	add	r1, sl, r1
	.loc 1 318 0
	add	sp, sp, #4
	ldmfd	sp!, {r4, sl, lr}
	.loc 1 317 0
	b	assert(PLT)
.L121:
	.align	2
.L120:
	.word	_GLOBAL_OFFSET_TABLE_-(.L118+8)
	.word	.LC15(GOTOFF)
	.word	30884
	.word	30888
	.word	.LC16(GOTOFF)
.LFE14:
	.size	UIServer_HandleMapCommand, .-UIServer_HandleMapCommand
	.section	.rodata.str1.4
	.align	2
.LC17:
	.ascii	"Train set to %d.\000"
	.text
	.align	2
	.global	UIServer_HandleSetTrainCommand
	.type	UIServer_HandleSetTrainCommand, %function
UIServer_HandleSetTrainCommand:
.LFB16:
	.loc 1 356 0
	@ args = 0, pretend = 0, frame = 0
	@ frame_needed = 0, uses_anonymous_args = 0
.LVL75:
	stmfd	sp!, {r4, r5, sl, lr}
.LCFI16:
	ldr	sl, .L125
	.loc 1 357 0
	add	r4, r0, #50
	.loc 1 356 0
.L124:
	add	sl, pc, sl
	mov	r5, r0
	sub	sp, sp, #4
.LCFI17:
.LVL76:
	.loc 1 357 0
	mov	r0, r4
.LVL77:
	bl	rob_next_whitespace(PLT)
	.loc 1 358 0
	add	r0, r4, r0
	bl	robatoi(PLT)
	.loc 1 360 0
	add	r1, r5, #32
.LVL78:
	.loc 1 364 0
	and	r4, r0, #255
	.loc 1 366 0
	ldr	r3, .L125+4
	.loc 1 364 0
	str	r4, [r1, #4]
	.loc 1 366 0
	mov	ip, #16
	ldr	r0, [r5, r3]
	.loc 1 363 0
	mov	r3, #32
	str	r3, [r5, #32]
	.loc 1 366 0
	mov	r2, ip
	add	r3, r5, ip
	str	ip, [sp, #0]
	bl	Send(PLT)
.LVL79:
	.loc 1 368 0
	ldr	r0, [r5, #16]
	ldr	r1, .L125+8
	cmp	r0, #10
	movne	r0, #0
	moveq	r0, #1
	add	r1, sl, r1
	bl	assert(PLT)
	.loc 1 370 0
	ldr	r1, .L125+12
	mov	r2, r4
	add	r1, sl, r1
	mov	r0, #1
	.loc 1 371 0
	add	sp, sp, #4
	ldmfd	sp!, {r4, r5, sl, lr}
	.loc 1 370 0
	b	PutString(PLT)
.L126:
	.align	2
.L125:
	.word	_GLOBAL_OFFSET_TABLE_-(.L124+8)
	.word	30888
	.word	.LC16(GOTOFF)
	.word	.LC17(GOTOFF)
.LFE16:
	.size	UIServer_HandleSetTrainCommand, .-UIServer_HandleSetTrainCommand
	.section	.rodata.str1.4
	.align	2
.LC18:
	.ascii	"Train=%d, Speed=%d. Ramping up train\000"
	.align	2
.LC19:
	.ascii	".\000"
	.align	2
.LC20:
	.ascii	"Waiting for sensor=\000"
	.align	2
.LC21:
	.ascii	"UIServer_HandleTimeStopCommand: did not get ACK\000"
	.align	2
.LC22:
	.ascii	"Stop command latency=%d ms.\000"
	.global	__extendsfdf2
	.global	__subdf3
	.global	__muldf3
	.global	__fixdfsi
	.text
	.align	2
	.global	UIServer_HandleTimeStopCommand
	.type	UIServer_HandleTimeStopCommand, %function
UIServer_HandleTimeStopCommand:
.LFB15:
	.loc 1 320 0
	@ args = 0, pretend = 0, frame = 0
	@ frame_needed = 0, uses_anonymous_args = 0
.LVL80:
	stmfd	sp!, {r4, r5, r6, r7, r8, r9, sl, lr}
.LCFI18:
	ldr	sl, .L134+8
	.loc 1 323 0
	add	r6, r0, #50
	.loc 1 320 0
.L133:
	add	sl, pc, sl
	sub	sp, sp, #4
.LCFI19:
.LVL81:
	mov	r8, r0
	.loc 1 323 0
	mov	r0, r6
.LVL82:
	bl	rob_next_whitespace(PLT)
.LVL83:
	.loc 1 324 0
	add	r5, r6, r0
.LVL84:
	.loc 1 323 0
	mov	r4, r0
.LVL85:
	.loc 1 324 0
	mov	r0, r5
	bl	robatoi(PLT)
	mov	r7, r0
	.loc 1 326 0
	mov	r0, r5
	bl	rob_next_whitespace(PLT)
	.loc 1 328 0
	add	r4, r4, r0
.LVL86:
	add	r0, r6, r4
	bl	robatoi(PLT)
	mov	r4, r0
	.loc 1 330 0
	mov	r0, #0
	bl	ANSI_ClearLine(PLT)
	.loc 1 331 0
	ldr	r1, .L134+12
	and	r4, r4, #255
	and	r7, r7, #255
	mov	r3, r4
	add	r1, sl, r1
	mov	r2, r7
	mov	r0, #1
	bl	PutString(PLT)
	.loc 1 333 0
	mov	ip, #0
	mov	r1, r4
	mov	r3, ip
	mov	r0, #2
	mov	r2, r7
	str	ip, [sp, #0]
	bl	SendTrainCommand(PLT)
	ldr	r5, .L134+16
	.loc 1 321 0
	add	r6, r8, #32
	.loc 1 322 0
	add	r9, r8, #16
	.loc 1 333 0
	mov	r4, #5
.L128:
	.loc 1 337 0
	add	r1, sl, r5
	mov	r0, #1
	bl	PutString(PLT)
	.loc 1 338 0
	mov	r0, #1065353216
	bl	DelaySeconds(PLT)
	.loc 1 336 0
	subs	r4, r4, #1
	bne	.L128
	.loc 1 341 0
	ldr	r1, .L134+20
	mov	r0, #1
	add	r1, sl, r1
	bl	PutString(PLT)
	.loc 1 344 0
	ldr	r3, .L134+24
	mov	ip, #16
	.loc 1 343 0
	mov	r2, #30
	.loc 1 344 0
	ldr	r0, [r8, r3]
	.loc 1 343 0
	str	r2, [r6, #0]
	.loc 1 344 0
	mov	r3, r9
	mov	r2, ip
	mov	r1, r6
	str	ip, [sp, #0]
	bl	Send(PLT)
	.loc 1 345 0
	ldr	r0, [r9, #0]
	ldr	r1, .L134+28
	cmp	r0, #10
	movne	r0, #0
	moveq	r0, #1
	add	r1, sl, r1
	bl	assert(PLT)
	.loc 1 347 0
	bl	TimeSeconds(PLT)
	.loc 1 348 0
	mov	r2, r7
	mov	r3, r4
	mov	r1, r4
	.loc 1 347 0
	mov	r6, r0
	.loc 1 348 0
	mov	r0, #2
	str	r4, [sp, #0]
	bl	SendTrainCommand(PLT)
	.loc 1 349 0
	bl	TimeSeconds(PLT)
	.loc 1 353 0
	bl	__extendsfdf2(PLT)
	mov	r4, r0
	mov	r0, r6
	mov	r5, r1
	bl	__extendsfdf2(PLT)
	mov	r2, r0
	mov	r3, r1
	mov	r0, r4
	mov	r1, r5
	bl	__subdf3(PLT)
	adr	r2, .L134
	ldmia	r2, {r2-r3}
	bl	__muldf3(PLT)
	bl	__fixdfsi(PLT)
	ldr	r1, .L134+32
	mov	r2, r0
	add	r1, sl, r1
	mov	r0, #1
	.loc 1 354 0
	add	sp, sp, #4
	ldmfd	sp!, {r4, r5, r6, r7, r8, r9, sl, lr}
	.loc 1 353 0
	b	PutString(PLT)
.L135:
	.align	2
.L134:
	.word	1083129856
	.word	0
	.word	_GLOBAL_OFFSET_TABLE_-(.L133+8)
	.word	.LC18(GOTOFF)
	.word	.LC19(GOTOFF)
	.word	.LC20(GOTOFF)
	.word	30888
	.word	.LC21(GOTOFF)
	.word	.LC22(GOTOFF)
.LFE15:
	.size	UIServer_HandleTimeStopCommand, .-UIServer_HandleTimeStopCommand
	.section	.rodata.str1.4
	.align	2
.LC23:
	.ascii	"Train=%d. train on reversed fire.\000"
	.text
	.align	2
	.global	UIServer_HandleReverseCommand
	.type	UIServer_HandleReverseCommand, %function
UIServer_HandleReverseCommand:
.LFB12:
	.loc 1 264 0
	@ args = 0, pretend = 0, frame = 0
	@ frame_needed = 0, uses_anonymous_args = 0
.LVL87:
	stmfd	sp!, {r4, sl, lr}
.LCFI20:
	ldr	sl, .L139
	.loc 1 265 0
	add	r4, r0, #50
	.loc 1 264 0
.L138:
	add	sl, pc, sl
	sub	sp, sp, #4
.LCFI21:
.LVL88:
	.loc 1 265 0
	mov	r0, r4
.LVL89:
	bl	rob_next_whitespace(PLT)
	.loc 1 266 0
	add	r0, r4, r0
	bl	robatoi(PLT)
	.loc 1 268 0
	ldr	r1, .L139+4
	and	r4, r0, #255
	add	r1, sl, r1
	mov	r2, r4
	mov	r0, #1
	bl	PutString(PLT)
	.loc 1 269 0
	mov	ip, #0
	mov	r2, ip
	mov	r1, r4
	mov	r3, ip
	mov	r0, #3
	str	ip, [sp, #0]
	bl	SendTrainCommand(PLT)
	.loc 1 270 0
	add	sp, sp, #4
	ldmfd	sp!, {r4, sl, pc}
.L140:
	.align	2
.L139:
	.word	_GLOBAL_OFFSET_TABLE_-(.L138+8)
	.word	.LC23(GOTOFF)
.LFE12:
	.size	UIServer_HandleReverseCommand, .-UIServer_HandleReverseCommand
	.section	.rodata.str1.4
	.align	2
.LC24:
	.ascii	"Train=%d Speed=%d. train on fire.\000"
	.text
	.align	2
	.global	UIServer_HandleTrainCommand
	.type	UIServer_HandleTrainCommand, %function
UIServer_HandleTrainCommand:
.LFB11:
	.loc 1 252 0
	@ args = 0, pretend = 0, frame = 0
	@ frame_needed = 0, uses_anonymous_args = 0
.LVL90:
	stmfd	sp!, {r4, r5, r6, r7, sl, lr}
.LCFI22:
	ldr	sl, .L144
	.loc 1 253 0
	add	r6, r0, #50
	.loc 1 252 0
.L143:
	add	sl, pc, sl
	sub	sp, sp, #4
.LCFI23:
.LVL91:
	.loc 1 253 0
	mov	r0, r6
.LVL92:
	bl	rob_next_whitespace(PLT)
.LVL93:
	.loc 1 254 0
	add	r5, r6, r0
.LVL94:
	.loc 1 253 0
	mov	r4, r0
.LVL95:
	.loc 1 254 0
	mov	r0, r5
	bl	robatoi(PLT)
	mov	r7, r0
	.loc 1 256 0
	mov	r0, r5
	bl	rob_next_whitespace(PLT)
	.loc 1 258 0
	add	r4, r4, r0
.LVL96:
	add	r0, r6, r4
	bl	robatoi(PLT)
	.loc 1 260 0
	ldr	r1, .L144+4
	and	r4, r0, #255
	and	r7, r7, #255
	add	r1, sl, r1
	mov	r2, r7
	mov	r3, r4
	mov	r0, #1
	bl	PutString(PLT)
	.loc 1 261 0
	mov	ip, #0
	mov	r1, r4
	mov	r2, r7
	mov	r3, ip
	mov	r0, #2
	str	ip, [sp, #0]
	bl	SendTrainCommand(PLT)
	.loc 1 262 0
	add	sp, sp, #4
	ldmfd	sp!, {r4, r5, r6, r7, sl, pc}
.L145:
	.align	2
.L144:
	.word	_GLOBAL_OFFSET_TABLE_-(.L143+8)
	.word	.LC24(GOTOFF)
.LFE11:
	.size	UIServer_HandleTrainCommand, .-UIServer_HandleTrainCommand
	.section	.rodata.str1.4
	.align	2
.LC25:
	.ascii	"Unknown direction. Use C or S\000"
	.align	2
.LC26:
	.ascii	"Switch=%d Direction=%c. switch on fire.\000"
	.text
	.align	2
	.global	UIServer_HandleSwitchCommand
	.type	UIServer_HandleSwitchCommand, %function
UIServer_HandleSwitchCommand:
.LFB13:
	.loc 1 272 0
	@ args = 0, pretend = 0, frame = 0
	@ frame_needed = 0, uses_anonymous_args = 0
.LVL97:
	stmfd	sp!, {r4, r5, r6, r7, sl, lr}
.LCFI24:
	ldr	sl, .L155
	.loc 1 273 0
	add	r4, r0, #50
	.loc 1 272 0
.L154:
	add	sl, pc, sl
	mov	r6, r0
	.loc 1 273 0
	mov	r0, r4
.LVL98:
	bl	rob_next_whitespace(PLT)
.LVL99:
	.loc 1 274 0
	add	r4, r4, r0
.LVL100:
	.loc 1 273 0
	mov	r5, r0
.LVL101:
	.loc 1 274 0
	mov	r0, r4
	bl	robatoi(PLT)
	mov	r3, r0
	.loc 1 276 0
	mov	r0, r4
	.loc 1 274 0
	and	r7, r3, #255
.LVL102:
	.loc 1 276 0
	bl	rob_next_whitespace(PLT)
	.loc 1 278 0
	add	r5, r5, r6
.LVL103:
	add	r5, r5, r0
	ldrb	r3, [r5, #50]	@ zero_extendqisi2
.LVL104:
	.loc 1 286 0
	mov	r4, #34
	.loc 1 281 0
	cmp	r3, #67
	beq	.L151
	.loc 1 286 0
	ldr	r1, .L155+4
	.loc 1 283 0
	cmp	r3, #83
	.loc 1 286 0
	mov	r0, #1
	add	r1, sl, r1
	.loc 1 283 0
	sub	r4, r4, #1
	beq	.L151
	.loc 1 292 0
	ldmfd	sp!, {r4, r5, r6, r7, sl, lr}
	.loc 1 286 0
	b	PutString(PLT)
.LVL105:
.L151:
	.loc 1 290 0
	ldr	r1, .L155+8
	mov	r2, r7
	add	r1, sl, r1
	mov	r0, #1
	bl	PutString(PLT)
.LVL106:
	.loc 1 291 0
	mov	r0, r4
	mov	r1, r7
	.loc 1 292 0
	ldmfd	sp!, {r4, r5, r6, r7, sl, lr}
	.loc 1 291 0
	b	SetTrainSwitch(PLT)
.L156:
	.align	2
.L155:
	.word	_GLOBAL_OFFSET_TABLE_-(.L154+8)
	.word	.LC25(GOTOFF)
	.word	.LC26(GOTOFF)
.LFE13:
	.size	UIServer_HandleSwitchCommand, .-UIServer_HandleSwitchCommand
	.section	.rodata.str1.4
	.align	2
.LC27:
	.ascii	"Quiting. Goodbye.\000"
	.align	2
.LC28:
	.ascii	"UIServer_RunCommand failed to get ack message\000"
	.text
	.align	2
	.global	UIServer_RunCommand
	.type	UIServer_RunCommand, %function
UIServer_RunCommand:
.LFB8:
	.loc 1 206 0
	@ args = 0, pretend = 0, frame = 0
	@ frame_needed = 0, uses_anonymous_args = 0
.LVL107:
	stmfd	sp!, {r4, sl, lr}
.LCFI25:
	ldr	sl, .L187
	mov	r4, r0
.L178:
	add	sl, pc, sl
	sub	sp, sp, #4
.LCFI26:
.LVL108:
	.loc 1 207 0
	mov	r1, #1
	mov	r0, #3
.LVL109:
	bl	ANSI_Cursor(PLT)
	.loc 1 209 0
	ldr	r3, [r4, #132]
	cmp	r3, #0
	beq	.L175
	.loc 1 211 0
	ldrb	r3, [r4, #50]	@ zero_extendqisi2
	cmp	r3, #113
	beq	.L179
	.loc 1 221 0
	ldrh	r2, [r4, #50]
	ldr	r3, .L187+4
	cmp	r2, r3
	beq	.L180
	.loc 1 223 0
	ldr	r3, .L187+8
	cmp	r2, r3
	beq	.L181
	.loc 1 225 0
	ldr	r3, .L187+12
	cmp	r2, r3
	beq	.L182
	.loc 1 227 0
	ldr	r3, .L187+16
	cmp	r2, r3
	beq	.L183
	.loc 1 229 0
	ldr	r3, .L187+20
	cmp	r2, r3
	beq	.L184
	.loc 1 231 0
	ldr	r3, .L187+24
	cmp	r2, r3
	beq	.L185
	.loc 1 233 0
	ldr	r3, .L187+28
	cmp	r2, r3
	beq	.L186
.L175:
	.loc 1 236 0
	mov	r0, r4
	bl	UIServer_PrintCommandHelp(PLT)
.L160:
	.loc 1 238 0
	mov	r0, #0
	.loc 1 239 0
	add	sp, sp, #4
	ldmfd	sp!, {r4, sl, lr}
	.loc 1 238 0
	b	ANSI_ClearLine(PLT)
.L181:
	.loc 1 224 0
	mov	r0, r4
	bl	UIServer_HandleReverseCommand(PLT)
	b	.L160
.L186:
	.loc 1 234 0
	mov	r0, r4
	bl	UIServer_HandleSetDestinationCommand(PLT)
	b	.L160
.L179:
.LBB15:
	.loc 1 212 0
	ldr	r1, .L187+32
	mov	r0, #1
	add	r1, sl, r1
	bl	PutString(PLT)
	.loc 1 213 0
	mov	r0, #1065353216
	bl	DelaySeconds(PLT)
	.loc 1 214 0
	ldr	r3, .L187+36
	ldr	r0, [sl, r3]
	bl	WhoIs(PLT)
	.loc 1 218 0
	mov	ip, #16
	.loc 1 217 0
	mov	r3, #12
	str	r3, [r4, #32]
	.loc 1 218 0
	add	r1, r4, #32
	mov	r2, ip
	add	r3, r4, ip
	str	ip, [sp, #0]
	bl	Send(PLT)
	.loc 1 220 0
	ldr	r0, [r4, #16]
	ldr	r1, .L187+40
	cmp	r0, #10
	movne	r0, #0
	moveq	r0, #1
	add	r1, sl, r1
	bl	assert(PLT)
	b	.L160
.L180:
.LBE15:
	.loc 1 222 0
	mov	r0, r4
	bl	UIServer_HandleTrainCommand(PLT)
	b	.L160
.L182:
	.loc 1 226 0
	mov	r0, r4
	bl	UIServer_HandleSwitchCommand(PLT)
	b	.L160
.L183:
	.loc 1 228 0
	mov	r0, r4
	bl	UIServer_HandleMapCommand(PLT)
	b	.L160
.L184:
	.loc 1 230 0
	mov	r0, r4
	bl	UIServer_HandleTimeStopCommand(PLT)
	b	.L160
.L185:
	.loc 1 232 0
	mov	r0, r4
	bl	UIServer_HandleSetTrainCommand(PLT)
	b	.L160
.L188:
	.align	2
.L187:
	.word	_GLOBAL_OFFSET_TABLE_-(.L178+8)
	.word	29300
	.word	30322
	.word	30579
	.word	24941
	.word	29556
	.word	28519
	.word	25956
	.word	.LC27(GOTOFF)
	.word	ADMINISTRATOR_TASK_NAME(GOT)
	.word	.LC28(GOTOFF)
.LFE8:
	.size	UIServer_RunCommand, .-UIServer_RunCommand
	.section	.rodata.str1.4
	.align	2
.LC29:
	.ascii	" \000"
	.text
	.align	2
	.global	UIServer_ProcessKeystroke
	.type	UIServer_ProcessKeystroke, %function
UIServer_ProcessKeystroke:
.LFB7:
	.loc 1 181 0
	@ args = 0, pretend = 0, frame = 0
	@ frame_needed = 0, uses_anonymous_args = 0
.LVL110:
	stmfd	sp!, {r4, r5, sl, lr}
.LCFI27:
	ldr	sl, .L201
	.loc 1 182 0
	ldr	r3, [r0, #132]
	.loc 1 181 0
.L198:
	add	sl, pc, sl
	mov	r4, r0
	and	r5, r1, #255
	.loc 1 182 0
	mov	r0, #2
.LVL111:
	add	r1, r3, #31
.LVL112:
	bl	ANSI_Cursor(PLT)
	.loc 1 184 0
	cmp	r5, #13
	.loc 1 185 0
	mov	r0, r4
	.loc 1 184 0
	beq	.L199
.LVL113:
	.loc 1 187 0
	cmp	r5, #8
	beq	.L200
	.loc 1 196 0
	ldr	r2, [r4, #132]
	.loc 1 199 0
	ldr	r1, .L201+4
	.loc 1 197 0
	add	r3, r2, r4
	.loc 1 196 0
	cmp	r2, #78
	.loc 1 199 0
	mov	r0, #1
.LVL114:
	add	r1, sl, r1
	.loc 1 197 0
	add	r3, r3, #48
	.loc 1 196 0
	ldmhifd	sp!, {r4, r5, sl, pc}
	.loc 1 197 0
	strb	r5, [r3, #2]
	.loc 1 199 0
	ldrb	r2, [r3, #2]	@ zero_extendqisi2
	bl	PutString(PLT)
	.loc 1 201 0
	ldr	r3, [r4, #132]
	.loc 1 202 0
	mov	r2, #0
	.loc 1 201 0
	add	r3, r3, #1
	.loc 1 202 0
	add	r1, r3, r4
	strb	r2, [r1, #50]
	.loc 1 201 0
	str	r3, [r4, #132]
	ldmfd	sp!, {r4, r5, sl, pc}
.LVL115:
.L200:
	.loc 1 188 0
	ldr	r3, [r4, #132]
	.loc 1 193 0
	mov	r0, #1
.LVL116:
	.loc 1 189 0
	sub	r2, r3, #1
	.loc 1 188 0
	cmp	r3, #0
	.loc 1 191 0
	add	r1, r2, r4
	.loc 1 188 0
	ldmeqfd	sp!, {r4, r5, sl, pc}
	.loc 1 191 0
	mov	r3, #0
	strb	r3, [r1, #50]
	.loc 1 189 0
	str	r2, [r4, #132]
	.loc 1 193 0
	bl	ANSI_CursorBackward(PLT)
	.loc 1 194 0
	ldr	r1, .L201+8
	mov	r0, #1
	add	r1, sl, r1
	.loc 1 204 0
	ldmfd	sp!, {r4, r5, sl, lr}
	.loc 1 194 0
	b	PutString(PLT)
.LVL117:
.L199:
	.loc 1 185 0
	bl	UIServer_RunCommand(PLT)
.LVL118:
	.loc 1 186 0
	mov	r0, r4
	.loc 1 204 0
	ldmfd	sp!, {r4, r5, sl, lr}
	.loc 1 186 0
	b	UIServer_ResetCommandBuffer(PLT)
.L202:
	.align	2
.L201:
	.word	_GLOBAL_OFFSET_TABLE_-(.L198+8)
	.word	.LC6(GOTOFF)
	.word	.LC29(GOTOFF)
.LFE7:
	.size	UIServer_ProcessKeystroke, .-UIServer_ProcessKeystroke
	.align	2
	.global	UIServer_PrintMap
	.type	UIServer_PrintMap, %function
UIServer_PrintMap:
.LFB19:
	.loc 1 454 0
	@ args = 0, pretend = 0, frame = 0
	@ frame_needed = 0, uses_anonymous_args = 0
.LVL119:
	stmfd	sp!, {r4, r5, lr}
.LCFI28:
	.loc 1 455 0
	ldrsh	r3, [r0, #48]
	.loc 1 454 0
	mov	r5, r0
	.loc 1 455 0
	cmp	r3, #0
	ldmeqfd	sp!, {r4, r5, pc}
.LVL120:
.LBB16:
	.loc 1 456 0
	mov	r1, #21
	mov	r0, #5
	bl	ANSI_Cursor(PLT)
	.loc 1 459 0
	ldr	r3, .L214
	ldr	r2, [r5, r3]
	ldr	r1, [r2, #0]
	ldrb	r1, [r1, #0]	@ zero_extendqisi2
	cmp	r1, #0
	ldmeqfd	sp!, {r4, r5, pc}
	.loc 1 460 0
	mov	r4, #0
.LVL121:
	b	.L207
.L208:
	.loc 1 465 0
	mov	r0, #1
	bl	Putc(PLT)
	.loc 1 459 0
	ldr	r3, .L214
	.loc 1 467 0
	add	r4, r4, #1
	.loc 1 459 0
	ldr	r2, [r5, r3]
	ldr	r1, [r2, #0]
	ldrb	r1, [r1, r4]	@ zero_extendqisi2
	cmp	r1, #0
	beq	.L213
.L207:
	.loc 1 461 0
	cmp	r1, #10
	.loc 1 462 0
	mov	r0, #1
	.loc 1 461 0
	bne	.L208
	.loc 1 462 0
	bl	ANSI_CursorNextLine(PLT)
	.loc 1 463 0
	mov	r0, #20
	bl	ANSI_CursorForward(PLT)
	.loc 1 459 0
	ldr	r3, .L214
	.loc 1 467 0
	add	r4, r4, #1
	.loc 1 459 0
	ldr	r2, [r5, r3]
	ldr	r1, [r2, #0]
	ldrb	r1, [r1, r4]	@ zero_extendqisi2
	cmp	r1, #0
	bne	.L207
.L213:
	ldmfd	sp!, {r4, r5, pc}
.L215:
	.align	2
.L214:
	.word	30884
.LBE16:
.LFE19:
	.size	UIServer_PrintMap, .-UIServer_PrintMap
	.section	.rodata.str1.4
	.align	2
.LC30:
	.ascii	"           TRAIN:\000"
	.align	2
.LC31:
	.ascii	"           State:\000"
	.align	2
.LC32:
	.ascii	"           Speed:\000"
	.align	2
.LC33:
	.ascii	"Current Waypoint:\000"
	.align	2
.LC34:
	.ascii	"   Next Waypoint:\000"
	.align	2
.LC35:
	.ascii	"     Destination:\000"
	.align	2
.LC36:
	.ascii	"     Expected Time at Sensor:\000"
	.align	2
.LC37:
	.ascii	"Last Expected Time at Sensor:\000"
	.align	2
.LC38:
	.ascii	"  Last Actual Time at Sensor:\000"
	.align	2
.LC39:
	.ascii	"UIServer_PrintTrainEngineStatus: did not get ack me"
	.ascii	"ssage\000"
	.align	2
.LC40:
	.ascii	"???\000"
	.align	2
.LC41:
	.ascii	"-\000"
	.align	2
.LC42:
	.ascii	"%s\000"
	.align	2
.LC43:
	.ascii	"%d mm/s (%d)\000"
	.text
	.align	2
	.global	UIServer_PrintTrainEngineStatus
	.type	UIServer_PrintTrainEngineStatus, %function
UIServer_PrintTrainEngineStatus:
.LFB21:
	.loc 1 511 0
	@ args = 0, pretend = 0, frame = 28
	@ frame_needed = 0, uses_anonymous_args = 0
.LVL122:
	stmfd	sp!, {r4, r5, r6, r7, r8, r9, sl, fp, lr}
.LCFI29:
	.loc 1 512 0
	ldrsh	r3, [r0, #48]
	.loc 1 511 0
	ldr	sl, .L241
	.loc 1 512 0
	cmp	r3, #0
	.loc 1 511 0
.L234:
	add	sl, pc, sl
	sub	sp, sp, #32
.LCFI30:
.LVL123:
	.loc 1 511 0
	mov	r6, r0
	.loc 1 512 0
	bne	.L235
.LVL124:
.L217:
	.loc 1 540 0
	ldr	r3, .L241+4
	mov	ip, #16
	ldr	r0, [r6, r3]
	.loc 1 536 0
	add	r4, r6, #16
.LVL125:
	.loc 1 538 0
	mov	r3, #34
	.loc 1 540 0
	mov	r2, ip
	.loc 1 538 0
	str	r3, [r6, #32]
	.loc 1 540 0
	add	r1, r6, #32
	mov	r3, r4
	str	ip, [sp, #0]
	bl	Send(PLT)
	.loc 1 541 0
	ldr	r0, [r6, #16]
	ldr	r1, .L241+8
	cmp	r0, #10
	movne	r0, #0
	moveq	r0, #1
	add	r1, sl, r1
	bl	assert(PLT)
	.loc 1 544 0
	ldr	r4, [r4, #4]
.LVL126:
	.loc 1 547 0
	add	r0, r4, #20
	ldmia	r0, {r0-r1}
	bl	__fixdfsi(PLT)
	str	r0, [sp, #4]
.LVL127:
	.loc 1 551 0
	add	r0, r4, #28
	ldmia	r0, {r0-r1}
	bl	__fixdfsi(PLT)
	str	r0, [sp, #20]
.LVL128:
	.loc 1 552 0
	add	r0, r4, #36
	ldmia	r0, {r0-r1}
	bl	__fixdfsi(PLT)
	mov	r8, r0
.LVL129:
	.loc 1 553 0
	add	r0, r4, #44
	ldmia	r0, {r0-r1}
	bl	__fixdfsi(PLT)
	.loc 1 555 0
	ldr	r2, [r4, #56]
	.loc 1 553 0
	mov	r9, r0
.LVL130:
	.loc 1 555 0
	cmp	r2, #0
	.loc 1 556 0
	ldrne	r2, [r2, #0]
	.loc 1 545 0
	ldr	r7, [r4, #4]
.LVL131:
	.loc 1 546 0
	ldr	fp, [r4, #16]
.LVL132:
	.loc 1 556 0
	strne	r2, [sp, #8]
.LVL133:
	.loc 1 555 0
	beq	.L236
	.loc 1 561 0
	ldr	r2, [r4, #12]
	cmp	r2, #0
	.loc 1 562 0
	ldrne	r2, [r2, #0]
	strne	r2, [sp, #12]
.LVL134:
	.loc 1 561 0
	beq	.L237
.L224:
	.loc 1 567 0
	ldr	r2, [r4, #64]
	cmp	r2, #0
	.loc 1 568 0
	ldrne	r2, [r2, #0]
	strne	r2, [sp, #16]
.LVL135:
	.loc 1 567 0
	beq	.L238
.L227:
	.loc 1 580 0
	ldr	r2, [sp, #4]
	eor	r3, r7, fp
	eor	r3, r2, r3
	ldr	r2, [sp, #8]
	.loc 1 578 0
	ldr	r5, [r4, #8]
.LVL136:
	.loc 1 580 0
	eor	r3, r3, r2
	ldr	r2, [sp, #12]
	eor	r3, r5, r3
	eor	r3, r3, r2
	ldr	r2, [sp, #16]
	eor	r3, r3, r2
	ldr	r2, [sp, #20]
	eor	r3, r2, r3
	eor	r3, r8, r3
	.loc 1 583 0
	ldr	r2, .L241+12
	.loc 1 580 0
	eor	r3, r9, r3
	.loc 1 583 0
	ldr	r1, [r6, r2]
	.loc 1 580 0
	str	r3, [sp, #28]
.LVL137:
	.loc 1 573 0
	rsb	r2, r9, r8
.LVL138:
	eor	r3, r2, r2, asr #31
	sub	r3, r3, r2, asr #31
	.loc 1 583 0
	ldr	r2, [sp, #28]
.LVL139:
	.loc 1 573 0
	str	r3, [sp, #24]
.LVL140:
	.loc 1 583 0
	cmp	r2, r1
	beq	.L239
.L228:
	.loc 1 584 0
	mov	r1, #1
	mov	r0, #23
	bl	ANSI_Cursor(PLT)
	.loc 1 586 0
	mov	r0, #19
	bl	ANSI_CursorCol(PLT)
	.loc 1 587 0
	mov	r0, #10
	bl	ANSI_ClearCell(PLT)
	.loc 1 588 0
	ldr	r3, .L241+16
	mov	r2, r7
	add	r7, sl, r3
.LVL141:
	mov	r1, r7
	mov	r0, #1
	bl	PutString(PLT)
.LVL142:
	.loc 1 589 0
	mov	r0, #1
	bl	ANSI_CursorNextLine(PLT)
	.loc 1 591 0
	mov	r0, #19
	bl	ANSI_CursorCol(PLT)
	.loc 1 592 0
	mov	r0, #20
	bl	ANSI_ClearCell(PLT)
	.loc 1 593 0
	ldr	r3, .L241+20
	add	r1, r5, r5, asl #2
	add	r4, sl, r3
.LVL143:
	ldr	r3, .L241+24
	mov	r0, #1
	ldr	r2, [sl, r3]
	add	r2, r2, r1, asl #2
	mov	r1, r4
	bl	PutString(PLT)
	.loc 1 594 0
	mov	r0, #1
	bl	ANSI_CursorNextLine(PLT)
	.loc 1 596 0
	mov	r0, #19
	bl	ANSI_CursorCol(PLT)
	.loc 1 597 0
	mov	r0, #20
	bl	ANSI_ClearCell(PLT)
	.loc 1 598 0
	ldr	r1, .L241+28
	mov	r3, fp
	add	r1, sl, r1
	ldr	r2, [sp, #4]
	mov	r0, #1
	bl	PutString(PLT)
	.loc 1 599 0
	mov	r0, #1
	bl	ANSI_CursorNextLine(PLT)
	.loc 1 601 0
	mov	r0, #19
	bl	ANSI_CursorCol(PLT)
	.loc 1 602 0
	mov	r0, #10
	bl	ANSI_ClearCell(PLT)
	.loc 1 603 0
	ldr	r2, [sp, #8]
	mov	r1, r4
	mov	r0, #1
	bl	PutString(PLT)
	.loc 1 604 0
	mov	r0, #1
	bl	ANSI_CursorNextLine(PLT)
	.loc 1 606 0
	mov	r0, #19
	bl	ANSI_CursorCol(PLT)
	.loc 1 607 0
	mov	r0, #10
	bl	ANSI_ClearCell(PLT)
	.loc 1 608 0
	ldr	r2, [sp, #12]
	mov	r1, r4
	mov	r0, #1
	bl	PutString(PLT)
	.loc 1 609 0
	mov	r0, #1
	bl	ANSI_CursorNextLine(PLT)
	.loc 1 611 0
	mov	r0, #19
	bl	ANSI_CursorCol(PLT)
	.loc 1 612 0
	mov	r0, #10
	bl	ANSI_ClearCell(PLT)
	.loc 1 613 0
	ldr	r2, [sp, #16]
	mov	r1, r4
	mov	r0, #1
	bl	PutString(PLT)
	.loc 1 614 0
	mov	r0, #1
	bl	ANSI_CursorNextLine(PLT)
	.loc 1 616 0
	mov	r1, #1
	mov	r0, #23
	bl	ANSI_Cursor(PLT)
	.loc 1 618 0
	mov	r0, #70
	bl	ANSI_CursorCol(PLT)
	.loc 1 619 0
	mov	r0, #0
	bl	ANSI_ClearLine(PLT)
	.loc 1 620 0
	ldr	r2, [sp, #20]
	mov	r1, r7
	mov	r0, #1
	bl	PutString(PLT)
	.loc 1 621 0
	mov	r0, #1
	bl	ANSI_CursorNextLine(PLT)
	.loc 1 623 0
	mov	r0, #70
	bl	ANSI_CursorCol(PLT)
	.loc 1 624 0
	mov	r0, #0
	bl	ANSI_ClearLine(PLT)
	.loc 1 625 0
	mov	r2, r8
	mov	r1, r7
	mov	r0, #1
	bl	PutString(PLT)
	.loc 1 626 0
	mov	r0, #1
	bl	ANSI_CursorNextLine(PLT)
	.loc 1 628 0
	mov	r0, #70
	bl	ANSI_CursorCol(PLT)
	.loc 1 629 0
	mov	r0, #0
	bl	ANSI_ClearLine(PLT)
	.loc 1 631 0
	ldr	r3, [sp, #24]
	cmp	r3, #2
	bgt	.L240
.L231:
	.loc 1 636 0
	mov	r1, r7
	mov	r2, r9
	mov	r0, #1
	bl	PutString(PLT)
	.loc 1 638 0
	mov	r0, #0
	bl	ANSI_Style(PLT)
	.loc 1 639 0
	ldr	r3, .L241+32
	ldr	r2, .L241+36
	ldr	r0, [r6, r3]
	ldr	r1, [r6, r2]
	bl	ANSI_Color(PLT)
	.loc 1 641 0
	mov	r0, #1
	bl	ANSI_CursorNextLine(PLT)
.LVL144:
.L230:
	.loc 1 644 0
	ldr	r3, .L241+12
	ldr	r2, [sp, #28]
	str	r2, [r6, r3]
	.loc 1 645 0
	add	sp, sp, #32
	ldmfd	sp!, {r4, r5, r6, r7, r8, r9, sl, fp, pc}
.L239:
	.loc 1 583 0
	ldrsh	r3, [r6, #48]
	cmp	r3, #0
	bne	.L228
	b	.L230
.LVL145:
.L235:
	.loc 1 513 0
	mov	r0, #23
	mov	r1, #1
	bl	ANSI_Cursor(PLT)
	.loc 1 514 0
	ldr	r1, .L241+40
	mov	r0, #1
	add	r1, sl, r1
	bl	PutString(PLT)
	.loc 1 515 0
	mov	r0, #1
	bl	ANSI_CursorNextLine(PLT)
	.loc 1 516 0
	ldr	r1, .L241+44
	mov	r0, #1
	add	r1, sl, r1
	bl	PutString(PLT)
	.loc 1 517 0
	mov	r0, #1
	bl	ANSI_CursorNextLine(PLT)
	.loc 1 518 0
	ldr	r1, .L241+48
	mov	r0, #1
	add	r1, sl, r1
	bl	PutString(PLT)
	.loc 1 519 0
	mov	r0, #1
	bl	ANSI_CursorNextLine(PLT)
	.loc 1 520 0
	ldr	r1, .L241+52
	mov	r0, #1
	add	r1, sl, r1
	bl	PutString(PLT)
	.loc 1 521 0
	mov	r0, #1
	bl	ANSI_CursorNextLine(PLT)
	.loc 1 522 0
	ldr	r1, .L241+56
	mov	r0, #1
	add	r1, sl, r1
	bl	PutString(PLT)
	.loc 1 523 0
	mov	r0, #1
	bl	ANSI_CursorNextLine(PLT)
	.loc 1 524 0
	ldr	r1, .L241+60
	mov	r0, #1
	add	r1, sl, r1
	bl	PutString(PLT)
	.loc 1 525 0
	mov	r0, #23
	mov	r1, #40
	bl	ANSI_Cursor(PLT)
	.loc 1 526 0
	ldr	r1, .L241+64
	mov	r0, #1
	add	r1, sl, r1
	bl	PutString(PLT)
	.loc 1 527 0
	mov	r0, #1
	bl	ANSI_CursorNextLine(PLT)
	.loc 1 528 0
	mov	r0, #40
	bl	ANSI_CursorCol(PLT)
	.loc 1 529 0
	ldr	r1, .L241+68
	mov	r0, #1
	add	r1, sl, r1
	bl	PutString(PLT)
	.loc 1 530 0
	mov	r0, #1
	bl	ANSI_CursorNextLine(PLT)
	.loc 1 531 0
	mov	r0, #40
	bl	ANSI_CursorCol(PLT)
	.loc 1 532 0
	ldr	r1, .L241+72
	mov	r0, #1
	add	r1, sl, r1
	bl	PutString(PLT)
	b	.L217
.LVL146:
.L240:
	.loc 1 632 0
	mov	r0, #7
	mov	r1, #1
	bl	ANSI_Color(PLT)
	.loc 1 633 0
	mov	r0, #1
	bl	ANSI_Style(PLT)
	b	.L231
.LVL147:
.L238:
	.loc 1 567 0
	ldr	r3, .L241+76
	add	r3, sl, r3
	str	r3, [sp, #16]
	b	.L227
.LVL148:
.L236:
	.loc 1 561 0
	ldr	r2, [r4, #12]
	.loc 1 555 0
	ldr	r3, .L241+80
	.loc 1 561 0
	cmp	r2, #0
	.loc 1 562 0
	ldrne	r2, [r2, #0]
	.loc 1 555 0
	add	r3, sl, r3
	str	r3, [sp, #8]
	.loc 1 562 0
	strne	r2, [sp, #12]
.LVL149:
	.loc 1 561 0
	bne	.L224
.L237:
	ldr	r3, .L241+76
	add	r3, sl, r3
	str	r3, [sp, #12]
	b	.L224
.L242:
	.align	2
.L241:
	.word	_GLOBAL_OFFSET_TABLE_-(.L234+8)
	.word	30888
	.word	.LC39(GOTOFF)
	.word	31924
	.word	.LC10(GOTOFF)
	.word	.LC42(GOTOFF)
	.word	TRAIN_ENGINE_STATE_NAMES(GOT)
	.word	.LC43(GOTOFF)
	.word	31916
	.word	31920
	.word	.LC30(GOTOFF)
	.word	.LC31(GOTOFF)
	.word	.LC32(GOTOFF)
	.word	.LC33(GOTOFF)
	.word	.LC34(GOTOFF)
	.word	.LC35(GOTOFF)
	.word	.LC36(GOTOFF)
	.word	.LC37(GOTOFF)
	.word	.LC38(GOTOFF)
	.word	.LC41(GOTOFF)
	.word	.LC40(GOTOFF)
.LFE21:
	.size	UIServer_PrintTrainEngineStatus, .-UIServer_PrintTrainEngineStatus
	.align	2
	.global	UIServer_Render
	.type	UIServer_Render, %function
UIServer_Render:
.LFB4:
	.loc 1 122 0
	@ args = 0, pretend = 0, frame = 0
	@ frame_needed = 0, uses_anonymous_args = 0
.LVL150:
	stmfd	sp!, {r4, sl, lr}
.LCFI31:
	mov	r4, r0
	.loc 1 123 0
	ldrsh	r3, [r4, #48]
	.loc 1 122 0
	ldr	sl, .L248
	.loc 1 124 0
	mov	r0, #1
.LVL151:
	.loc 1 123 0
	cmp	r3, #0
	.loc 1 122 0
.L247:
	add	sl, pc, sl
	.loc 1 124 0
	mov	r1, r0
	.loc 1 123 0
	beq	.L244
	.loc 1 124 0
	bl	ANSI_Cursor(PLT)
	.loc 1 125 0
	ldr	r3, .L248+4
	ldr	r2, .L248+8
	ldr	r0, [r4, r3]
	ldr	r1, [r4, r2]
	bl	ANSI_Color(PLT)
	.loc 1 126 0
	mov	r0, #2
	bl	ANSI_ClearScreen(PLT)
	.loc 1 127 0
	mov	r0, #1
	mov	r1, r0
	bl	ANSI_Cursor(PLT)
	.loc 1 128 0
	ldr	r3, .L248+12
	mov	r0, #1
	ldr	r1, [sl, r3]
	bl	PutString(PLT)
.L244:
	.loc 1 131 0
	mov	r0, r4
	bl	UIServer_PrintTime(PLT)
	.loc 1 132 0
	mov	r0, r4
	bl	UIServer_PrintMap(PLT)
	.loc 1 133 0
	mov	r0, r4
	bl	UIServer_PrintSensors(PLT)
	.loc 1 134 0
	mov	r0, r4
	bl	UIServer_PrintSwitches(PLT)
	.loc 1 135 0
	mov	r0, r4
	bl	UIServer_PrintTrainMapPosition(PLT)
	.loc 1 136 0
	mov	r0, r4
	bl	UIServer_PrintTrainEngineStatus(PLT)
	.loc 1 137 0
	mov	r0, r4
	bl	UIServer_PrintCommandLine(PLT)
	.loc 1 139 0
	mov	r3, #0	@ movhi
	strh	r3, [r4, #48]	@ movhi
	.loc 1 140 0
	ldmfd	sp!, {r4, sl, pc}
.L249:
	.align	2
.L248:
	.word	_GLOBAL_OFFSET_TABLE_-(.L247+8)
	.word	31916
	.word	31920
	.word	UI_SERVER_HEADER(GOT)
.LFE4:
	.size	UIServer_Render, .-UIServer_Render
	.section	.rodata
	.align	2
	.type	__func__.2084, %object
	.size	__func__.2084, 15
__func__.2084:
	.ascii	"UIServer_Start\000"
	.section	.rodata.str1.4
	.align	2
.LC44:
	.ascii	"UIServer_Start failed to register name\000"
	.align	2
.LC45:
	.ascii	"UITimer tid 0\000"
	.align	2
.LC46:
	.ascii	"UIServer failed to create UIKeyboardInput\000"
	.align	2
.LC47:
	.ascii	"UIserver failed to create print task\000"
	.align	2
.LC48:
	.ascii	"UIServer_Start: unknown message type\000"
	.align	2
.LC49:
	.ascii	"UIServer: Failed to get Ack from print task\000"
	.text
	.align	2
	.global	UIServer_Start
	.type	UIServer_Start, %function
UIServer_Start:
.LFB2:
	.loc 1 12 0
	@ args = 0, pretend = 0, frame = 31936
	@ frame_needed = 0, uses_anonymous_args = 0
.LVL152:
	stmfd	sp!, {r4, r5, r6, r7, r8, r9, sl, lr}
.LCFI32:
	ldr	sl, .L275
	.loc 1 13 0
	ldr	r2, .L275+4
	ldr	r3, .L275+8
	.loc 1 12 0
.L270:
	add	sl, pc, sl
	sub	sp, sp, #31744
.LCFI33:
.LVL153:
	sub	sp, sp, #196
.LCFI34:
.LVL154:
	.loc 1 13 0
	ldr	r1, [sl, r2]
	ldr	r0, [sl, r3]
	bl	DebugRegisterFunction(PLT)
	.loc 1 14 0
	ldr	r3, .L275+12
	.loc 1 24 0
	add	r5, sp, #196
	.loc 1 14 0
	ldr	r0, [sl, r3]
	bl	RegisterAs(PLT)
	.loc 1 18 0
	ldr	r1, .L275+16
	rsbs	r0, r0, #1
	movcc	r0, #0
	add	r1, sl, r1
	bl	assert(PLT)
	.loc 1 20 0
	ldr	r3, .L275+20
	mov	r0, #8
	ldr	r1, [sl, r3]
	bl	Create(PLT)
	.loc 1 21 0
	ldr	r1, .L275+24
	.loc 1 24 0
	sub	r5, r5, #192
	.loc 1 21 0
	add	r1, sl, r1
	bl	assert(PLT)
	.loc 1 24 0
	mov	r0, r5
	bl	UIServer_Initialize(PLT)
	.loc 1 26 0
	ldr	r3, .L275+28
	mov	r0, #16
	ldr	r1, [sl, r3]
	bl	Create(PLT)
	.loc 1 27 0
	ldr	r1, .L275+32
	add	r7, sp, #31744
	add	r1, sl, r1
	bl	assert(PLT)
	.loc 1 29 0
	ldr	r3, .L275+36
	mov	r0, #7
	ldr	r1, [sl, r3]
	bl	Create(PLT)
	.loc 1 30 0
	ldr	r1, .L275+40
	.loc 1 29 0
	mov	r9, r0
.LVL155:
	.loc 1 30 0
	add	r1, sl, r1
	bl	assert(PLT)
	.loc 1 36 0
	mov	r3, #10
	.loc 1 33 0
	add	r8, r5, #16
.LVL156:
	.loc 1 36 0
	mov	r6, #2
.LVL157:
	str	r3, [r5, #16]
	mov	r4, #0
.LVL158:
	add	r7, r7, #192
.LVL159:
.L271:
	.loc 1 39 0
	mov	r0, r7
	mov	r1, r5
	mov	r2, #16
	bl	Receive(PLT)
	.loc 1 41 0
	ldr	r3, [r5, #0]
	cmp	r3, #22
	beq	.L254
.L273:
	cmp	r3, #24
	beq	.L255
	cmp	r3, #12
	beq	.L272
	.loc 1 77 0
	ldr	r1, .L275+44
	mov	r0, #0
	add	r1, sl, r1
	bl	assert(PLT)
	.loc 1 39 0
	mov	r0, r7
	mov	r1, r5
	mov	r2, #16
	bl	Receive(PLT)
	.loc 1 41 0
	ldr	r3, [r5, #0]
	cmp	r3, #22
	bne	.L273
.L254:
	.loc 1 49 0
	cmp	r4, #0
	.loc 1 50 0
	movne	r3, #12
	strne	r3, [r8, #0]
	.loc 1 54 0
	add	r3, sp, #28672
	ldr	r0, [r3, #3264]
	add	r1, r5, #16
	mov	r2, #16
	.loc 1 51 0
	subne	r6, r6, #1
	.loc 1 54 0
	bl	Reply(PLT)
	.loc 1 56 0
	cmp	r4, #0
	beq	.L274
.L258:
	.loc 1 38 0
	cmp	r6, #0
	bne	.L271
	.loc 1 83 0
	mov	r4, #16
.LVL160:
	.loc 1 82 0
	mov	ip, #12
	.loc 1 83 0
	mov	r1, r5
	mov	r2, r4
	add	r3, r5, r4
	mov	r0, r9
	.loc 1 82 0
	str	ip, [r5, #0]
	.loc 1 83 0
	str	r4, [sp, #0]
	bl	Send(PLT)
	.loc 1 84 0
	ldr	r0, [r8, #0]
	ldr	r1, .L275+48
	cmp	r0, #10
	movne	r0, #0
	moveq	r0, #1
	add	r1, sl, r1
	bl	assert(PLT)
	.loc 1 86 0
	bl	Exit(PLT)
	.loc 1 87 0
	add	sp, sp, #196
	add	sp, sp, #31744
	ldmfd	sp!, {r4, r5, r6, r7, r8, r9, sl, pc}
.LVL161:
.L255:
	.loc 1 65 0
	cmp	r4, #0
	.loc 1 66 0
	movne	r3, #12
	strne	r3, [r8, #0]
	.loc 1 70 0
	add	r3, sp, #28672
	ldr	r0, [r3, #3264]
	add	r1, r5, #16
	mov	r2, #16
	.loc 1 67 0
	subne	r6, r6, #1
	.loc 1 70 0
	bl	Reply(PLT)
	.loc 1 72 0
	cmp	r4, #0
	bne	.L258
	.loc 1 73 0
	mov	r0, r5
	ldrb	r1, [r5, #4]	@ zero_extendqisi2
	bl	UIServer_ProcessKeystroke(PLT)
	b	.L258
.L272:
	.loc 1 43 0
	add	r3, sp, #28672
	ldr	r0, [r3, #3264]
	add	r1, r5, #16
	mov	r2, #16
	bl	Reply(PLT)
	mov	r4, #1
	b	.L271
.L274:
	.loc 1 58 0
	mov	r0, r5
	bl	UIServer_Render(PLT)
	b	.L258
.L276:
	.align	2
.L275:
	.word	_GLOBAL_OFFSET_TABLE_-(.L270+8)
	.word	__func__.2084(GOT)
	.word	UIServer_Start(GOT)
	.word	UI_SERVER_NAME(GOT)
	.word	.LC44(GOTOFF)
	.word	UITimer_Start(GOT)
	.word	.LC45(GOTOFF)
	.word	UIKeyboardInput_Start(GOT)
	.word	.LC46(GOTOFF)
	.word	UIPrintTask_Start(GOT)
	.word	.LC47(GOTOFF)
	.word	.LC48(GOTOFF)
	.word	.LC49(GOTOFF)
.LFE2:
	.size	UIServer_Start, .-UIServer_Start
	.section	.rodata
	.align	2
	.type	__func__.2560, %object
	.size	__func__.2560, 14
__func__.2560:
	.ascii	"UITimer_Start\000"
	.section	.rodata.str1.4
	.align	2
.LC50:
	.ascii	"UITimer_Start failed to register name\000"
	.align	2
.LC51:
	.ascii	"UITimer_Start: server tid not found\000"
	.align	2
.LC52:
	.ascii	"UITimer_Start: didn't get ACK message\000"
	.text
	.align	2
	.global	UITimer_Start
	.type	UITimer_Start, %function
UITimer_Start:
.LFB23:
	.loc 1 680 0
	@ args = 0, pretend = 0, frame = 32
	@ frame_needed = 0, uses_anonymous_args = 0
.LVL162:
	stmfd	sp!, {r4, r5, r6, r7, r8, sl, lr}
.LCFI35:
	ldr	sl, .L284
	.loc 1 681 0
	ldr	r2, .L284+4
	ldr	r3, .L284+8
	.loc 1 680 0
.L283:
	add	sl, pc, sl
	sub	sp, sp, #36
.LCFI36:
.LVL163:
	.loc 1 681 0
	ldr	r1, [sl, r2]
	ldr	r0, [sl, r3]
	bl	DebugRegisterFunction(PLT)
	.loc 1 682 0
	ldr	r3, .L284+12
	ldr	r8, .L284+16
	ldr	r0, [sl, r3]
	bl	RegisterAs(PLT)
	.loc 1 683 0
	ldr	r1, .L284+20
	rsbs	r0, r0, #1
	movcc	r0, #0
	add	r1, sl, r1
	bl	assert(PLT)
	.loc 1 688 0
	ldr	r3, .L284+24
	.loc 1 687 0
	add	r7, sp, #4
	.loc 1 688 0
	ldr	r0, [sl, r3]
	bl	WhoIs(PLT)
	.loc 1 689 0
	ldr	r1, .L284+28
	.loc 1 688 0
	mov	r5, r0
.LVL164:
	.loc 1 689 0
	add	r1, sl, r1
	bl	assert(PLT)
	.loc 1 691 0
	mov	r3, #22
	add	r6, sp, #20
	str	r3, [sp, #20]
	mov	r4, #16
.L278:
	.loc 1 694 0
	mov	r0, #1056964608
	bl	DelaySeconds(PLT)
	.loc 1 695 0
	mov	r3, r7
	mov	r1, r6
	mov	r2, r4
	mov	r0, r5
	str	r4, [sp, #0]
	bl	Send(PLT)
	.loc 1 696 0
	ldr	r0, [sp, #4]
	add	r1, sl, r8
	cmp	r0, #12
	cmpne	r0, #10
	movne	r0, #0
	moveq	r0, #1
	bl	assert(PLT)
	.loc 1 699 0
	ldr	r3, [sp, #4]
	cmp	r3, #12
	bne	.L278
	.loc 1 704 0
	bl	Exit(PLT)
	.loc 1 705 0
	add	sp, sp, #36
	ldmfd	sp!, {r4, r5, r6, r7, r8, sl, pc}
.L285:
	.align	2
.L284:
	.word	_GLOBAL_OFFSET_TABLE_-(.L283+8)
	.word	__func__.2560(GOT)
	.word	UITimer_Start(GOT)
	.word	UI_TIMER_NAME(GOT)
	.word	.LC52(GOTOFF)
	.word	.LC50(GOTOFF)
	.word	UI_SERVER_NAME(GOT)
	.word	.LC51(GOTOFF)
.LFE23:
	.size	UITimer_Start, .-UITimer_Start
	.section	.rodata
	.align	2
	.type	__func__.2579, %object
	.size	__func__.2579, 22
__func__.2579:
	.ascii	"UIKeyboardInput_Start\000"
	.section	.rodata.str1.4
	.align	2
.LC53:
	.ascii	"UIKeyboardInput: failed to get tid for ui server\000"
	.align	2
.LC54:
	.ascii	"UIKeyboardInput: got 0x00 from keyboard?\000"
	.align	2
.LC55:
	.ascii	"UIKeyboardInput: failed to send char to ui server\000"
	.text
	.align	2
	.global	UIKeyboardInput_Start
	.type	UIKeyboardInput_Start, %function
UIKeyboardInput_Start:
.LFB24:
	.loc 1 707 0
	@ args = 0, pretend = 0, frame = 32
	@ frame_needed = 0, uses_anonymous_args = 0
.LVL165:
	stmfd	sp!, {r4, r5, r6, r7, r8, r9, sl, fp, lr}
.LCFI37:
	ldr	sl, .L297
	.loc 1 708 0
	ldr	r3, .L297+4
	ldr	r2, .L297+8
	.loc 1 707 0
.L294:
	add	sl, pc, sl
	sub	sp, sp, #36
.LCFI38:
.LVL166:
	.loc 1 708 0
	ldr	r0, [sl, r3]
	ldr	r1, [sl, r2]
	bl	DebugRegisterFunction(PLT)
	ldr	r8, .L297+12
	ldr	r9, .L297+16
	ldr	r7, .L297+20
	.loc 1 712 0
	add	fp, sp, #20
	.loc 1 713 0
	add	r5, sp, #4
	mov	r4, #0
.LVL167:
	b	.L287
.LVL168:
.L295:
	.loc 1 726 0
	cmp	r4, r9
	movgt	r0, #0
	movle	r0, #1
	bl	assert(PLT)
.L287:
	.loc 1 719 0
	ldr	r0, [sl, r8]
	bl	WhoIs(PLT)
	.loc 1 721 0
	subs	r6, r0, #0
	.loc 1 725 0
	add	r4, r4, #1
	.loc 1 726 0
	add	r1, sl, r7
	.loc 1 721 0
	beq	.L295
	ldr	r9, .L297+24
	ldr	r8, .L297+28
	mov	r7, #16
	b	.L288
.LVL169:
.L296:
	.loc 1 743 0
	cmp	r0, #10
	movne	r0, #0
	moveq	r0, #1
	bl	assert(PLT)
.LVL170:
.L288:
	.loc 1 730 0
	mov	r0, #1
	bl	Getc(PLT)
	.loc 1 732 0
	ands	r4, r0, #255
.LVL171:
	moveq	r0, #0
	movne	r0, #1
	add	r1, sl, r9
	bl	assert(PLT)
	.loc 1 737 0
	mov	r1, r5
	.loc 1 734 0
	mov	ip, #24
	.loc 1 737 0
	mov	r2, r7
	mov	r3, fp
	mov	r0, r6
	.loc 1 734 0
	str	ip, [r5, #0]
	.loc 1 735 0
	strb	r4, [r5, #4]
	.loc 1 737 0
	str	r7, [sp, #0]
	bl	Send(PLT)
	.loc 1 739 0
	ldr	r0, [sp, #20]
	.loc 1 743 0
	add	r1, sl, r8
	.loc 1 739 0
	cmp	r0, #12
	bne	.L296
	.loc 1 746 0
	bl	Exit(PLT)
	.loc 1 747 0
	add	sp, sp, #36
	ldmfd	sp!, {r4, r5, r6, r7, r8, r9, sl, fp, pc}
.L298:
	.align	2
.L297:
	.word	_GLOBAL_OFFSET_TABLE_-(.L294+8)
	.word	UIKeyboardInput_Start(GOT)
	.word	__func__.2579(GOT)
	.word	UI_SERVER_NAME(GOT)
	.word	999
	.word	.LC53(GOTOFF)
	.word	.LC54(GOTOFF)
	.word	.LC55(GOTOFF)
.LFE24:
	.size	UIKeyboardInput_Start, .-UIKeyboardInput_Start
	.section	.rodata
	.align	2
	.type	__func__.2599, %object
	.size	__func__.2599, 18
__func__.2599:
	.ascii	"UIPrintTask_Start\000"
	.section	.rodata.str1.4
	.align	2
.LC56:
	.ascii	"%d: \000"
	.align	2
.LC57:
	.ascii	"UIPrintTask: unknown message type\000"
	.text
	.align	2
	.global	UIPrintTask_Start
	.type	UIPrintTask_Start, %function
UIPrintTask_Start:
.LFB25:
	.loc 1 749 0
	@ args = 0, pretend = 0, frame = 36
	@ frame_needed = 0, uses_anonymous_args = 0
.LVL172:
	stmfd	sp!, {r4, r5, r6, r7, sl, lr}
.LCFI39:
	ldr	sl, .L314
	.loc 1 750 0
	ldr	r3, .L314+4
	ldr	r2, .L314+8
	.loc 1 749 0
.L311:
	add	sl, pc, sl
	sub	sp, sp, #36
.LCFI40:
.LVL173:
	.loc 1 750 0
	ldr	r0, [sl, r3]
	ldr	r1, [sl, r2]
	bl	DebugRegisterFunction(PLT)
	.loc 1 751 0
	ldr	r3, .L314+12
	.loc 1 756 0
	add	r6, sp, #16
	.loc 1 751 0
	ldr	r0, [sl, r3]
	bl	RegisterAs(PLT)
	.loc 1 757 0
	mov	r4, sp
	mov	r5, #0
.LVL174:
	add	r7, sp, #32
.LVL175:
.L312:
	.loc 1 764 0
	mov	r1, r6
	mov	r2, #16
	mov	r0, r7
	bl	Receive(PLT)
	.loc 1 767 0
	ldr	r2, [sp, #16]
	.loc 1 786 0
	ldr	r1, .L314+16
	.loc 1 765 0
	mov	r3, #10
	.loc 1 767 0
	cmp	r2, #12
	.loc 1 786 0
	mov	r0, #0
	add	r1, sl, r1
	.loc 1 765 0
	str	r3, [r4, #0]
	.loc 1 767 0
	beq	.L302
	cmp	r2, #35
	beq	.L313
	.loc 1 786 0
	bl	assert(PLT)
	b	.L312
.L302:
	.loc 1 782 0
	mov	r1, sp
	mov	r2, #16
	ldr	r0, [sp, #32]
	bl	Reply(PLT)
	.loc 1 791 0
	bl	Exit(PLT)
	.loc 1 793 0
	add	sp, sp, #36
	ldmfd	sp!, {r4, r5, r6, r7, sl, pc}
.L313:
	.loc 1 769 0
	mov	r2, #16
	mov	r1, sp
	ldr	r0, [sp, #32]
	bl	Reply(PLT)
	.loc 1 770 0
	bl	ANSI_SaveCursor(PLT)
	.loc 1 771 0
	mov	r1, #1
	add	r0, r5, #30
	bl	ANSI_Cursor(PLT)
	.loc 1 772 0
	mov	r0, #0
	bl	ANSI_ClearLine(PLT)
	.loc 1 773 0
	bl	Time(PLT)
	ldr	r1, .L314+20
	mov	r2, r0
	add	r1, sl, r1
	mov	r0, #1
	bl	PutString(PLT)
	.loc 1 774 0
	ldmib	r6, {r1, r2}	@ phole ldm
	mov	r0, #1
	bl	PutStringFormat(PLT)
	.loc 1 775 0
	mov	r0, #1
	bl	ANSI_CursorNextLine(PLT)
	.loc 1 776 0
	mov	r0, #0
	bl	ANSI_ClearLine(PLT)
	.loc 1 778 0
	ldr	r3, .L314+24
	.loc 1 777 0
	add	r1, r5, #1
.LVL176:
	.loc 1 778 0
	smull	r2, r0, r3, r1
	mov	r2, r1, asr #31
	rsb	r5, r2, r0, asr #3
	add	r3, r5, r5, asl #2
	add	r3, r3, r3, asl #2
	rsb	r5, r3, r1
	.loc 1 779 0
	bl	ANSI_RestoreCursor(PLT)
.LVL177:
	b	.L312
.L315:
	.align	2
.L314:
	.word	_GLOBAL_OFFSET_TABLE_-(.L311+8)
	.word	UIPrintTask_Start(GOT)
	.word	__func__.2599(GOT)
	.word	UI_PRINT_TASK_NAME(GOT)
	.word	.LC57(GOTOFF)
	.word	.LC56(GOTOFF)
	.word	1374389535
.LFE25:
	.size	UIPrintTask_Start, .-UIPrintTask_Start
	.section	.debug_frame,"",%progbits
.Lframe0:
	.4byte	.LECIE0-.LSCIE0
.LSCIE0:
	.4byte	0xffffffff
	.byte	0x1
	.ascii	"\000"
	.uleb128 0x1
	.sleb128 -4
	.byte	0xe
	.byte	0xc
	.uleb128 0xd
	.uleb128 0x0
	.align	2
.LECIE0:
.LSFDE0:
	.4byte	.LEFDE0-.LASFDE0
.LASFDE0:
	.4byte	.Lframe0
	.4byte	.LFB3
	.4byte	.LFE3-.LFB3
	.byte	0x4
	.4byte	.LCFI0-.LFB3
	.byte	0xe
	.uleb128 0x1c
	.byte	0x8e
	.uleb128 0x1
	.byte	0x8a
	.uleb128 0x2
	.byte	0x88
	.uleb128 0x3
	.byte	0x87
	.uleb128 0x4
	.byte	0x86
	.uleb128 0x5
	.byte	0x85
	.uleb128 0x6
	.byte	0x84
	.uleb128 0x7
	.align	2
.LEFDE0:
.LSFDE2:
	.4byte	.LEFDE2-.LASFDE2
.LASFDE2:
	.4byte	.Lframe0
	.4byte	.LFB20
	.4byte	.LFE20-.LFB20
	.byte	0x4
	.4byte	.LCFI1-.LFB20
	.byte	0xe
	.uleb128 0x24
	.byte	0x8e
	.uleb128 0x1
	.byte	0x8b
	.uleb128 0x2
	.byte	0x8a
	.uleb128 0x3
	.byte	0x89
	.uleb128 0x4
	.byte	0x88
	.uleb128 0x5
	.byte	0x87
	.uleb128 0x6
	.byte	0x86
	.uleb128 0x7
	.byte	0x85
	.uleb128 0x8
	.byte	0x84
	.uleb128 0x9
	.byte	0x4
	.4byte	.LCFI2-.LCFI1
	.byte	0xe
	.uleb128 0x30
	.align	2
.LEFDE2:
.LSFDE4:
	.4byte	.LEFDE4-.LASFDE4
.LASFDE4:
	.4byte	.Lframe0
	.4byte	.LFB22
	.4byte	.LFE22-.LFB22
	.byte	0x4
	.4byte	.LCFI3-.LFB22
	.byte	0xe
	.uleb128 0x18
	.byte	0x8e
	.uleb128 0x1
	.byte	0x8a
	.uleb128 0x2
	.byte	0x87
	.uleb128 0x3
	.byte	0x86
	.uleb128 0x4
	.byte	0x85
	.uleb128 0x5
	.byte	0x84
	.uleb128 0x6
	.byte	0x4
	.4byte	.LCFI4-.LCFI3
	.byte	0xe
	.uleb128 0x1c
	.align	2
.LEFDE4:
.LSFDE6:
	.4byte	.LEFDE6-.LASFDE6
.LASFDE6:
	.4byte	.Lframe0
	.4byte	.LFB5
	.4byte	.LFE5-.LFB5
	.byte	0x4
	.4byte	.LCFI5-.LFB5
	.byte	0xe
	.uleb128 0x24
	.byte	0x8e
	.uleb128 0x1
	.byte	0x8b
	.uleb128 0x2
	.byte	0x8a
	.uleb128 0x3
	.byte	0x89
	.uleb128 0x4
	.byte	0x88
	.uleb128 0x5
	.byte	0x87
	.uleb128 0x6
	.byte	0x86
	.uleb128 0x7
	.byte	0x85
	.uleb128 0x8
	.byte	0x84
	.uleb128 0x9
	.byte	0x4
	.4byte	.LCFI6-.LCFI5
	.byte	0xe
	.uleb128 0x54
	.align	2
.LEFDE6:
.LSFDE8:
	.4byte	.LEFDE8-.LASFDE8
.LASFDE8:
	.4byte	.Lframe0
	.4byte	.LFB18
	.4byte	.LFE18-.LFB18
	.byte	0x4
	.4byte	.LCFI7-.LFB18
	.byte	0xe
	.uleb128 0x24
	.byte	0x8e
	.uleb128 0x1
	.byte	0x8b
	.uleb128 0x2
	.byte	0x8a
	.uleb128 0x3
	.byte	0x89
	.uleb128 0x4
	.byte	0x88
	.uleb128 0x5
	.byte	0x87
	.uleb128 0x6
	.byte	0x86
	.uleb128 0x7
	.byte	0x85
	.uleb128 0x8
	.byte	0x84
	.uleb128 0x9
	.byte	0x4
	.4byte	.LCFI8-.LCFI7
	.byte	0xe
	.uleb128 0x50
	.align	2
.LEFDE8:
.LSFDE10:
	.4byte	.LEFDE10-.LASFDE10
.LASFDE10:
	.4byte	.Lframe0
	.4byte	.LFB6
	.4byte	.LFE6-.LFB6
	.byte	0x4
	.4byte	.LCFI9-.LFB6
	.byte	0xe
	.uleb128 0xc
	.byte	0x8e
	.uleb128 0x1
	.byte	0x8a
	.uleb128 0x2
	.byte	0x84
	.uleb128 0x3
	.align	2
.LEFDE10:
.LSFDE12:
	.4byte	.LEFDE12-.LASFDE12
.LASFDE12:
	.4byte	.Lframe0
	.4byte	.LFB9
	.4byte	.LFE9-.LFB9
	.byte	0x4
	.4byte	.LCFI10-.LFB9
	.byte	0xe
	.uleb128 0x8
	.byte	0x8e
	.uleb128 0x1
	.byte	0x84
	.uleb128 0x2
	.align	2
.LEFDE12:
.LSFDE14:
	.4byte	.LEFDE14-.LASFDE14
.LASFDE14:
	.4byte	.Lframe0
	.4byte	.LFB10
	.4byte	.LFE10-.LFB10
	.byte	0x4
	.4byte	.LCFI11-.LFB10
	.byte	0xe
	.uleb128 0x4
	.byte	0x8a
	.uleb128 0x1
	.align	2
.LEFDE14:
.LSFDE16:
	.4byte	.LEFDE16-.LASFDE16
.LASFDE16:
	.4byte	.Lframe0
	.4byte	.LFB17
	.4byte	.LFE17-.LFB17
	.byte	0x4
	.4byte	.LCFI12-.LFB17
	.byte	0xe
	.uleb128 0x14
	.byte	0x8e
	.uleb128 0x1
	.byte	0x8a
	.uleb128 0x2
	.byte	0x86
	.uleb128 0x3
	.byte	0x85
	.uleb128 0x4
	.byte	0x84
	.uleb128 0x5
	.byte	0x4
	.4byte	.LCFI13-.LCFI12
	.byte	0xe
	.uleb128 0x18
	.align	2
.LEFDE16:
.LSFDE18:
	.4byte	.LEFDE18-.LASFDE18
.LASFDE18:
	.4byte	.Lframe0
	.4byte	.LFB14
	.4byte	.LFE14-.LFB14
	.byte	0x4
	.4byte	.LCFI14-.LFB14
	.byte	0xe
	.uleb128 0xc
	.byte	0x8e
	.uleb128 0x1
	.byte	0x8a
	.uleb128 0x2
	.byte	0x84
	.uleb128 0x3
	.byte	0x4
	.4byte	.LCFI15-.LCFI14
	.byte	0xe
	.uleb128 0x10
	.align	2
.LEFDE18:
.LSFDE20:
	.4byte	.LEFDE20-.LASFDE20
.LASFDE20:
	.4byte	.Lframe0
	.4byte	.LFB16
	.4byte	.LFE16-.LFB16
	.byte	0x4
	.4byte	.LCFI16-.LFB16
	.byte	0xe
	.uleb128 0x10
	.byte	0x8e
	.uleb128 0x1
	.byte	0x8a
	.uleb128 0x2
	.byte	0x85
	.uleb128 0x3
	.byte	0x84
	.uleb128 0x4
	.byte	0x4
	.4byte	.LCFI17-.LCFI16
	.byte	0xe
	.uleb128 0x14
	.align	2
.LEFDE20:
.LSFDE22:
	.4byte	.LEFDE22-.LASFDE22
.LASFDE22:
	.4byte	.Lframe0
	.4byte	.LFB15
	.4byte	.LFE15-.LFB15
	.byte	0x4
	.4byte	.LCFI18-.LFB15
	.byte	0xe
	.uleb128 0x20
	.byte	0x8e
	.uleb128 0x1
	.byte	0x8a
	.uleb128 0x2
	.byte	0x89
	.uleb128 0x3
	.byte	0x88
	.uleb128 0x4
	.byte	0x87
	.uleb128 0x5
	.byte	0x86
	.uleb128 0x6
	.byte	0x85
	.uleb128 0x7
	.byte	0x84
	.uleb128 0x8
	.byte	0x4
	.4byte	.LCFI19-.LCFI18
	.byte	0xe
	.uleb128 0x24
	.align	2
.LEFDE22:
.LSFDE24:
	.4byte	.LEFDE24-.LASFDE24
.LASFDE24:
	.4byte	.Lframe0
	.4byte	.LFB12
	.4byte	.LFE12-.LFB12
	.byte	0x4
	.4byte	.LCFI20-.LFB12
	.byte	0xe
	.uleb128 0xc
	.byte	0x8e
	.uleb128 0x1
	.byte	0x8a
	.uleb128 0x2
	.byte	0x84
	.uleb128 0x3
	.byte	0x4
	.4byte	.LCFI21-.LCFI20
	.byte	0xe
	.uleb128 0x10
	.align	2
.LEFDE24:
.LSFDE26:
	.4byte	.LEFDE26-.LASFDE26
.LASFDE26:
	.4byte	.Lframe0
	.4byte	.LFB11
	.4byte	.LFE11-.LFB11
	.byte	0x4
	.4byte	.LCFI22-.LFB11
	.byte	0xe
	.uleb128 0x18
	.byte	0x8e
	.uleb128 0x1
	.byte	0x8a
	.uleb128 0x2
	.byte	0x87
	.uleb128 0x3
	.byte	0x86
	.uleb128 0x4
	.byte	0x85
	.uleb128 0x5
	.byte	0x84
	.uleb128 0x6
	.byte	0x4
	.4byte	.LCFI23-.LCFI22
	.byte	0xe
	.uleb128 0x1c
	.align	2
.LEFDE26:
.LSFDE28:
	.4byte	.LEFDE28-.LASFDE28
.LASFDE28:
	.4byte	.Lframe0
	.4byte	.LFB13
	.4byte	.LFE13-.LFB13
	.byte	0x4
	.4byte	.LCFI24-.LFB13
	.byte	0xe
	.uleb128 0x18
	.byte	0x8e
	.uleb128 0x1
	.byte	0x8a
	.uleb128 0x2
	.byte	0x87
	.uleb128 0x3
	.byte	0x86
	.uleb128 0x4
	.byte	0x85
	.uleb128 0x5
	.byte	0x84
	.uleb128 0x6
	.align	2
.LEFDE28:
.LSFDE30:
	.4byte	.LEFDE30-.LASFDE30
.LASFDE30:
	.4byte	.Lframe0
	.4byte	.LFB8
	.4byte	.LFE8-.LFB8
	.byte	0x4
	.4byte	.LCFI25-.LFB8
	.byte	0xe
	.uleb128 0xc
	.byte	0x8e
	.uleb128 0x1
	.byte	0x8a
	.uleb128 0x2
	.byte	0x84
	.uleb128 0x3
	.byte	0x4
	.4byte	.LCFI26-.LCFI25
	.byte	0xe
	.uleb128 0x10
	.align	2
.LEFDE30:
.LSFDE32:
	.4byte	.LEFDE32-.LASFDE32
.LASFDE32:
	.4byte	.Lframe0
	.4byte	.LFB7
	.4byte	.LFE7-.LFB7
	.byte	0x4
	.4byte	.LCFI27-.LFB7
	.byte	0xe
	.uleb128 0x10
	.byte	0x8e
	.uleb128 0x1
	.byte	0x8a
	.uleb128 0x2
	.byte	0x85
	.uleb128 0x3
	.byte	0x84
	.uleb128 0x4
	.align	2
.LEFDE32:
.LSFDE34:
	.4byte	.LEFDE34-.LASFDE34
.LASFDE34:
	.4byte	.Lframe0
	.4byte	.LFB19
	.4byte	.LFE19-.LFB19
	.byte	0x4
	.4byte	.LCFI28-.LFB19
	.byte	0xe
	.uleb128 0xc
	.byte	0x8e
	.uleb128 0x1
	.byte	0x85
	.uleb128 0x2
	.byte	0x84
	.uleb128 0x3
	.align	2
.LEFDE34:
.LSFDE36:
	.4byte	.LEFDE36-.LASFDE36
.LASFDE36:
	.4byte	.Lframe0
	.4byte	.LFB21
	.4byte	.LFE21-.LFB21
	.byte	0x4
	.4byte	.LCFI29-.LFB21
	.byte	0xe
	.uleb128 0x24
	.byte	0x8e
	.uleb128 0x1
	.byte	0x8b
	.uleb128 0x2
	.byte	0x8a
	.uleb128 0x3
	.byte	0x89
	.uleb128 0x4
	.byte	0x88
	.uleb128 0x5
	.byte	0x87
	.uleb128 0x6
	.byte	0x86
	.uleb128 0x7
	.byte	0x85
	.uleb128 0x8
	.byte	0x84
	.uleb128 0x9
	.byte	0x4
	.4byte	.LCFI30-.LCFI29
	.byte	0xe
	.uleb128 0x44
	.align	2
.LEFDE36:
.LSFDE38:
	.4byte	.LEFDE38-.LASFDE38
.LASFDE38:
	.4byte	.Lframe0
	.4byte	.LFB4
	.4byte	.LFE4-.LFB4
	.byte	0x4
	.4byte	.LCFI31-.LFB4
	.byte	0xe
	.uleb128 0xc
	.byte	0x8e
	.uleb128 0x1
	.byte	0x8a
	.uleb128 0x2
	.byte	0x84
	.uleb128 0x3
	.align	2
.LEFDE38:
.LSFDE40:
	.4byte	.LEFDE40-.LASFDE40
.LASFDE40:
	.4byte	.Lframe0
	.4byte	.LFB2
	.4byte	.LFE2-.LFB2
	.byte	0x4
	.4byte	.LCFI32-.LFB2
	.byte	0xe
	.uleb128 0x20
	.byte	0x8e
	.uleb128 0x1
	.byte	0x8a
	.uleb128 0x2
	.byte	0x89
	.uleb128 0x3
	.byte	0x88
	.uleb128 0x4
	.byte	0x87
	.uleb128 0x5
	.byte	0x86
	.uleb128 0x6
	.byte	0x85
	.uleb128 0x7
	.byte	0x84
	.uleb128 0x8
	.byte	0x4
	.4byte	.LCFI33-.LCFI32
	.byte	0xe
	.uleb128 0x7c20
	.byte	0x4
	.4byte	.LCFI34-.LCFI33
	.byte	0xe
	.uleb128 0x7ce4
	.align	2
.LEFDE40:
.LSFDE42:
	.4byte	.LEFDE42-.LASFDE42
.LASFDE42:
	.4byte	.Lframe0
	.4byte	.LFB23
	.4byte	.LFE23-.LFB23
	.byte	0x4
	.4byte	.LCFI35-.LFB23
	.byte	0xe
	.uleb128 0x1c
	.byte	0x8e
	.uleb128 0x1
	.byte	0x8a
	.uleb128 0x2
	.byte	0x88
	.uleb128 0x3
	.byte	0x87
	.uleb128 0x4
	.byte	0x86
	.uleb128 0x5
	.byte	0x85
	.uleb128 0x6
	.byte	0x84
	.uleb128 0x7
	.byte	0x4
	.4byte	.LCFI36-.LCFI35
	.byte	0xe
	.uleb128 0x40
	.align	2
.LEFDE42:
.LSFDE44:
	.4byte	.LEFDE44-.LASFDE44
.LASFDE44:
	.4byte	.Lframe0
	.4byte	.LFB24
	.4byte	.LFE24-.LFB24
	.byte	0x4
	.4byte	.LCFI37-.LFB24
	.byte	0xe
	.uleb128 0x24
	.byte	0x8e
	.uleb128 0x1
	.byte	0x8b
	.uleb128 0x2
	.byte	0x8a
	.uleb128 0x3
	.byte	0x89
	.uleb128 0x4
	.byte	0x88
	.uleb128 0x5
	.byte	0x87
	.uleb128 0x6
	.byte	0x86
	.uleb128 0x7
	.byte	0x85
	.uleb128 0x8
	.byte	0x84
	.uleb128 0x9
	.byte	0x4
	.4byte	.LCFI38-.LCFI37
	.byte	0xe
	.uleb128 0x48
	.align	2
.LEFDE44:
.LSFDE46:
	.4byte	.LEFDE46-.LASFDE46
.LASFDE46:
	.4byte	.Lframe0
	.4byte	.LFB25
	.4byte	.LFE25-.LFB25
	.byte	0x4
	.4byte	.LCFI39-.LFB25
	.byte	0xe
	.uleb128 0x18
	.byte	0x8e
	.uleb128 0x1
	.byte	0x8a
	.uleb128 0x2
	.byte	0x87
	.uleb128 0x3
	.byte	0x86
	.uleb128 0x4
	.byte	0x85
	.uleb128 0x5
	.byte	0x84
	.uleb128 0x6
	.byte	0x4
	.4byte	.LCFI40-.LCFI39
	.byte	0xe
	.uleb128 0x3c
	.align	2
.LEFDE46:
	.file 2 "ui.h"
	.file 3 "maps/map.h"
	.file 4 "train.h"
	.file 5 "ansi.h"
	.file 6 "message.h"
	.file 7 "tracks/track_node.h"
	.file 8 "route.h"
	.file 9 "va_list_def.h"
	.file 10 "queue.h"
	.file 11 "public_kernel_interface.h"
	.file 12 "task_descriptor.h"
	.file 13 "buffer.h"
	.file 14 "tasks.h"
	.text
.Letext0: